(dp1
S'output'
p2
S"<type 'exceptions.SyntaxError'> No fields to update"
p3
sS'layer'
p4
S'/Users/keshav/Desktop/web2py/applications/MyApp/controllers/default.py'
p5
sS'code'
p6
S'# -*- coding: utf-8 -*-\n# this file is released under public domain and you can use without limitations\n\n#########################################################################\n## This is a samples controller\n## - index is the default action of any application\n## - user is required for authentication and authorization\n## - download is for downloading files uploaded in the db (does streaming)\n## - call exposes all registered services (none by default)\n#########################################################################\nimport StringIO, sys\nfrom contextlib import contextmanager\nfrom code import InteractiveConsole\n\n\n\n\ndef index():\n    """\n    example action using the internationalization operator T and flash\n    rendered by views/default/index.html or views/generic.html\n\n    if you need a simple wiki simple replace the two lines below with:\n    return auth.wiki()\n    """\n    #response.flash = T("Welcome to web2py!")\n    return dict(message=T(\'Hello World\'))\n    #return "Hello World"\n    #return dict(message=\'Hello World\',message1=\'Hello World again!!\')\n\n\ndef user():\n    """\n    exposes:\n    http://..../[app]/default/user/login\n    http://..../[app]/default/user/logout\n    http://..../[app]/default/user/register\n    http://..../[app]/default/user/profile\n    http://..../[app]/default/user/retrieve_password\n    http://..../[app]/default/user/change_password\n    use @auth.requires_login()\n        @auth.requires_membership(\'group name\')\n        @auth.requires_permission(\'read\',\'table name\',record_id)\n    to decorate functions that need access control\n    """\n    return dict(form=auth())\n\n\ndef download():\n    """\n    allows downloading of uploaded files\n    http://..../[app]/default/download/[filename]\n    """\n    return response.download(request, db)\n\n\ndef call():\n    """\n    exposes services. for example:\n    http://..../[app]/default/call/jsonrpc\n    decorate with @services.jsonrpc the functions to expose\n    supports xml, json, xmlrpc, jsonrpc, amfrpc, rss, csv\n    """\n    return service()\n\n\n@auth.requires_signature()\ndef data():\n    """\n    http://..../[app]/default/data/tables\n    http://..../[app]/default/data/create/[table]\n    http://..../[app]/default/data/read/[table]/[id]\n    http://..../[app]/default/data/update/[table]/[id]\n    http://..../[app]/default/data/delete/[table]/[id]\n    http://..../[app]/default/data/select/[table]\n    http://..../[app]/default/data/search/[table]\n    but URLs must be signed, i.e. linked with\n      A(\'table\',_href=URL(\'data/tables\',user_signature=True))\n    or with the signed load operator\n      LOAD(\'default\',\'data.load\',args=\'tables\',ajax=True,user_signature=True)\n    """\n    return dict(form=crud())\n\n\ndef echo():\n    return request.vars[\'name\']\n\n@contextmanager\ndef redirected(out=sys.stdout, err=sys.stderr):\n\t    saved = sys.stdout, sys.stderr\n\t    sys.stdout, sys.stderr = out, err\n\t    try:\n\t        yield\n\t    finally:\n\t        sys.stdout, sys.stderr = saved\n\nrunner = InteractiveConsole()\ndef fun():\t\t\n\t   \n\t    out = StringIO.StringIO()\n\t    err = StringIO.StringIO()\n\t    with redirected(out=out, err=err):\n\t            code = request.vars[\'name\']\n\t            code.rstrip(\'\\n\')\n\t            runner.push(code)\n\t            output = out.getvalue()\n\t            error = err.getvalue()\n\t            return output+error\n\n\t\t\ndef update_tut():\n    if(auth.is_logged_in()):\n        row = db(db.auth_user.id==auth.user_id).select().first()\n        row.update_record(level=request.vars[\'name\'])\n    else:\n        return 99\n\nresponse._vars=response._caller(update_tut)\n'
p7
sS'snapshot'
p8
(dp9
S'exception'
p10
(dp11
S'__getslice__'
p12
S"<method-wrapper '__getslice__' of exceptions.SyntaxError object at 0x1014082a8>"
p13
sS'text'
p14
S'None'
p15
sS'__str__'
p16
S"<method-wrapper '__str__' of exceptions.SyntaxError object at 0x1014082a8>"
p17
sS'__reduce__'
p18
S'<built-in method __reduce__ of exceptions.SyntaxError object at 0x1014082a8>'
p19
sS'__dict__'
p20
S'{}'
p21
sS'__sizeof__'
p22
S'<built-in method __sizeof__ of exceptions.SyntaxError object at 0x1014082a8>'
p23
sS'__init__'
p24
S"<method-wrapper '__init__' of exceptions.SyntaxError object at 0x1014082a8>"
p25
sS'__setattr__'
p26
S"<method-wrapper '__setattr__' of exceptions.SyntaxError object at 0x1014082a8>"
p27
sS'__reduce_ex__'
p28
S'<built-in method __reduce_ex__ of exceptions.SyntaxError object at 0x1014082a8>'
p29
sS'__new__'
p30
S'<built-in method __new__ of type object at 0x10011bb20>'
p31
sS'__format__'
p32
S'<built-in method __format__ of exceptions.SyntaxError object at 0x1014082a8>'
p33
sS'__class__'
p34
S"<type 'exceptions.SyntaxError'>"
p35
sS'filename'
p36
S'None'
p37
sS'lineno'
p38
S'None'
p39
sS'msg'
p40
S"'No fields to update'"
p41
sS'__doc__'
p42
S"'Invalid syntax.'"
p43
sS'__getitem__'
p44
S"<method-wrapper '__getitem__' of exceptions.SyntaxError object at 0x1014082a8>"
p45
sS'__setstate__'
p46
S'<built-in method __setstate__ of exceptions.SyntaxError object at 0x1014082a8>'
p47
sS'__getattribute__'
p48
S"<method-wrapper '__getattribute__' of exceptions.SyntaxError object at 0x1014082a8>"
p49
sS'print_file_and_line'
p50
S'None'
p51
sS'args'
p52
S"('No fields to update',)"
p53
sS'__subclasshook__'
p54
S'<built-in method __subclasshook__ of type object at 0x10011bb20>'
p55
sS'offset'
p56
S'None'
p57
sS'__unicode__'
p58
S'<built-in method __unicode__ of exceptions.SyntaxError object at 0x1014082a8>'
p59
sS'__delattr__'
p60
S"<method-wrapper '__delattr__' of exceptions.SyntaxError object at 0x1014082a8>"
p61
sS'__repr__'
p62
S"<method-wrapper '__repr__' of exceptions.SyntaxError object at 0x1014082a8>"
p63
sS'__hash__'
p64
S"<method-wrapper '__hash__' of exceptions.SyntaxError object at 0x1014082a8>"
p65
ssS'evalue'
p66
S'No fields to update'
p67
sS'request'
p68
ccopy_reg
_reconstructor
p69
(cgluon.html
BEAUTIFY
p70
c__builtin__
object
p71
NtRp72
(dp73
S'attributes'
p74
(dp75
sS'components'
p76
(lp77
g69
(cgluon.html
TABLE
p78
g71
NtRp79
(dp80
g74
(dp81
S'level'
p82
I5
ssS'parent'
p83
Nsg76
(lp84
g69
(cgluon.html
TR
p85
g71
NtRp86
(dp87
g74
(dp88
sg83
g79
sg76
(lp89
g69
(cgluon.html
TD
p90
g71
NtRp91
(dp92
g74
(dp93
S'_style'
p94
S'font-weight:bold;vertical-align:top'
p95
ssg83
g86
sg76
(lp96
S'ajax'
p97
asbag69
(g90
g71
NtRp98
(dp99
g74
(dp100
S'_valign'
p101
S'top'
p102
ssg83
g86
sg76
(lp103
S':'
asbag69
(g90
g71
NtRp104
(dp105
g74
(dp106
sg83
g86
sg76
(lp107
g69
(g70
g71
NtRp108
(dp109
g74
(dp110
g82
I5
ssg83
g104
sg76
(lp111
S'False'
p112
asbasbasbag69
(g85
g71
NtRp113
(dp114
g74
(dp115
sg83
g79
sg76
(lp116
g69
(g90
g71
NtRp117
(dp118
g74
(dp119
g94
g95
ssg83
g113
sg76
(lp120
S'application'
p121
asbag69
(g90
g71
NtRp122
(dp123
g74
(dp124
g101
g102
ssg83
g113
sg76
(lp125
S':'
asbag69
(g90
g71
NtRp126
(dp127
g74
(dp128
sg83
g113
sg76
(lp129
g69
(g70
g71
NtRp130
(dp131
g74
(dp132
g82
I5
ssg83
g126
sg76
(lp133
S'MyApp'
p134
asbasbasbag69
(g85
g71
NtRp135
(dp136
g74
(dp137
sg83
g79
sg76
(lp138
g69
(g90
g71
NtRp139
(dp140
g74
(dp141
g94
g95
ssg83
g135
sg76
(lp142
g52
asbag69
(g90
g71
NtRp143
(dp144
g74
(dp145
g101
g102
ssg83
g135
sg76
(lp146
S':'
asbag69
(g90
g71
NtRp147
(dp148
g74
(dp149
sg83
g135
sg76
(lp150
g69
(g70
g71
NtRp151
(dp152
g74
(dp153
g82
I5
ssg83
g147
sg76
(lp154
g69
(g78
g71
NtRp155
(dp156
g74
(dp157
g82
I4
ssg83
Nsg76
(lp158
sbasbasbasbag69
(g85
g71
NtRp159
(dp160
g74
(dp161
sg83
g79
sg76
(lp162
g69
(g90
g71
NtRp163
(dp164
g74
(dp165
g94
g95
ssg83
g159
sg76
(lp166
S'body'
p167
asbag69
(g90
g71
NtRp168
(dp169
g74
(dp170
g101
g102
ssg83
g159
sg76
(lp171
S':'
asbag69
(g90
g71
NtRp172
(dp173
g74
(dp174
sg83
g159
sg76
(lp175
g69
(g70
g71
NtRp176
(dp177
g74
(dp178
g82
I5
ssg83
g172
sg76
(lp179
S"<open file '<fdopen>', mode 'w+b' at 0x11ac693e8>"
p180
asbasbasbag69
(g85
g71
NtRp181
(dp182
g74
(dp183
sg83
g79
sg76
(lp184
g69
(g90
g71
NtRp185
(dp186
g74
(dp187
g94
g95
ssg83
g181
sg76
(lp188
S'cid'
p189
asbag69
(g90
g71
NtRp190
(dp191
g74
(dp192
g101
g102
ssg83
g181
sg76
(lp193
S':'
asbag69
(g90
g71
NtRp194
(dp195
g74
(dp196
sg83
g181
sg76
(lp197
g69
(g70
g71
NtRp198
(dp199
g74
(dp200
g82
I5
ssg83
g194
sg76
(lp201
S'None'
p202
asbasbasbag69
(g85
g71
NtRp203
(dp204
g74
(dp205
sg83
g79
sg76
(lp206
g69
(g90
g71
NtRp207
(dp208
g74
(dp209
g94
g95
ssg83
g203
sg76
(lp210
S'client'
p211
asbag69
(g90
g71
NtRp212
(dp213
g74
(dp214
g101
g102
ssg83
g203
sg76
(lp215
S':'
asbag69
(g90
g71
NtRp216
(dp217
g74
(dp218
sg83
g203
sg76
(lp219
g69
(g70
g71
NtRp220
(dp221
g74
(dp222
g82
I5
ssg83
g216
sg76
(lp223
S'127.0.0.1'
p224
asbasbasbag69
(g85
g71
NtRp225
(dp226
g74
(dp227
sg83
g79
sg76
(lp228
g69
(g90
g71
NtRp229
(dp230
g74
(dp231
g94
g95
ssg83
g225
sg76
(lp232
S'controller'
p233
asbag69
(g90
g71
NtRp234
(dp235
g74
(dp236
g101
g102
ssg83
g225
sg76
(lp237
S':'
asbag69
(g90
g71
NtRp238
(dp239
g74
(dp240
sg83
g225
sg76
(lp241
g69
(g70
g71
NtRp242
(dp243
g74
(dp244
g82
I5
ssg83
g238
sg76
(lp245
S'default'
p246
asbasbasbag69
(g85
g71
NtRp247
(dp248
g74
(dp249
sg83
g79
sg76
(lp250
g69
(g90
g71
NtRp251
(dp252
g74
(dp253
g94
g95
ssg83
g247
sg76
(lp254
S'cookies'
p255
asbag69
(g90
g71
NtRp256
(dp257
g74
(dp258
g101
g102
ssg83
g247
sg76
(lp259
S':'
asbag69
(g90
g71
NtRp260
(dp261
g74
(dp262
sg83
g247
sg76
(lp263
g69
(g70
g71
NtRp264
(dp265
g74
(dp266
g82
I5
ssg83
g260
sg76
(lp267
g69
(g78
g71
NtRp268
(dp269
g74
(dp270
g82
I4
ssg83
Nsg76
(lp271
g69
(g85
g71
NtRp272
(dp273
g74
(dp274
sg83
g268
sg76
(lp275
g69
(g90
g71
NtRp276
(dp277
g74
(dp278
g94
g95
ssg83
g272
sg76
(lp279
S'session_id_admin'
p280
asbag69
(g90
g71
NtRp281
(dp282
g74
(dp283
g101
g102
ssg83
g272
sg76
(lp284
S':'
asbag69
(g90
g71
NtRp285
(dp286
g74
(dp287
sg83
g272
sg76
(lp288
g69
(g70
g71
NtRp289
(dp290
g74
(dp291
g82
I4
ssg83
g285
sg76
(lp292
S'127.0.0.1-51e419b9-a703-41ed-88da-b440e5ce8e79'
p293
ag69
(g78
g71
NtRp294
(dp295
g74
(dp296
g82
I3
ssg83
Nsg76
(lp297
g69
(g85
g71
NtRp298
(dp299
g74
(dp300
sg83
g294
sg76
(lp301
g69
(g90
g71
NtRp302
(dp303
g74
(dp304
g94
g95
ssg83
g298
sg76
(lp305
S'comment'
p306
asbag69
(g90
g71
NtRp307
(dp308
g74
(dp309
g101
g102
ssg83
g298
sg76
(lp310
S':'
asbag69
(g90
g71
NtRp311
(dp312
g74
(dp313
sg83
g298
sg76
(lp314
g69
(g70
g71
NtRp315
(dp316
g74
(dp317
g82
I3
ssg83
g311
sg76
(lp318
S''
asbasbasbag69
(g85
g71
NtRp319
(dp320
g74
(dp321
sg83
g294
sg76
(lp322
g69
(g90
g71
NtRp323
(dp324
g74
(dp325
g94
g95
ssg83
g319
sg76
(lp326
S'domain'
p327
asbag69
(g90
g71
NtRp328
(dp329
g74
(dp330
g101
g102
ssg83
g319
sg76
(lp331
S':'
asbag69
(g90
g71
NtRp332
(dp333
g74
(dp334
sg83
g319
sg76
(lp335
g69
(g70
g71
NtRp336
(dp337
g74
(dp338
g82
I3
ssg83
g332
sg76
(lp339
S''
asbasbasbag69
(g85
g71
NtRp340
(dp341
g74
(dp342
sg83
g294
sg76
(lp343
g69
(g90
g71
NtRp344
(dp345
g74
(dp346
g94
g95
ssg83
g340
sg76
(lp347
S'expires'
p348
asbag69
(g90
g71
NtRp349
(dp350
g74
(dp351
g101
g102
ssg83
g340
sg76
(lp352
S':'
asbag69
(g90
g71
NtRp353
(dp354
g74
(dp355
sg83
g340
sg76
(lp356
g69
(g70
g71
NtRp357
(dp358
g74
(dp359
g82
I3
ssg83
g353
sg76
(lp360
S''
asbasbasbag69
(g85
g71
NtRp361
(dp362
g74
(dp363
sg83
g294
sg76
(lp364
g69
(g90
g71
NtRp365
(dp366
g74
(dp367
g94
g95
ssg83
g361
sg76
(lp368
S'httponly'
p369
asbag69
(g90
g71
NtRp370
(dp371
g74
(dp372
g101
g102
ssg83
g361
sg76
(lp373
S':'
asbag69
(g90
g71
NtRp374
(dp375
g74
(dp376
sg83
g361
sg76
(lp377
g69
(g70
g71
NtRp378
(dp379
g74
(dp380
g82
I3
ssg83
g374
sg76
(lp381
S''
asbasbasbag69
(g85
g71
NtRp382
(dp383
g74
(dp384
sg83
g294
sg76
(lp385
g69
(g90
g71
NtRp386
(dp387
g74
(dp388
g94
g95
ssg83
g382
sg76
(lp389
S'max-age'
p390
asbag69
(g90
g71
NtRp391
(dp392
g74
(dp393
g101
g102
ssg83
g382
sg76
(lp394
S':'
asbag69
(g90
g71
NtRp395
(dp396
g74
(dp397
sg83
g382
sg76
(lp398
g69
(g70
g71
NtRp399
(dp400
g74
(dp401
g82
I3
ssg83
g395
sg76
(lp402
S''
asbasbasbag69
(g85
g71
NtRp403
(dp404
g74
(dp405
sg83
g294
sg76
(lp406
g69
(g90
g71
NtRp407
(dp408
g74
(dp409
g94
g95
ssg83
g403
sg76
(lp410
S'path'
p411
asbag69
(g90
g71
NtRp412
(dp413
g74
(dp414
g101
g102
ssg83
g403
sg76
(lp415
S':'
asbag69
(g90
g71
NtRp416
(dp417
g74
(dp418
sg83
g403
sg76
(lp419
g69
(g70
g71
NtRp420
(dp421
g74
(dp422
g82
I3
ssg83
g416
sg76
(lp423
S''
asbasbasbag69
(g85
g71
NtRp424
(dp425
g74
(dp426
sg83
g294
sg76
(lp427
g69
(g90
g71
NtRp428
(dp429
g74
(dp430
g94
g95
ssg83
g424
sg76
(lp431
S'secure'
p432
asbag69
(g90
g71
NtRp433
(dp434
g74
(dp435
g101
g102
ssg83
g424
sg76
(lp436
S':'
asbag69
(g90
g71
NtRp437
(dp438
g74
(dp439
sg83
g424
sg76
(lp440
g69
(g70
g71
NtRp441
(dp442
g74
(dp443
g82
I3
ssg83
g437
sg76
(lp444
S''
asbasbasbag69
(g85
g71
NtRp445
(dp446
g74
(dp447
sg83
g294
sg76
(lp448
g69
(g90
g71
NtRp449
(dp450
g74
(dp451
g94
g95
ssg83
g445
sg76
(lp452
S'version'
p453
asbag69
(g90
g71
NtRp454
(dp455
g74
(dp456
g101
g102
ssg83
g445
sg76
(lp457
S':'
asbag69
(g90
g71
NtRp458
(dp459
g74
(dp460
sg83
g445
sg76
(lp461
g69
(g70
g71
NtRp462
(dp463
g74
(dp464
g82
I3
ssg83
g458
sg76
(lp465
S''
asbasbasbasbasbasbasbag69
(g85
g71
NtRp466
(dp467
g74
(dp468
sg83
g268
sg76
(lp469
g69
(g90
g71
NtRp470
(dp471
g74
(dp472
g94
g95
ssg83
g466
sg76
(lp473
S'session_id_myapp'
p474
asbag69
(g90
g71
NtRp475
(dp476
g74
(dp477
g101
g102
ssg83
g466
sg76
(lp478
S':'
asbag69
(g90
g71
NtRp479
(dp480
g74
(dp481
sg83
g466
sg76
(lp482
g69
(g70
g71
NtRp483
(dp484
g74
(dp485
g82
I4
ssg83
g479
sg76
(lp486
S'127.0.0.1-c29873db-dcbb-4e1b-a3b4-5e8b27d0f857'
p487
ag69
(g78
g71
NtRp488
(dp489
g74
(dp490
g82
I3
ssg83
Nsg76
(lp491
g69
(g85
g71
NtRp492
(dp493
g74
(dp494
sg83
g488
sg76
(lp495
g69
(g90
g71
NtRp496
(dp497
g74
(dp498
g94
g95
ssg83
g492
sg76
(lp499
g306
asbag69
(g90
g71
NtRp500
(dp501
g74
(dp502
g101
g102
ssg83
g492
sg76
(lp503
S':'
asbag69
(g90
g71
NtRp504
(dp505
g74
(dp506
sg83
g492
sg76
(lp507
g69
(g70
g71
NtRp508
(dp509
g74
(dp510
g82
I3
ssg83
g504
sg76
(lp511
S''
asbasbasbag69
(g85
g71
NtRp512
(dp513
g74
(dp514
sg83
g488
sg76
(lp515
g69
(g90
g71
NtRp516
(dp517
g74
(dp518
g94
g95
ssg83
g512
sg76
(lp519
g327
asbag69
(g90
g71
NtRp520
(dp521
g74
(dp522
g101
g102
ssg83
g512
sg76
(lp523
S':'
asbag69
(g90
g71
NtRp524
(dp525
g74
(dp526
sg83
g512
sg76
(lp527
g69
(g70
g71
NtRp528
(dp529
g74
(dp530
g82
I3
ssg83
g524
sg76
(lp531
S''
asbasbasbag69
(g85
g71
NtRp532
(dp533
g74
(dp534
sg83
g488
sg76
(lp535
g69
(g90
g71
NtRp536
(dp537
g74
(dp538
g94
g95
ssg83
g532
sg76
(lp539
g348
asbag69
(g90
g71
NtRp540
(dp541
g74
(dp542
g101
g102
ssg83
g532
sg76
(lp543
S':'
asbag69
(g90
g71
NtRp544
(dp545
g74
(dp546
sg83
g532
sg76
(lp547
g69
(g70
g71
NtRp548
(dp549
g74
(dp550
g82
I3
ssg83
g544
sg76
(lp551
S''
asbasbasbag69
(g85
g71
NtRp552
(dp553
g74
(dp554
sg83
g488
sg76
(lp555
g69
(g90
g71
NtRp556
(dp557
g74
(dp558
g94
g95
ssg83
g552
sg76
(lp559
g369
asbag69
(g90
g71
NtRp560
(dp561
g74
(dp562
g101
g102
ssg83
g552
sg76
(lp563
S':'
asbag69
(g90
g71
NtRp564
(dp565
g74
(dp566
sg83
g552
sg76
(lp567
g69
(g70
g71
NtRp568
(dp569
g74
(dp570
g82
I3
ssg83
g564
sg76
(lp571
S''
asbasbasbag69
(g85
g71
NtRp572
(dp573
g74
(dp574
sg83
g488
sg76
(lp575
g69
(g90
g71
NtRp576
(dp577
g74
(dp578
g94
g95
ssg83
g572
sg76
(lp579
g390
asbag69
(g90
g71
NtRp580
(dp581
g74
(dp582
g101
g102
ssg83
g572
sg76
(lp583
S':'
asbag69
(g90
g71
NtRp584
(dp585
g74
(dp586
sg83
g572
sg76
(lp587
g69
(g70
g71
NtRp588
(dp589
g74
(dp590
g82
I3
ssg83
g584
sg76
(lp591
S''
asbasbasbag69
(g85
g71
NtRp592
(dp593
g74
(dp594
sg83
g488
sg76
(lp595
g69
(g90
g71
NtRp596
(dp597
g74
(dp598
g94
g95
ssg83
g592
sg76
(lp599
g411
asbag69
(g90
g71
NtRp600
(dp601
g74
(dp602
g101
g102
ssg83
g592
sg76
(lp603
S':'
asbag69
(g90
g71
NtRp604
(dp605
g74
(dp606
sg83
g592
sg76
(lp607
g69
(g70
g71
NtRp608
(dp609
g74
(dp610
g82
I3
ssg83
g604
sg76
(lp611
S''
asbasbasbag69
(g85
g71
NtRp612
(dp613
g74
(dp614
sg83
g488
sg76
(lp615
g69
(g90
g71
NtRp616
(dp617
g74
(dp618
g94
g95
ssg83
g612
sg76
(lp619
g432
asbag69
(g90
g71
NtRp620
(dp621
g74
(dp622
g101
g102
ssg83
g612
sg76
(lp623
S':'
asbag69
(g90
g71
NtRp624
(dp625
g74
(dp626
sg83
g612
sg76
(lp627
g69
(g70
g71
NtRp628
(dp629
g74
(dp630
g82
I3
ssg83
g624
sg76
(lp631
S''
asbasbasbag69
(g85
g71
NtRp632
(dp633
g74
(dp634
sg83
g488
sg76
(lp635
g69
(g90
g71
NtRp636
(dp637
g74
(dp638
g94
g95
ssg83
g632
sg76
(lp639
g453
asbag69
(g90
g71
NtRp640
(dp641
g74
(dp642
g101
g102
ssg83
g632
sg76
(lp643
S':'
asbag69
(g90
g71
NtRp644
(dp645
g74
(dp646
sg83
g632
sg76
(lp647
g69
(g70
g71
NtRp648
(dp649
g74
(dp650
g82
I3
ssg83
g644
sg76
(lp651
S''
asbasbasbasbasbasbasbag69
(g85
g71
NtRp652
(dp653
g74
(dp654
sg83
g268
sg76
(lp655
g69
(g90
g71
NtRp656
(dp657
g74
(dp658
g94
g95
ssg83
g652
sg76
(lp659
S'session_id_welcome'
p660
asbag69
(g90
g71
NtRp661
(dp662
g74
(dp663
g101
g102
ssg83
g652
sg76
(lp664
S':'
asbag69
(g90
g71
NtRp665
(dp666
g74
(dp667
sg83
g652
sg76
(lp668
g69
(g70
g71
NtRp669
(dp670
g74
(dp671
g82
I4
ssg83
g665
sg76
(lp672
S'127.0.0.1-e8a30e16-52b5-4d7c-8020-83e27abc7bf0'
p673
ag69
(g78
g71
NtRp674
(dp675
g74
(dp676
g82
I3
ssg83
Nsg76
(lp677
g69
(g85
g71
NtRp678
(dp679
g74
(dp680
sg83
g674
sg76
(lp681
g69
(g90
g71
NtRp682
(dp683
g74
(dp684
g94
g95
ssg83
g678
sg76
(lp685
g306
asbag69
(g90
g71
NtRp686
(dp687
g74
(dp688
g101
g102
ssg83
g678
sg76
(lp689
S':'
asbag69
(g90
g71
NtRp690
(dp691
g74
(dp692
sg83
g678
sg76
(lp693
g69
(g70
g71
NtRp694
(dp695
g74
(dp696
g82
I3
ssg83
g690
sg76
(lp697
S''
asbasbasbag69
(g85
g71
NtRp698
(dp699
g74
(dp700
sg83
g674
sg76
(lp701
g69
(g90
g71
NtRp702
(dp703
g74
(dp704
g94
g95
ssg83
g698
sg76
(lp705
g327
asbag69
(g90
g71
NtRp706
(dp707
g74
(dp708
g101
g102
ssg83
g698
sg76
(lp709
S':'
asbag69
(g90
g71
NtRp710
(dp711
g74
(dp712
sg83
g698
sg76
(lp713
g69
(g70
g71
NtRp714
(dp715
g74
(dp716
g82
I3
ssg83
g710
sg76
(lp717
S''
asbasbasbag69
(g85
g71
NtRp718
(dp719
g74
(dp720
sg83
g674
sg76
(lp721
g69
(g90
g71
NtRp722
(dp723
g74
(dp724
g94
g95
ssg83
g718
sg76
(lp725
g348
asbag69
(g90
g71
NtRp726
(dp727
g74
(dp728
g101
g102
ssg83
g718
sg76
(lp729
S':'
asbag69
(g90
g71
NtRp730
(dp731
g74
(dp732
sg83
g718
sg76
(lp733
g69
(g70
g71
NtRp734
(dp735
g74
(dp736
g82
I3
ssg83
g730
sg76
(lp737
S''
asbasbasbag69
(g85
g71
NtRp738
(dp739
g74
(dp740
sg83
g674
sg76
(lp741
g69
(g90
g71
NtRp742
(dp743
g74
(dp744
g94
g95
ssg83
g738
sg76
(lp745
g369
asbag69
(g90
g71
NtRp746
(dp747
g74
(dp748
g101
g102
ssg83
g738
sg76
(lp749
S':'
asbag69
(g90
g71
NtRp750
(dp751
g74
(dp752
sg83
g738
sg76
(lp753
g69
(g70
g71
NtRp754
(dp755
g74
(dp756
g82
I3
ssg83
g750
sg76
(lp757
S''
asbasbasbag69
(g85
g71
NtRp758
(dp759
g74
(dp760
sg83
g674
sg76
(lp761
g69
(g90
g71
NtRp762
(dp763
g74
(dp764
g94
g95
ssg83
g758
sg76
(lp765
g390
asbag69
(g90
g71
NtRp766
(dp767
g74
(dp768
g101
g102
ssg83
g758
sg76
(lp769
S':'
asbag69
(g90
g71
NtRp770
(dp771
g74
(dp772
sg83
g758
sg76
(lp773
g69
(g70
g71
NtRp774
(dp775
g74
(dp776
g82
I3
ssg83
g770
sg76
(lp777
S''
asbasbasbag69
(g85
g71
NtRp778
(dp779
g74
(dp780
sg83
g674
sg76
(lp781
g69
(g90
g71
NtRp782
(dp783
g74
(dp784
g94
g95
ssg83
g778
sg76
(lp785
g411
asbag69
(g90
g71
NtRp786
(dp787
g74
(dp788
g101
g102
ssg83
g778
sg76
(lp789
S':'
asbag69
(g90
g71
NtRp790
(dp791
g74
(dp792
sg83
g778
sg76
(lp793
g69
(g70
g71
NtRp794
(dp795
g74
(dp796
g82
I3
ssg83
g790
sg76
(lp797
S''
asbasbasbag69
(g85
g71
NtRp798
(dp799
g74
(dp800
sg83
g674
sg76
(lp801
g69
(g90
g71
NtRp802
(dp803
g74
(dp804
g94
g95
ssg83
g798
sg76
(lp805
g432
asbag69
(g90
g71
NtRp806
(dp807
g74
(dp808
g101
g102
ssg83
g798
sg76
(lp809
S':'
asbag69
(g90
g71
NtRp810
(dp811
g74
(dp812
sg83
g798
sg76
(lp813
g69
(g70
g71
NtRp814
(dp815
g74
(dp816
g82
I3
ssg83
g810
sg76
(lp817
S''
asbasbasbag69
(g85
g71
NtRp818
(dp819
g74
(dp820
sg83
g674
sg76
(lp821
g69
(g90
g71
NtRp822
(dp823
g74
(dp824
g94
g95
ssg83
g818
sg76
(lp825
g453
asbag69
(g90
g71
NtRp826
(dp827
g74
(dp828
g101
g102
ssg83
g818
sg76
(lp829
S':'
asbag69
(g90
g71
NtRp830
(dp831
g74
(dp832
sg83
g818
sg76
(lp833
g69
(g70
g71
NtRp834
(dp835
g74
(dp836
g82
I3
ssg83
g830
sg76
(lp837
S''
asbasbasbasbasbasbasbasbasbasbasbag69
(g85
g71
NtRp838
(dp839
g74
(dp840
sg83
g79
sg76
(lp841
g69
(g90
g71
NtRp842
(dp843
g74
(dp844
g94
g95
ssg83
g838
sg76
(lp845
S'env'
p846
asbag69
(g90
g71
NtRp847
(dp848
g74
(dp849
g101
g102
ssg83
g838
sg76
(lp850
S':'
asbag69
(g90
g71
NtRp851
(dp852
g74
(dp853
sg83
g838
sg76
(lp854
g69
(g70
g71
NtRp855
(dp856
g74
(dp857
g82
I5
ssg83
g851
sg76
(lp858
g69
(g78
g71
NtRp859
(dp860
g74
(dp861
g82
I4
ssg83
Nsg76
(lp862
g69
(g85
g71
NtRp863
(dp864
g74
(dp865
sg83
g859
sg76
(lp866
g69
(g90
g71
NtRp867
(dp868
g74
(dp869
g94
g95
ssg83
g863
sg76
(lp870
S'app_folders'
p871
asbag69
(g90
g71
NtRp872
(dp873
g74
(dp874
g101
g102
ssg83
g863
sg76
(lp875
S':'
asbag69
(g90
g71
NtRp876
(dp877
g74
(dp878
sg83
g863
sg76
(lp879
g69
(g70
g71
NtRp880
(dp881
g74
(dp882
g82
I4
ssg83
g876
sg76
(lp883
S"set(['/Users/keshav/Desktop/web2py/applications/MyApp/', '/Users/keshav/Desktop/web2py/applications/admin/', '/Users/keshav/Desktop/web2py/applications/welcome/'])"
p884
asbasbasbag69
(g85
g71
NtRp885
(dp886
g74
(dp887
sg83
g859
sg76
(lp888
g69
(g90
g71
NtRp889
(dp890
g74
(dp891
g94
g95
ssg83
g885
sg76
(lp892
S'applications_parent'
p893
asbag69
(g90
g71
NtRp894
(dp895
g74
(dp896
g101
g102
ssg83
g885
sg76
(lp897
S':'
asbag69
(g90
g71
NtRp898
(dp899
g74
(dp900
sg83
g885
sg76
(lp901
g69
(g70
g71
NtRp902
(dp903
g74
(dp904
g82
I4
ssg83
g898
sg76
(lp905
S'/Users/keshav/Desktop/web2py'
p906
asbasbasbag69
(g85
g71
NtRp907
(dp908
g74
(dp909
sg83
g859
sg76
(lp910
g69
(g90
g71
NtRp911
(dp912
g74
(dp913
g94
g95
ssg83
g907
sg76
(lp914
S'cmd_args'
p915
asbag69
(g90
g71
NtRp916
(dp917
g74
(dp918
g101
g102
ssg83
g907
sg76
(lp919
S':'
asbag69
(g90
g71
NtRp920
(dp921
g74
(dp922
sg83
g907
sg76
(lp923
g69
(g70
g71
NtRp924
(dp925
g74
(dp926
g82
I4
ssg83
g920
sg76
(lp927
g69
(g78
g71
NtRp928
(dp929
g74
(dp930
g82
I3
ssg83
Nsg76
(lp931
sbasbasbasbag69
(g85
g71
NtRp932
(dp933
g74
(dp934
sg83
g859
sg76
(lp935
g69
(g90
g71
NtRp936
(dp937
g74
(dp938
g94
g95
ssg83
g932
sg76
(lp939
S'cmd_options'
p940
asbag69
(g90
g71
NtRp941
(dp942
g74
(dp943
g101
g102
ssg83
g932
sg76
(lp944
S':'
asbag69
(g90
g71
NtRp945
(dp946
g74
(dp947
sg83
g932
sg76
(lp948
g69
(g70
g71
NtRp949
(dp950
g74
(dp951
g82
I4
ssg83
g945
sg76
(lp952
S"<Values at 0x101acb638: {'verbose': False, 'ip': '127.0.0.1', 'with_scheduler': False, 'ips': ['10.160.0.40'], 'shutdown_timeout': 5, 'taskbar': False, 'port': 8000, 'maxthreads': None, 'softcron': False, 'server_name': 'Keshav-Choudharys-MacBook.local', 'bpython': False, 'nogui': False, 'pid_filename': 'httpserver.pid', 'extcron': False, 'runcron': False, 'run_system_tests': False, 'test': None, 'folder': '/Users/keshav/Desktop/web2py', 'config': '', 'minthreads': None, 'winservice': '', 'shell': None, 'run': '', 'log_filename': 'httpserver.log', 'debuglevel': 30, 'args': [''], 'socket_timeout': 5, 'ssl_ca_certificate': None, 'scheduler': None, 'profiler_filename': None, 'ssl_private_key': '', 'scheduler_groups': None, 'password': '<ask>', 'request_queue_size': 5, 'ssl_certificate': '', 'cronjob': False, 'numthreads': None, 'quiet': False, 'interfaces': None, 'import_models': False, 'timeout': 10, 'plain': False, 'nobanner': False}>"
p953
asbasbasbag69
(g85
g71
NtRp954
(dp955
g74
(dp956
sg83
g859
sg76
(lp957
g69
(g90
g71
NtRp958
(dp959
g74
(dp960
g94
g95
ssg83
g954
sg76
(lp961
S'content_length'
p962
asbag69
(g90
g71
NtRp963
(dp964
g74
(dp965
g101
g102
ssg83
g954
sg76
(lp966
S':'
asbag69
(g90
g71
NtRp967
(dp968
g74
(dp969
sg83
g954
sg76
(lp970
g69
(g70
g71
NtRp971
(dp972
g74
(dp973
g82
I4
ssg83
g967
sg76
(lp974
S'6'
asbasbasbag69
(g85
g71
NtRp975
(dp976
g74
(dp977
sg83
g859
sg76
(lp978
g69
(g90
g71
NtRp979
(dp980
g74
(dp981
g94
g95
ssg83
g975
sg76
(lp982
S'content_type'
p983
asbag69
(g90
g71
NtRp984
(dp985
g74
(dp986
g101
g102
ssg83
g975
sg76
(lp987
S':'
asbag69
(g90
g71
NtRp988
(dp989
g74
(dp990
sg83
g975
sg76
(lp991
g69
(g70
g71
NtRp992
(dp993
g74
(dp994
g82
I4
ssg83
g988
sg76
(lp995
S'application/x-www-form-urlencoded'
p996
asbasbasbag69
(g85
g71
NtRp997
(dp998
g74
(dp999
sg83
g859
sg76
(lp1000
g69
(g90
g71
NtRp1001
(dp1002
g74
(dp1003
g94
g95
ssg83
g997
sg76
(lp1004
S'db_sessions'
p1005
asbag69
(g90
g71
NtRp1006
(dp1007
g74
(dp1008
g101
g102
ssg83
g997
sg76
(lp1009
S':'
asbag69
(g90
g71
NtRp1010
(dp1011
g74
(dp1012
sg83
g997
sg76
(lp1013
g69
(g70
g71
NtRp1014
(dp1015
g74
(dp1016
g82
I4
ssg83
g1010
sg76
(lp1017
S'set([])'
p1018
asbasbasbag69
(g85
g71
NtRp1019
(dp1020
g74
(dp1021
sg83
g859
sg76
(lp1022
g69
(g90
g71
NtRp1023
(dp1024
g74
(dp1025
g94
g95
ssg83
g1019
sg76
(lp1026
S'debugging'
p1027
asbag69
(g90
g71
NtRp1028
(dp1029
g74
(dp1030
g101
g102
ssg83
g1019
sg76
(lp1031
S':'
asbag69
(g90
g71
NtRp1032
(dp1033
g74
(dp1034
sg83
g1019
sg76
(lp1035
g69
(g70
g71
NtRp1036
(dp1037
g74
(dp1038
g82
I4
ssg83
g1032
sg76
(lp1039
g112
asbasbasbag69
(g85
g71
NtRp1040
(dp1041
g74
(dp1042
sg83
g859
sg76
(lp1043
g69
(g90
g71
NtRp1044
(dp1045
g74
(dp1046
g94
g95
ssg83
g1040
sg76
(lp1047
S'gluon_parent'
p1048
asbag69
(g90
g71
NtRp1049
(dp1050
g74
(dp1051
g101
g102
ssg83
g1040
sg76
(lp1052
S':'
asbag69
(g90
g71
NtRp1053
(dp1054
g74
(dp1055
sg83
g1040
sg76
(lp1056
g69
(g70
g71
NtRp1057
(dp1058
g74
(dp1059
g82
I4
ssg83
g1053
sg76
(lp1060
S'/Users/keshav/Desktop/web2py'
p1061
asbasbasbag69
(g85
g71
NtRp1062
(dp1063
g74
(dp1064
sg83
g859
sg76
(lp1065
g69
(g90
g71
NtRp1066
(dp1067
g74
(dp1068
g94
g95
ssg83
g1062
sg76
(lp1069
S'http_accept'
p1070
asbag69
(g90
g71
NtRp1071
(dp1072
g74
(dp1073
g101
g102
ssg83
g1062
sg76
(lp1074
S':'
asbag69
(g90
g71
NtRp1075
(dp1076
g74
(dp1077
sg83
g1062
sg76
(lp1078
g69
(g70
g71
NtRp1079
(dp1080
g74
(dp1081
g82
I4
ssg83
g1075
sg76
(lp1082
S'*/*'
p1083
asbasbasbag69
(g85
g71
NtRp1084
(dp1085
g74
(dp1086
sg83
g859
sg76
(lp1087
g69
(g90
g71
NtRp1088
(dp1089
g74
(dp1090
g94
g95
ssg83
g1084
sg76
(lp1091
S'http_accept_encoding'
p1092
asbag69
(g90
g71
NtRp1093
(dp1094
g74
(dp1095
g101
g102
ssg83
g1084
sg76
(lp1096
S':'
asbag69
(g90
g71
NtRp1097
(dp1098
g74
(dp1099
sg83
g1084
sg76
(lp1100
g69
(g70
g71
NtRp1101
(dp1102
g74
(dp1103
g82
I4
ssg83
g1097
sg76
(lp1104
S'gzip, deflate'
p1105
asbasbasbag69
(g85
g71
NtRp1106
(dp1107
g74
(dp1108
sg83
g859
sg76
(lp1109
g69
(g90
g71
NtRp1110
(dp1111
g74
(dp1112
g94
g95
ssg83
g1106
sg76
(lp1113
S'http_accept_language'
p1114
asbag69
(g90
g71
NtRp1115
(dp1116
g74
(dp1117
g101
g102
ssg83
g1106
sg76
(lp1118
S':'
asbag69
(g90
g71
NtRp1119
(dp1120
g74
(dp1121
sg83
g1106
sg76
(lp1122
g69
(g70
g71
NtRp1123
(dp1124
g74
(dp1125
g82
I4
ssg83
g1119
sg76
(lp1126
S'en-us'
p1127
asbasbasbag69
(g85
g71
NtRp1128
(dp1129
g74
(dp1130
sg83
g859
sg76
(lp1131
g69
(g90
g71
NtRp1132
(dp1133
g74
(dp1134
g94
g95
ssg83
g1128
sg76
(lp1135
S'http_connection'
p1136
asbag69
(g90
g71
NtRp1137
(dp1138
g74
(dp1139
g101
g102
ssg83
g1128
sg76
(lp1140
S':'
asbag69
(g90
g71
NtRp1141
(dp1142
g74
(dp1143
sg83
g1128
sg76
(lp1144
g69
(g70
g71
NtRp1145
(dp1146
g74
(dp1147
g82
I4
ssg83
g1141
sg76
(lp1148
S'keep-alive'
p1149
asbasbasbag69
(g85
g71
NtRp1150
(dp1151
g74
(dp1152
sg83
g859
sg76
(lp1153
g69
(g90
g71
NtRp1154
(dp1155
g74
(dp1156
g94
g95
ssg83
g1150
sg76
(lp1157
S'http_content_length'
p1158
asbag69
(g90
g71
NtRp1159
(dp1160
g74
(dp1161
g101
g102
ssg83
g1150
sg76
(lp1162
S':'
asbag69
(g90
g71
NtRp1163
(dp1164
g74
(dp1165
sg83
g1150
sg76
(lp1166
g69
(g70
g71
NtRp1167
(dp1168
g74
(dp1169
g82
I4
ssg83
g1163
sg76
(lp1170
S'6'
asbasbasbag69
(g85
g71
NtRp1171
(dp1172
g74
(dp1173
sg83
g859
sg76
(lp1174
g69
(g90
g71
NtRp1175
(dp1176
g74
(dp1177
g94
g95
ssg83
g1171
sg76
(lp1178
S'http_content_type'
p1179
asbag69
(g90
g71
NtRp1180
(dp1181
g74
(dp1182
g101
g102
ssg83
g1171
sg76
(lp1183
S':'
asbag69
(g90
g71
NtRp1184
(dp1185
g74
(dp1186
sg83
g1171
sg76
(lp1187
g69
(g70
g71
NtRp1188
(dp1189
g74
(dp1190
g82
I4
ssg83
g1184
sg76
(lp1191
g996
asbasbasbag69
(g85
g71
NtRp1192
(dp1193
g74
(dp1194
sg83
g859
sg76
(lp1195
g69
(g90
g71
NtRp1196
(dp1197
g74
(dp1198
g94
g95
ssg83
g1192
sg76
(lp1199
S'http_cookie'
p1200
asbag69
(g90
g71
NtRp1201
(dp1202
g74
(dp1203
g101
g102
ssg83
g1192
sg76
(lp1204
S':'
asbag69
(g90
g71
NtRp1205
(dp1206
g74
(dp1207
sg83
g1192
sg76
(lp1208
g69
(g70
g71
NtRp1209
(dp1210
g74
(dp1211
g82
I4
ssg83
g1205
sg76
(lp1212
S'session_id_myapp=127.0.0.1-c29873db-dcbb-4e1b-a3b4-5e8b27d0f857; session_id_admin=127.0.0.1-51e419b9-a703-41ed-88da-b440e5ce8e79; session_id_welcome=127.0.0.1-e8a30e16-52b5-4d7c-8020-83e27abc7bf0'
p1213
asbasbasbag69
(g85
g71
NtRp1214
(dp1215
g74
(dp1216
sg83
g859
sg76
(lp1217
g69
(g90
g71
NtRp1218
(dp1219
g74
(dp1220
g94
g95
ssg83
g1214
sg76
(lp1221
S'http_host'
p1222
asbag69
(g90
g71
NtRp1223
(dp1224
g74
(dp1225
g101
g102
ssg83
g1214
sg76
(lp1226
S':'
asbag69
(g90
g71
NtRp1227
(dp1228
g74
(dp1229
sg83
g1214
sg76
(lp1230
g69
(g70
g71
NtRp1231
(dp1232
g74
(dp1233
g82
I4
ssg83
g1227
sg76
(lp1234
S'127.0.0.1:8000'
p1235
asbasbasbag69
(g85
g71
NtRp1236
(dp1237
g74
(dp1238
sg83
g859
sg76
(lp1239
g69
(g90
g71
NtRp1240
(dp1241
g74
(dp1242
g94
g95
ssg83
g1236
sg76
(lp1243
S'http_origin'
p1244
asbag69
(g90
g71
NtRp1245
(dp1246
g74
(dp1247
g101
g102
ssg83
g1236
sg76
(lp1248
S':'
asbag69
(g90
g71
NtRp1249
(dp1250
g74
(dp1251
sg83
g1236
sg76
(lp1252
g69
(g70
g71
NtRp1253
(dp1254
g74
(dp1255
g82
I4
ssg83
g1249
sg76
(lp1256
S'http://127.0.0.1:8000'
p1257
asbasbasbag69
(g85
g71
NtRp1258
(dp1259
g74
(dp1260
sg83
g859
sg76
(lp1261
g69
(g90
g71
NtRp1262
(dp1263
g74
(dp1264
g94
g95
ssg83
g1258
sg76
(lp1265
S'http_referer'
p1266
asbag69
(g90
g71
NtRp1267
(dp1268
g74
(dp1269
g101
g102
ssg83
g1258
sg76
(lp1270
S':'
asbag69
(g90
g71
NtRp1271
(dp1272
g74
(dp1273
sg83
g1258
sg76
(lp1274
g69
(g70
g71
NtRp1275
(dp1276
g74
(dp1277
g82
I4
ssg83
g1271
sg76
(lp1278
S'http://127.0.0.1:8000/MyApp/default/index'
p1279
asbasbasbag69
(g85
g71
NtRp1280
(dp1281
g74
(dp1282
sg83
g859
sg76
(lp1283
g69
(g90
g71
NtRp1284
(dp1285
g74
(dp1286
g94
g95
ssg83
g1280
sg76
(lp1287
S'http_user_agent'
p1288
asbag69
(g90
g71
NtRp1289
(dp1290
g74
(dp1291
g101
g102
ssg83
g1280
sg76
(lp1292
S':'
asbag69
(g90
g71
NtRp1293
(dp1294
g74
(dp1295
sg83
g1280
sg76
(lp1296
g69
(g70
g71
NtRp1297
(dp1298
g74
(dp1299
g82
I4
ssg83
g1293
sg76
(lp1300
S'Mozilla/5.0 (Macintosh; Intel Mac OS X 10_6_8) AppleWebKit/534.57.2 (KHTML, like Gecko) Version/5.1.7 Safari/534.57.2'
p1301
asbasbasbag69
(g85
g71
NtRp1302
(dp1303
g74
(dp1304
sg83
g859
sg76
(lp1305
g69
(g90
g71
NtRp1306
(dp1307
g74
(dp1308
g94
g95
ssg83
g1302
sg76
(lp1309
S'is_jython'
p1310
asbag69
(g90
g71
NtRp1311
(dp1312
g74
(dp1313
g101
g102
ssg83
g1302
sg76
(lp1314
S':'
asbag69
(g90
g71
NtRp1315
(dp1316
g74
(dp1317
sg83
g1302
sg76
(lp1318
g69
(g70
g71
NtRp1319
(dp1320
g74
(dp1321
g82
I4
ssg83
g1315
sg76
(lp1322
g112
asbasbasbag69
(g85
g71
NtRp1323
(dp1324
g74
(dp1325
sg83
g859
sg76
(lp1326
g69
(g90
g71
NtRp1327
(dp1328
g74
(dp1329
g94
g95
ssg83
g1323
sg76
(lp1330
S'is_pypy'
p1331
asbag69
(g90
g71
NtRp1332
(dp1333
g74
(dp1334
g101
g102
ssg83
g1323
sg76
(lp1335
S':'
asbag69
(g90
g71
NtRp1336
(dp1337
g74
(dp1338
sg83
g1323
sg76
(lp1339
g69
(g70
g71
NtRp1340
(dp1341
g74
(dp1342
g82
I4
ssg83
g1336
sg76
(lp1343
g112
asbasbasbag69
(g85
g71
NtRp1344
(dp1345
g74
(dp1346
sg83
g859
sg76
(lp1347
g69
(g90
g71
NtRp1348
(dp1349
g74
(dp1350
g94
g95
ssg83
g1344
sg76
(lp1351
S'local_hosts'
p1352
asbag69
(g90
g71
NtRp1353
(dp1354
g74
(dp1355
g101
g102
ssg83
g1344
sg76
(lp1356
S':'
asbag69
(g90
g71
NtRp1357
(dp1358
g74
(dp1359
sg83
g1344
sg76
(lp1360
g69
(g70
g71
NtRp1361
(dp1362
g74
(dp1363
g82
I4
ssg83
g1357
sg76
(lp1364
g69
(g78
g71
NtRp1365
(dp1366
g74
(dp1367
g82
I3
ssg83
Nsg76
(lp1368
g69
(g85
g71
NtRp1369
(dp1370
g74
(dp1371
sg83
g1365
sg76
(lp1372
g69
(g90
g71
NtRp1373
(dp1374
g74
(dp1375
sg83
g1369
sg76
(lp1376
g69
(g70
g71
NtRp1377
(dp1378
g74
(dp1379
g82
I3
ssg83
g1373
sg76
(lp1380
S'127.0.0.1'
p1381
asbasbasbag69
(g85
g71
NtRp1382
(dp1383
g74
(dp1384
sg83
g1365
sg76
(lp1385
g69
(g90
g71
NtRp1386
(dp1387
g74
(dp1388
sg83
g1382
sg76
(lp1389
g69
(g70
g71
NtRp1390
(dp1391
g74
(dp1392
g82
I3
ssg83
g1386
sg76
(lp1393
S'::ffff:127.0.0.1'
p1394
asbasbasbag69
(g85
g71
NtRp1395
(dp1396
g74
(dp1397
sg83
g1365
sg76
(lp1398
g69
(g90
g71
NtRp1399
(dp1400
g74
(dp1401
sg83
g1395
sg76
(lp1402
g69
(g70
g71
NtRp1403
(dp1404
g74
(dp1405
g82
I3
ssg83
g1399
sg76
(lp1406
S'Keshav-Choudharys-MacBook.local'
p1407
asbasbasbag69
(g85
g71
NtRp1408
(dp1409
g74
(dp1410
sg83
g1365
sg76
(lp1411
g69
(g90
g71
NtRp1412
(dp1413
g74
(dp1414
sg83
g1408
sg76
(lp1415
g69
(g70
g71
NtRp1416
(dp1417
g74
(dp1418
g82
I3
ssg83
g1412
sg76
(lp1419
S'Keshav-Choudharys-MacBook.local'
p1420
asbasbasbag69
(g85
g71
NtRp1421
(dp1422
g74
(dp1423
sg83
g1365
sg76
(lp1424
g69
(g90
g71
NtRp1425
(dp1426
g74
(dp1427
sg83
g1421
sg76
(lp1428
g69
(g70
g71
NtRp1429
(dp1430
g74
(dp1431
g82
I3
ssg83
g1425
sg76
(lp1432
S'10.160.0.40'
p1433
asbasbasbasbasbasbasbag69
(g85
g71
NtRp1434
(dp1435
g74
(dp1436
sg83
g859
sg76
(lp1437
g69
(g90
g71
NtRp1438
(dp1439
g74
(dp1440
g94
g95
ssg83
g1434
sg76
(lp1441
S'path_info'
p1442
asbag69
(g90
g71
NtRp1443
(dp1444
g74
(dp1445
g101
g102
ssg83
g1434
sg76
(lp1446
S':'
asbag69
(g90
g71
NtRp1447
(dp1448
g74
(dp1449
sg83
g1434
sg76
(lp1450
g69
(g70
g71
NtRp1451
(dp1452
g74
(dp1453
g82
I4
ssg83
g1447
sg76
(lp1454
S'/MyApp/default/update_tut'
p1455
asbasbasbag69
(g85
g71
NtRp1456
(dp1457
g74
(dp1458
sg83
g859
sg76
(lp1459
g69
(g90
g71
NtRp1460
(dp1461
g74
(dp1462
g94
g95
ssg83
g1456
sg76
(lp1463
S'query_string'
p1464
asbag69
(g90
g71
NtRp1465
(dp1466
g74
(dp1467
g101
g102
ssg83
g1456
sg76
(lp1468
S':'
asbag69
(g90
g71
NtRp1469
(dp1470
g74
(dp1471
sg83
g1456
sg76
(lp1472
g69
(g70
g71
NtRp1473
(dp1474
g74
(dp1475
g82
I4
ssg83
g1469
sg76
(lp1476
S''
asbasbasbag69
(g85
g71
NtRp1477
(dp1478
g74
(dp1479
sg83
g859
sg76
(lp1480
g69
(g90
g71
NtRp1481
(dp1482
g74
(dp1483
g94
g95
ssg83
g1477
sg76
(lp1484
S'remote_addr'
p1485
asbag69
(g90
g71
NtRp1486
(dp1487
g74
(dp1488
g101
g102
ssg83
g1477
sg76
(lp1489
S':'
asbag69
(g90
g71
NtRp1490
(dp1491
g74
(dp1492
sg83
g1477
sg76
(lp1493
g69
(g70
g71
NtRp1494
(dp1495
g74
(dp1496
g82
I4
ssg83
g1490
sg76
(lp1497
g224
asbasbasbag69
(g85
g71
NtRp1498
(dp1499
g74
(dp1500
sg83
g859
sg76
(lp1501
g69
(g90
g71
NtRp1502
(dp1503
g74
(dp1504
g94
g95
ssg83
g1498
sg76
(lp1505
S'remote_port'
p1506
asbag69
(g90
g71
NtRp1507
(dp1508
g74
(dp1509
g101
g102
ssg83
g1498
sg76
(lp1510
S':'
asbag69
(g90
g71
NtRp1511
(dp1512
g74
(dp1513
sg83
g1498
sg76
(lp1514
g69
(g70
g71
NtRp1515
(dp1516
g74
(dp1517
g82
I4
ssg83
g1511
sg76
(lp1518
S'58090'
p1519
asbasbasbag69
(g85
g71
NtRp1520
(dp1521
g74
(dp1522
sg83
g859
sg76
(lp1523
g69
(g90
g71
NtRp1524
(dp1525
g74
(dp1526
g94
g95
ssg83
g1520
sg76
(lp1527
S'request_method'
p1528
asbag69
(g90
g71
NtRp1529
(dp1530
g74
(dp1531
g101
g102
ssg83
g1520
sg76
(lp1532
S':'
asbag69
(g90
g71
NtRp1533
(dp1534
g74
(dp1535
sg83
g1520
sg76
(lp1536
g69
(g70
g71
NtRp1537
(dp1538
g74
(dp1539
g82
I4
ssg83
g1533
sg76
(lp1540
S'POST'
p1541
asbasbasbag69
(g85
g71
NtRp1542
(dp1543
g74
(dp1544
sg83
g859
sg76
(lp1545
g69
(g90
g71
NtRp1546
(dp1547
g74
(dp1548
g94
g95
ssg83
g1542
sg76
(lp1549
S'request_uri'
p1550
asbag69
(g90
g71
NtRp1551
(dp1552
g74
(dp1553
g101
g102
ssg83
g1542
sg76
(lp1554
S':'
asbag69
(g90
g71
NtRp1555
(dp1556
g74
(dp1557
sg83
g1542
sg76
(lp1558
g69
(g70
g71
NtRp1559
(dp1560
g74
(dp1561
g82
I4
ssg83
g1555
sg76
(lp1562
g1455
asbasbasbag69
(g85
g71
NtRp1563
(dp1564
g74
(dp1565
sg83
g859
sg76
(lp1566
g69
(g90
g71
NtRp1567
(dp1568
g74
(dp1569
g94
g95
ssg83
g1563
sg76
(lp1570
S'script_name'
p1571
asbag69
(g90
g71
NtRp1572
(dp1573
g74
(dp1574
g101
g102
ssg83
g1563
sg76
(lp1575
S':'
asbag69
(g90
g71
NtRp1576
(dp1577
g74
(dp1578
sg83
g1563
sg76
(lp1579
g69
(g70
g71
NtRp1580
(dp1581
g74
(dp1582
g82
I4
ssg83
g1576
sg76
(lp1583
S''
asbasbasbag69
(g85
g71
NtRp1584
(dp1585
g74
(dp1586
sg83
g859
sg76
(lp1587
g69
(g90
g71
NtRp1588
(dp1589
g74
(dp1590
g94
g95
ssg83
g1584
sg76
(lp1591
S'server_name'
p1592
asbag69
(g90
g71
NtRp1593
(dp1594
g74
(dp1595
g101
g102
ssg83
g1584
sg76
(lp1596
S':'
asbag69
(g90
g71
NtRp1597
(dp1598
g74
(dp1599
sg83
g1584
sg76
(lp1600
g69
(g70
g71
NtRp1601
(dp1602
g74
(dp1603
g82
I4
ssg83
g1597
sg76
(lp1604
g1420
asbasbasbag69
(g85
g71
NtRp1605
(dp1606
g74
(dp1607
sg83
g859
sg76
(lp1608
g69
(g90
g71
NtRp1609
(dp1610
g74
(dp1611
g94
g95
ssg83
g1605
sg76
(lp1612
S'server_port'
p1613
asbag69
(g90
g71
NtRp1614
(dp1615
g74
(dp1616
g101
g102
ssg83
g1605
sg76
(lp1617
S':'
asbag69
(g90
g71
NtRp1618
(dp1619
g74
(dp1620
sg83
g1605
sg76
(lp1621
g69
(g70
g71
NtRp1622
(dp1623
g74
(dp1624
g82
I4
ssg83
g1618
sg76
(lp1625
S'8000'
p1626
asbasbasbag69
(g85
g71
NtRp1627
(dp1628
g74
(dp1629
sg83
g859
sg76
(lp1630
g69
(g90
g71
NtRp1631
(dp1632
g74
(dp1633
g94
g95
ssg83
g1627
sg76
(lp1634
S'server_protocol'
p1635
asbag69
(g90
g71
NtRp1636
(dp1637
g74
(dp1638
g101
g102
ssg83
g1627
sg76
(lp1639
S':'
asbag69
(g90
g71
NtRp1640
(dp1641
g74
(dp1642
sg83
g1627
sg76
(lp1643
g69
(g70
g71
NtRp1644
(dp1645
g74
(dp1646
g82
I4
ssg83
g1640
sg76
(lp1647
S'HTTP/1.1'
p1648
asbasbasbag69
(g85
g71
NtRp1649
(dp1650
g74
(dp1651
sg83
g859
sg76
(lp1652
g69
(g90
g71
NtRp1653
(dp1654
g74
(dp1655
g94
g95
ssg83
g1649
sg76
(lp1656
S'server_software'
p1657
asbag69
(g90
g71
NtRp1658
(dp1659
g74
(dp1660
g101
g102
ssg83
g1649
sg76
(lp1661
S':'
asbag69
(g90
g71
NtRp1662
(dp1663
g74
(dp1664
sg83
g1649
sg76
(lp1665
g69
(g70
g71
NtRp1666
(dp1667
g74
(dp1668
g82
I4
ssg83
g1662
sg76
(lp1669
S'Rocket 1.2.5'
p1670
asbasbasbag69
(g85
g71
NtRp1671
(dp1672
g74
(dp1673
sg83
g859
sg76
(lp1674
g69
(g90
g71
NtRp1675
(dp1676
g74
(dp1677
g94
g95
ssg83
g1671
sg76
(lp1678
S'web2py_path'
p1679
asbag69
(g90
g71
NtRp1680
(dp1681
g74
(dp1682
g101
g102
ssg83
g1671
sg76
(lp1683
S':'
asbag69
(g90
g71
NtRp1684
(dp1685
g74
(dp1686
sg83
g1671
sg76
(lp1687
g69
(g70
g71
NtRp1688
(dp1689
g74
(dp1690
g82
I4
ssg83
g1684
sg76
(lp1691
g906
asbasbasbag69
(g85
g71
NtRp1692
(dp1693
g74
(dp1694
sg83
g859
sg76
(lp1695
g69
(g90
g71
NtRp1696
(dp1697
g74
(dp1698
g94
g95
ssg83
g1692
sg76
(lp1699
S'web2py_version'
p1700
asbag69
(g90
g71
NtRp1701
(dp1702
g74
(dp1703
g101
g102
ssg83
g1692
sg76
(lp1704
S':'
asbag69
(g90
g71
NtRp1705
(dp1706
g74
(dp1707
sg83
g1692
sg76
(lp1708
g69
(g70
g71
NtRp1709
(dp1710
g74
(dp1711
g82
I4
ssg83
g1705
sg76
(lp1712
g69
(g78
g71
NtRp1713
(dp1714
g74
(dp1715
g82
I3
ssg83
Nsg76
(lp1716
g69
(g85
g71
NtRp1717
(dp1718
g74
(dp1719
sg83
g1713
sg76
(lp1720
g69
(g90
g71
NtRp1721
(dp1722
g74
(dp1723
sg83
g1717
sg76
(lp1724
g69
(g70
g71
NtRp1725
(dp1726
g74
(dp1727
g82
I3
ssg83
g1721
sg76
(lp1728
S'2'
asbasbasbag69
(g85
g71
NtRp1729
(dp1730
g74
(dp1731
sg83
g1713
sg76
(lp1732
g69
(g90
g71
NtRp1733
(dp1734
g74
(dp1735
sg83
g1729
sg76
(lp1736
g69
(g70
g71
NtRp1737
(dp1738
g74
(dp1739
g82
I3
ssg83
g1733
sg76
(lp1740
S'2'
asbasbasbag69
(g85
g71
NtRp1741
(dp1742
g74
(dp1743
sg83
g1713
sg76
(lp1744
g69
(g90
g71
NtRp1745
(dp1746
g74
(dp1747
sg83
g1741
sg76
(lp1748
g69
(g70
g71
NtRp1749
(dp1750
g74
(dp1751
g82
I3
ssg83
g1745
sg76
(lp1752
S'1'
asbasbasbag69
(g85
g71
NtRp1753
(dp1754
g74
(dp1755
sg83
g1713
sg76
(lp1756
g69
(g90
g71
NtRp1757
(dp1758
g74
(dp1759
sg83
g1753
sg76
(lp1760
g69
(g70
g71
NtRp1761
(dp1762
g74
(dp1763
g82
I3
ssg83
g1757
sg76
(lp1764
S'datetime.datetime(2012, 10, 21, 16, 57, 4)'
p1765
asbasbasbag69
(g85
g71
NtRp1766
(dp1767
g74
(dp1768
sg83
g1713
sg76
(lp1769
g69
(g90
g71
NtRp1770
(dp1771
g74
(dp1772
sg83
g1766
sg76
(lp1773
g69
(g70
g71
NtRp1774
(dp1775
g74
(dp1776
g82
I3
ssg83
g1770
sg76
(lp1777
S'stable'
p1778
asbasbasbasbasbasbasbag69
(g85
g71
NtRp1779
(dp1780
g74
(dp1781
sg83
g859
sg76
(lp1782
g69
(g90
g71
NtRp1783
(dp1784
g74
(dp1785
g94
g95
ssg83
g1779
sg76
(lp1786
S'wsgi_errors'
p1787
asbag69
(g90
g71
NtRp1788
(dp1789
g74
(dp1790
g101
g102
ssg83
g1779
sg76
(lp1791
S':'
asbag69
(g90
g71
NtRp1792
(dp1793
g74
(dp1794
sg83
g1779
sg76
(lp1795
g69
(g70
g71
NtRp1796
(dp1797
g74
(dp1798
g82
I4
ssg83
g1792
sg76
(lp1799
S"<open file '<stderr>', mode 'w' at 0x100416140>"
p1800
asbasbasbag69
(g85
g71
NtRp1801
(dp1802
g74
(dp1803
sg83
g859
sg76
(lp1804
g69
(g90
g71
NtRp1805
(dp1806
g74
(dp1807
g94
g95
ssg83
g1801
sg76
(lp1808
S'wsgi_file_wrapper'
p1809
asbag69
(g90
g71
NtRp1810
(dp1811
g74
(dp1812
g101
g102
ssg83
g1801
sg76
(lp1813
S':'
asbag69
(g90
g71
NtRp1814
(dp1815
g74
(dp1816
sg83
g1801
sg76
(lp1817
g69
(g70
g71
NtRp1818
(dp1819
g74
(dp1820
g82
I4
ssg83
g1814
sg76
(lp1821
S'<class wsgiref.util.FileWrapper at 0x101a57c50>'
p1822
asbasbasbag69
(g85
g71
NtRp1823
(dp1824
g74
(dp1825
sg83
g859
sg76
(lp1826
g69
(g90
g71
NtRp1827
(dp1828
g74
(dp1829
g94
g95
ssg83
g1823
sg76
(lp1830
S'wsgi_input'
p1831
asbag69
(g90
g71
NtRp1832
(dp1833
g74
(dp1834
g101
g102
ssg83
g1823
sg76
(lp1835
S':'
asbag69
(g90
g71
NtRp1836
(dp1837
g74
(dp1838
sg83
g1823
sg76
(lp1839
g69
(g70
g71
NtRp1840
(dp1841
g74
(dp1842
g82
I4
ssg83
g1836
sg76
(lp1843
S'<socket._fileobject object at 0x118a80b18>'
p1844
asbasbasbag69
(g85
g71
NtRp1845
(dp1846
g74
(dp1847
sg83
g859
sg76
(lp1848
g69
(g90
g71
NtRp1849
(dp1850
g74
(dp1851
g94
g95
ssg83
g1845
sg76
(lp1852
S'wsgi_multiprocess'
p1853
asbag69
(g90
g71
NtRp1854
(dp1855
g74
(dp1856
g101
g102
ssg83
g1845
sg76
(lp1857
S':'
asbag69
(g90
g71
NtRp1858
(dp1859
g74
(dp1860
sg83
g1845
sg76
(lp1861
g69
(g70
g71
NtRp1862
(dp1863
g74
(dp1864
g82
I4
ssg83
g1858
sg76
(lp1865
g112
asbasbasbag69
(g85
g71
NtRp1866
(dp1867
g74
(dp1868
sg83
g859
sg76
(lp1869
g69
(g90
g71
NtRp1870
(dp1871
g74
(dp1872
g94
g95
ssg83
g1866
sg76
(lp1873
S'wsgi_multithread'
p1874
asbag69
(g90
g71
NtRp1875
(dp1876
g74
(dp1877
g101
g102
ssg83
g1866
sg76
(lp1878
S':'
asbag69
(g90
g71
NtRp1879
(dp1880
g74
(dp1881
sg83
g1866
sg76
(lp1882
g69
(g70
g71
NtRp1883
(dp1884
g74
(dp1885
g82
I4
ssg83
g1879
sg76
(lp1886
S'True'
p1887
asbasbasbag69
(g85
g71
NtRp1888
(dp1889
g74
(dp1890
sg83
g859
sg76
(lp1891
g69
(g90
g71
NtRp1892
(dp1893
g74
(dp1894
g94
g95
ssg83
g1888
sg76
(lp1895
S'wsgi_run_once'
p1896
asbag69
(g90
g71
NtRp1897
(dp1898
g74
(dp1899
g101
g102
ssg83
g1888
sg76
(lp1900
S':'
asbag69
(g90
g71
NtRp1901
(dp1902
g74
(dp1903
sg83
g1888
sg76
(lp1904
g69
(g70
g71
NtRp1905
(dp1906
g74
(dp1907
g82
I4
ssg83
g1901
sg76
(lp1908
g112
asbasbasbag69
(g85
g71
NtRp1909
(dp1910
g74
(dp1911
sg83
g859
sg76
(lp1912
g69
(g90
g71
NtRp1913
(dp1914
g74
(dp1915
g94
g95
ssg83
g1909
sg76
(lp1916
S'wsgi_url_scheme'
p1917
asbag69
(g90
g71
NtRp1918
(dp1919
g74
(dp1920
g101
g102
ssg83
g1909
sg76
(lp1921
S':'
asbag69
(g90
g71
NtRp1922
(dp1923
g74
(dp1924
sg83
g1909
sg76
(lp1925
g69
(g70
g71
NtRp1926
(dp1927
g74
(dp1928
g82
I4
ssg83
g1922
sg76
(lp1929
S'http'
p1930
asbasbasbag69
(g85
g71
NtRp1931
(dp1932
g74
(dp1933
sg83
g859
sg76
(lp1934
g69
(g90
g71
NtRp1935
(dp1936
g74
(dp1937
g94
g95
ssg83
g1931
sg76
(lp1938
S'wsgi_version'
p1939
asbag69
(g90
g71
NtRp1940
(dp1941
g74
(dp1942
g101
g102
ssg83
g1931
sg76
(lp1943
S':'
asbag69
(g90
g71
NtRp1944
(dp1945
g74
(dp1946
sg83
g1931
sg76
(lp1947
g69
(g70
g71
NtRp1948
(dp1949
g74
(dp1950
g82
I4
ssg83
g1944
sg76
(lp1951
g69
(g78
g71
NtRp1952
(dp1953
g74
(dp1954
g82
I3
ssg83
Nsg76
(lp1955
g69
(g85
g71
NtRp1956
(dp1957
g74
(dp1958
sg83
g1952
sg76
(lp1959
g69
(g90
g71
NtRp1960
(dp1961
g74
(dp1962
sg83
g1956
sg76
(lp1963
g69
(g70
g71
NtRp1964
(dp1965
g74
(dp1966
g82
I3
ssg83
g1960
sg76
(lp1967
S'1'
asbasbasbag69
(g85
g71
NtRp1968
(dp1969
g74
(dp1970
sg83
g1952
sg76
(lp1971
g69
(g90
g71
NtRp1972
(dp1973
g74
(dp1974
sg83
g1968
sg76
(lp1975
g69
(g70
g71
NtRp1976
(dp1977
g74
(dp1978
g82
I3
ssg83
g1972
sg76
(lp1979
S'0'
asbasbasbasbasbasbasbasbasbasbasbag69
(g85
g71
NtRp1980
(dp1981
g74
(dp1982
sg83
g79
sg76
(lp1983
g69
(g90
g71
NtRp1984
(dp1985
g74
(dp1986
g94
g95
ssg83
g1980
sg76
(lp1987
S'extension'
p1988
asbag69
(g90
g71
NtRp1989
(dp1990
g74
(dp1991
g101
g102
ssg83
g1980
sg76
(lp1992
S':'
asbag69
(g90
g71
NtRp1993
(dp1994
g74
(dp1995
sg83
g1980
sg76
(lp1996
g69
(g70
g71
NtRp1997
(dp1998
g74
(dp1999
g82
I5
ssg83
g1993
sg76
(lp2000
S'html'
p2001
asbasbasbag69
(g85
g71
NtRp2002
(dp2003
g74
(dp2004
sg83
g79
sg76
(lp2005
g69
(g90
g71
NtRp2006
(dp2007
g74
(dp2008
g94
g95
ssg83
g2002
sg76
(lp2009
S'folder'
p2010
asbag69
(g90
g71
NtRp2011
(dp2012
g74
(dp2013
g101
g102
ssg83
g2002
sg76
(lp2014
S':'
asbag69
(g90
g71
NtRp2015
(dp2016
g74
(dp2017
sg83
g2002
sg76
(lp2018
g69
(g70
g71
NtRp2019
(dp2020
g74
(dp2021
g82
I5
ssg83
g2015
sg76
(lp2022
S'/Users/keshav/Desktop/web2py/applications/MyApp/'
p2023
asbasbasbag69
(g85
g71
NtRp2024
(dp2025
g74
(dp2026
sg83
g79
sg76
(lp2027
g69
(g90
g71
NtRp2028
(dp2029
g74
(dp2030
g94
g95
ssg83
g2024
sg76
(lp2031
S'function'
p2032
asbag69
(g90
g71
NtRp2033
(dp2034
g74
(dp2035
g101
g102
ssg83
g2024
sg76
(lp2036
S':'
asbag69
(g90
g71
NtRp2037
(dp2038
g74
(dp2039
sg83
g2024
sg76
(lp2040
g69
(g70
g71
NtRp2041
(dp2042
g74
(dp2043
g82
I5
ssg83
g2037
sg76
(lp2044
S'update_tut'
p2045
asbasbasbag69
(g85
g71
NtRp2046
(dp2047
g74
(dp2048
sg83
g79
sg76
(lp2049
g69
(g90
g71
NtRp2050
(dp2051
g74
(dp2052
g94
g95
ssg83
g2046
sg76
(lp2053
S'get_vars'
p2054
asbag69
(g90
g71
NtRp2055
(dp2056
g74
(dp2057
g101
g102
ssg83
g2046
sg76
(lp2058
S':'
asbag69
(g90
g71
NtRp2059
(dp2060
g74
(dp2061
sg83
g2046
sg76
(lp2062
g69
(g70
g71
NtRp2063
(dp2064
g74
(dp2065
g82
I5
ssg83
g2059
sg76
(lp2066
g69
(g78
g71
NtRp2067
(dp2068
g74
(dp2069
g82
I4
ssg83
Nsg76
(lp2070
sbasbasbasbag69
(g85
g71
NtRp2071
(dp2072
g74
(dp2073
sg83
g79
sg76
(lp2074
g69
(g90
g71
NtRp2075
(dp2076
g74
(dp2077
g94
g95
ssg83
g2071
sg76
(lp2078
S'global_settings'
p2079
asbag69
(g90
g71
NtRp2080
(dp2081
g74
(dp2082
g101
g102
ssg83
g2071
sg76
(lp2083
S':'
asbag69
(g90
g71
NtRp2084
(dp2085
g74
(dp2086
sg83
g2071
sg76
(lp2087
g69
(g70
g71
NtRp2088
(dp2089
g74
(dp2090
g82
I5
ssg83
g2084
sg76
(lp2091
g69
(g78
g71
NtRp2092
(dp2093
g74
(dp2094
g82
I4
ssg83
Nsg76
(lp2095
g69
(g85
g71
NtRp2096
(dp2097
g74
(dp2098
sg83
g2092
sg76
(lp2099
g69
(g90
g71
NtRp2100
(dp2101
g74
(dp2102
g94
g95
ssg83
g2096
sg76
(lp2103
g871
asbag69
(g90
g71
NtRp2104
(dp2105
g74
(dp2106
g101
g102
ssg83
g2096
sg76
(lp2107
S':'
asbag69
(g90
g71
NtRp2108
(dp2109
g74
(dp2110
sg83
g2096
sg76
(lp2111
g69
(g70
g71
NtRp2112
(dp2113
g74
(dp2114
g82
I4
ssg83
g2108
sg76
(lp2115
S"set(['/Users/keshav/Desktop/web2py/applications/MyApp/', '/Users/keshav/Desktop/web2py/applications/admin/', '/Users/keshav/Desktop/web2py/applications/welcome/'])"
p2116
asbasbasbag69
(g85
g71
NtRp2117
(dp2118
g74
(dp2119
sg83
g2092
sg76
(lp2120
g69
(g90
g71
NtRp2121
(dp2122
g74
(dp2123
g94
g95
ssg83
g2117
sg76
(lp2124
g893
asbag69
(g90
g71
NtRp2125
(dp2126
g74
(dp2127
g101
g102
ssg83
g2117
sg76
(lp2128
S':'
asbag69
(g90
g71
NtRp2129
(dp2130
g74
(dp2131
sg83
g2117
sg76
(lp2132
g69
(g70
g71
NtRp2133
(dp2134
g74
(dp2135
g82
I4
ssg83
g2129
sg76
(lp2136
g906
asbasbasbag69
(g85
g71
NtRp2137
(dp2138
g74
(dp2139
sg83
g2092
sg76
(lp2140
g69
(g90
g71
NtRp2141
(dp2142
g74
(dp2143
g94
g95
ssg83
g2137
sg76
(lp2144
g915
asbag69
(g90
g71
NtRp2145
(dp2146
g74
(dp2147
g101
g102
ssg83
g2137
sg76
(lp2148
S':'
asbag69
(g90
g71
NtRp2149
(dp2150
g74
(dp2151
sg83
g2137
sg76
(lp2152
g69
(g70
g71
NtRp2153
(dp2154
g74
(dp2155
g82
I4
ssg83
g2149
sg76
(lp2156
g69
(g78
g71
NtRp2157
(dp2158
g74
(dp2159
g82
I3
ssg83
Nsg76
(lp2160
sbasbasbasbag69
(g85
g71
NtRp2161
(dp2162
g74
(dp2163
sg83
g2092
sg76
(lp2164
g69
(g90
g71
NtRp2165
(dp2166
g74
(dp2167
g94
g95
ssg83
g2161
sg76
(lp2168
g940
asbag69
(g90
g71
NtRp2169
(dp2170
g74
(dp2171
g101
g102
ssg83
g2161
sg76
(lp2172
S':'
asbag69
(g90
g71
NtRp2173
(dp2174
g74
(dp2175
sg83
g2161
sg76
(lp2176
g69
(g70
g71
NtRp2177
(dp2178
g74
(dp2179
g82
I4
ssg83
g2173
sg76
(lp2180
S"<Values at 0x101acb638: {'verbose': False, 'ip': '127.0.0.1', 'with_scheduler': False, 'ips': ['10.160.0.40'], 'shutdown_timeout': 5, 'taskbar': False, 'port': 8000, 'maxthreads': None, 'softcron': False, 'server_name': 'Keshav-Choudharys-MacBook.local', 'bpython': False, 'nogui': False, 'pid_filename': 'httpserver.pid', 'extcron': False, 'runcron': False, 'run_system_tests': False, 'test': None, 'folder': '/Users/keshav/Desktop/web2py', 'config': '', 'minthreads': None, 'winservice': '', 'shell': None, 'run': '', 'log_filename': 'httpserver.log', 'debuglevel': 30, 'args': [''], 'socket_timeout': 5, 'ssl_ca_certificate': None, 'scheduler': None, 'profiler_filename': None, 'ssl_private_key': '', 'scheduler_groups': None, 'password': '<ask>', 'request_queue_size': 5, 'ssl_certificate': '', 'cronjob': False, 'numthreads': None, 'quiet': False, 'interfaces': None, 'import_models': False, 'timeout': 10, 'plain': False, 'nobanner': False}>"
p2181
asbasbasbag69
(g85
g71
NtRp2182
(dp2183
g74
(dp2184
sg83
g2092
sg76
(lp2185
g69
(g90
g71
NtRp2186
(dp2187
g74
(dp2188
g94
g95
ssg83
g2182
sg76
(lp2189
g1005
asbag69
(g90
g71
NtRp2190
(dp2191
g74
(dp2192
g101
g102
ssg83
g2182
sg76
(lp2193
S':'
asbag69
(g90
g71
NtRp2194
(dp2195
g74
(dp2196
sg83
g2182
sg76
(lp2197
g69
(g70
g71
NtRp2198
(dp2199
g74
(dp2200
g82
I4
ssg83
g2194
sg76
(lp2201
S'set([])'
p2202
asbasbasbag69
(g85
g71
NtRp2203
(dp2204
g74
(dp2205
sg83
g2092
sg76
(lp2206
g69
(g90
g71
NtRp2207
(dp2208
g74
(dp2209
g94
g95
ssg83
g2203
sg76
(lp2210
g1027
asbag69
(g90
g71
NtRp2211
(dp2212
g74
(dp2213
g101
g102
ssg83
g2203
sg76
(lp2214
S':'
asbag69
(g90
g71
NtRp2215
(dp2216
g74
(dp2217
sg83
g2203
sg76
(lp2218
g69
(g70
g71
NtRp2219
(dp2220
g74
(dp2221
g82
I4
ssg83
g2215
sg76
(lp2222
g112
asbasbasbag69
(g85
g71
NtRp2223
(dp2224
g74
(dp2225
sg83
g2092
sg76
(lp2226
g69
(g90
g71
NtRp2227
(dp2228
g74
(dp2229
g94
g95
ssg83
g2223
sg76
(lp2230
g1048
asbag69
(g90
g71
NtRp2231
(dp2232
g74
(dp2233
g101
g102
ssg83
g2223
sg76
(lp2234
S':'
asbag69
(g90
g71
NtRp2235
(dp2236
g74
(dp2237
sg83
g2223
sg76
(lp2238
g69
(g70
g71
NtRp2239
(dp2240
g74
(dp2241
g82
I4
ssg83
g2235
sg76
(lp2242
g1061
asbasbasbag69
(g85
g71
NtRp2243
(dp2244
g74
(dp2245
sg83
g2092
sg76
(lp2246
g69
(g90
g71
NtRp2247
(dp2248
g74
(dp2249
g94
g95
ssg83
g2243
sg76
(lp2250
g1310
asbag69
(g90
g71
NtRp2251
(dp2252
g74
(dp2253
g101
g102
ssg83
g2243
sg76
(lp2254
S':'
asbag69
(g90
g71
NtRp2255
(dp2256
g74
(dp2257
sg83
g2243
sg76
(lp2258
g69
(g70
g71
NtRp2259
(dp2260
g74
(dp2261
g82
I4
ssg83
g2255
sg76
(lp2262
g112
asbasbasbag69
(g85
g71
NtRp2263
(dp2264
g74
(dp2265
sg83
g2092
sg76
(lp2266
g69
(g90
g71
NtRp2267
(dp2268
g74
(dp2269
g94
g95
ssg83
g2263
sg76
(lp2270
g1331
asbag69
(g90
g71
NtRp2271
(dp2272
g74
(dp2273
g101
g102
ssg83
g2263
sg76
(lp2274
S':'
asbag69
(g90
g71
NtRp2275
(dp2276
g74
(dp2277
sg83
g2263
sg76
(lp2278
g69
(g70
g71
NtRp2279
(dp2280
g74
(dp2281
g82
I4
ssg83
g2275
sg76
(lp2282
g112
asbasbasbag69
(g85
g71
NtRp2283
(dp2284
g74
(dp2285
sg83
g2092
sg76
(lp2286
g69
(g90
g71
NtRp2287
(dp2288
g74
(dp2289
g94
g95
ssg83
g2283
sg76
(lp2290
g1352
asbag69
(g90
g71
NtRp2291
(dp2292
g74
(dp2293
g101
g102
ssg83
g2283
sg76
(lp2294
S':'
asbag69
(g90
g71
NtRp2295
(dp2296
g74
(dp2297
sg83
g2283
sg76
(lp2298
g69
(g70
g71
NtRp2299
(dp2300
g74
(dp2301
g82
I4
ssg83
g2295
sg76
(lp2302
g69
(g78
g71
NtRp2303
(dp2304
g74
(dp2305
g82
I3
ssg83
Nsg76
(lp2306
g69
(g85
g71
NtRp2307
(dp2308
g74
(dp2309
sg83
g2303
sg76
(lp2310
g69
(g90
g71
NtRp2311
(dp2312
g74
(dp2313
sg83
g2307
sg76
(lp2314
g69
(g70
g71
NtRp2315
(dp2316
g74
(dp2317
g82
I3
ssg83
g2311
sg76
(lp2318
g1381
asbasbasbag69
(g85
g71
NtRp2319
(dp2320
g74
(dp2321
sg83
g2303
sg76
(lp2322
g69
(g90
g71
NtRp2323
(dp2324
g74
(dp2325
sg83
g2319
sg76
(lp2326
g69
(g70
g71
NtRp2327
(dp2328
g74
(dp2329
g82
I3
ssg83
g2323
sg76
(lp2330
g1394
asbasbasbag69
(g85
g71
NtRp2331
(dp2332
g74
(dp2333
sg83
g2303
sg76
(lp2334
g69
(g90
g71
NtRp2335
(dp2336
g74
(dp2337
sg83
g2331
sg76
(lp2338
g69
(g70
g71
NtRp2339
(dp2340
g74
(dp2341
g82
I3
ssg83
g2335
sg76
(lp2342
g1407
asbasbasbag69
(g85
g71
NtRp2343
(dp2344
g74
(dp2345
sg83
g2303
sg76
(lp2346
g69
(g90
g71
NtRp2347
(dp2348
g74
(dp2349
sg83
g2343
sg76
(lp2350
g69
(g70
g71
NtRp2351
(dp2352
g74
(dp2353
g82
I3
ssg83
g2347
sg76
(lp2354
g1420
asbasbasbag69
(g85
g71
NtRp2355
(dp2356
g74
(dp2357
sg83
g2303
sg76
(lp2358
g69
(g90
g71
NtRp2359
(dp2360
g74
(dp2361
sg83
g2355
sg76
(lp2362
g69
(g70
g71
NtRp2363
(dp2364
g74
(dp2365
g82
I3
ssg83
g2359
sg76
(lp2366
g1433
asbasbasbasbasbasbasbag69
(g85
g71
NtRp2367
(dp2368
g74
(dp2369
sg83
g2092
sg76
(lp2370
g69
(g90
g71
NtRp2371
(dp2372
g74
(dp2373
g94
g95
ssg83
g2367
sg76
(lp2374
g1700
asbag69
(g90
g71
NtRp2375
(dp2376
g74
(dp2377
g101
g102
ssg83
g2367
sg76
(lp2378
S':'
asbag69
(g90
g71
NtRp2379
(dp2380
g74
(dp2381
sg83
g2367
sg76
(lp2382
g69
(g70
g71
NtRp2383
(dp2384
g74
(dp2385
g82
I4
ssg83
g2379
sg76
(lp2386
g69
(g78
g71
NtRp2387
(dp2388
g74
(dp2389
g82
I3
ssg83
Nsg76
(lp2390
g69
(g85
g71
NtRp2391
(dp2392
g74
(dp2393
sg83
g2387
sg76
(lp2394
g69
(g90
g71
NtRp2395
(dp2396
g74
(dp2397
sg83
g2391
sg76
(lp2398
g69
(g70
g71
NtRp2399
(dp2400
g74
(dp2401
g82
I3
ssg83
g2395
sg76
(lp2402
S'2'
asbasbasbag69
(g85
g71
NtRp2403
(dp2404
g74
(dp2405
sg83
g2387
sg76
(lp2406
g69
(g90
g71
NtRp2407
(dp2408
g74
(dp2409
sg83
g2403
sg76
(lp2410
g69
(g70
g71
NtRp2411
(dp2412
g74
(dp2413
g82
I3
ssg83
g2407
sg76
(lp2414
S'2'
asbasbasbag69
(g85
g71
NtRp2415
(dp2416
g74
(dp2417
sg83
g2387
sg76
(lp2418
g69
(g90
g71
NtRp2419
(dp2420
g74
(dp2421
sg83
g2415
sg76
(lp2422
g69
(g70
g71
NtRp2423
(dp2424
g74
(dp2425
g82
I3
ssg83
g2419
sg76
(lp2426
S'1'
asbasbasbag69
(g85
g71
NtRp2427
(dp2428
g74
(dp2429
sg83
g2387
sg76
(lp2430
g69
(g90
g71
NtRp2431
(dp2432
g74
(dp2433
sg83
g2427
sg76
(lp2434
g69
(g70
g71
NtRp2435
(dp2436
g74
(dp2437
g82
I3
ssg83
g2431
sg76
(lp2438
S'datetime.datetime(2012, 10, 21, 16, 57, 4)'
p2439
asbasbasbag69
(g85
g71
NtRp2440
(dp2441
g74
(dp2442
sg83
g2387
sg76
(lp2443
g69
(g90
g71
NtRp2444
(dp2445
g74
(dp2446
sg83
g2440
sg76
(lp2447
g69
(g70
g71
NtRp2448
(dp2449
g74
(dp2450
g82
I3
ssg83
g2444
sg76
(lp2451
g1778
asbasbasbasbasbasbasbasbasbasbasbag69
(g85
g71
NtRp2452
(dp2453
g74
(dp2454
sg83
g79
sg76
(lp2455
g69
(g90
g71
NtRp2456
(dp2457
g74
(dp2458
g94
g95
ssg83
g2452
sg76
(lp2459
S'is_https'
p2460
asbag69
(g90
g71
NtRp2461
(dp2462
g74
(dp2463
g101
g102
ssg83
g2452
sg76
(lp2464
S':'
asbag69
(g90
g71
NtRp2465
(dp2466
g74
(dp2467
sg83
g2452
sg76
(lp2468
g69
(g70
g71
NtRp2469
(dp2470
g74
(dp2471
g82
I5
ssg83
g2465
sg76
(lp2472
g112
asbasbasbag69
(g85
g71
NtRp2473
(dp2474
g74
(dp2475
sg83
g79
sg76
(lp2476
g69
(g90
g71
NtRp2477
(dp2478
g74
(dp2479
g94
g95
ssg83
g2473
sg76
(lp2480
S'is_local'
p2481
asbag69
(g90
g71
NtRp2482
(dp2483
g74
(dp2484
g101
g102
ssg83
g2473
sg76
(lp2485
S':'
asbag69
(g90
g71
NtRp2486
(dp2487
g74
(dp2488
sg83
g2473
sg76
(lp2489
g69
(g70
g71
NtRp2490
(dp2491
g74
(dp2492
g82
I5
ssg83
g2486
sg76
(lp2493
g1887
asbasbasbag69
(g85
g71
NtRp2494
(dp2495
g74
(dp2496
sg83
g79
sg76
(lp2497
g69
(g90
g71
NtRp2498
(dp2499
g74
(dp2500
g94
g95
ssg83
g2494
sg76
(lp2501
S'is_restful'
p2502
asbag69
(g90
g71
NtRp2503
(dp2504
g74
(dp2505
g101
g102
ssg83
g2494
sg76
(lp2506
S':'
asbag69
(g90
g71
NtRp2507
(dp2508
g74
(dp2509
sg83
g2494
sg76
(lp2510
g69
(g70
g71
NtRp2511
(dp2512
g74
(dp2513
g82
I5
ssg83
g2507
sg76
(lp2514
g112
asbasbasbag69
(g85
g71
NtRp2515
(dp2516
g74
(dp2517
sg83
g79
sg76
(lp2518
g69
(g90
g71
NtRp2519
(dp2520
g74
(dp2521
g94
g95
ssg83
g2515
sg76
(lp2522
S'now'
p2523
asbag69
(g90
g71
NtRp2524
(dp2525
g74
(dp2526
g101
g102
ssg83
g2515
sg76
(lp2527
S':'
asbag69
(g90
g71
NtRp2528
(dp2529
g74
(dp2530
sg83
g2515
sg76
(lp2531
g69
(g70
g71
NtRp2532
(dp2533
g74
(dp2534
g82
I5
ssg83
g2528
sg76
(lp2535
S'datetime.datetime(2012, 11, 7, 22, 38, 14, 855778)'
p2536
asbasbasbag69
(g85
g71
NtRp2537
(dp2538
g74
(dp2539
sg83
g79
sg76
(lp2540
g69
(g90
g71
NtRp2541
(dp2542
g74
(dp2543
g94
g95
ssg83
g2537
sg76
(lp2544
S'post_vars'
p2545
asbag69
(g90
g71
NtRp2546
(dp2547
g74
(dp2548
g101
g102
ssg83
g2537
sg76
(lp2549
S':'
asbag69
(g90
g71
NtRp2550
(dp2551
g74
(dp2552
sg83
g2537
sg76
(lp2553
g69
(g70
g71
NtRp2554
(dp2555
g74
(dp2556
g82
I5
ssg83
g2550
sg76
(lp2557
g69
(g78
g71
NtRp2558
(dp2559
g74
(dp2560
g82
I4
ssg83
Nsg76
(lp2561
g69
(g85
g71
NtRp2562
(dp2563
g74
(dp2564
sg83
g2558
sg76
(lp2565
g69
(g90
g71
NtRp2566
(dp2567
g74
(dp2568
g94
g95
ssg83
g2562
sg76
(lp2569
S'name'
p2570
asbag69
(g90
g71
NtRp2571
(dp2572
g74
(dp2573
g101
g102
ssg83
g2562
sg76
(lp2574
S':'
asbag69
(g90
g71
NtRp2575
(dp2576
g74
(dp2577
sg83
g2562
sg76
(lp2578
g69
(g70
g71
NtRp2579
(dp2580
g74
(dp2581
g82
I4
ssg83
g2575
sg76
(lp2582
S'1'
asbasbasbasbasbasbasbag69
(g85
g71
NtRp2583
(dp2584
g74
(dp2585
sg83
g79
sg76
(lp2586
g69
(g90
g71
NtRp2587
(dp2588
g74
(dp2589
g94
g95
ssg83
g2583
sg76
(lp2590
S'raw_args'
p2591
asbag69
(g90
g71
NtRp2592
(dp2593
g74
(dp2594
g101
g102
ssg83
g2583
sg76
(lp2595
S':'
asbag69
(g90
g71
NtRp2596
(dp2597
g74
(dp2598
sg83
g2583
sg76
(lp2599
g69
(g70
g71
NtRp2600
(dp2601
g74
(dp2602
g82
I5
ssg83
g2596
sg76
(lp2603
S''
asbasbasbag69
(g85
g71
NtRp2604
(dp2605
g74
(dp2606
sg83
g79
sg76
(lp2607
g69
(g90
g71
NtRp2608
(dp2609
g74
(dp2610
g94
g95
ssg83
g2604
sg76
(lp2611
S'raw_extension'
p2612
asbag69
(g90
g71
NtRp2613
(dp2614
g74
(dp2615
g101
g102
ssg83
g2604
sg76
(lp2616
S':'
asbag69
(g90
g71
NtRp2617
(dp2618
g74
(dp2619
sg83
g2604
sg76
(lp2620
g69
(g70
g71
NtRp2621
(dp2622
g74
(dp2623
g82
I5
ssg83
g2617
sg76
(lp2624
S'None'
p2625
asbasbasbag69
(g85
g71
NtRp2626
(dp2627
g74
(dp2628
sg83
g79
sg76
(lp2629
g69
(g90
g71
NtRp2630
(dp2631
g74
(dp2632
g94
g95
ssg83
g2626
sg76
(lp2633
S'url'
p2634
asbag69
(g90
g71
NtRp2635
(dp2636
g74
(dp2637
g101
g102
ssg83
g2626
sg76
(lp2638
S':'
asbag69
(g90
g71
NtRp2639
(dp2640
g74
(dp2641
sg83
g2626
sg76
(lp2642
g69
(g70
g71
NtRp2643
(dp2644
g74
(dp2645
g82
I5
ssg83
g2639
sg76
(lp2646
g1455
asbasbasbag69
(g85
g71
NtRp2647
(dp2648
g74
(dp2649
sg83
g79
sg76
(lp2650
g69
(g90
g71
NtRp2651
(dp2652
g74
(dp2653
g94
g95
ssg83
g2647
sg76
(lp2654
S'utcnow'
p2655
asbag69
(g90
g71
NtRp2656
(dp2657
g74
(dp2658
g101
g102
ssg83
g2647
sg76
(lp2659
S':'
asbag69
(g90
g71
NtRp2660
(dp2661
g74
(dp2662
sg83
g2647
sg76
(lp2663
g69
(g70
g71
NtRp2664
(dp2665
g74
(dp2666
g82
I5
ssg83
g2660
sg76
(lp2667
S'datetime.datetime(2012, 11, 7, 17, 8, 14, 855785)'
p2668
asbasbasbag69
(g85
g71
NtRp2669
(dp2670
g74
(dp2671
sg83
g79
sg76
(lp2672
g69
(g90
g71
NtRp2673
(dp2674
g74
(dp2675
g94
g95
ssg83
g2669
sg76
(lp2676
S'uuid'
p2677
asbag69
(g90
g71
NtRp2678
(dp2679
g74
(dp2680
g101
g102
ssg83
g2669
sg76
(lp2681
S':'
asbag69
(g90
g71
NtRp2682
(dp2683
g74
(dp2684
sg83
g2669
sg76
(lp2685
g69
(g70
g71
NtRp2686
(dp2687
g74
(dp2688
g82
I5
ssg83
g2682
sg76
(lp2689
S'MyApp/127.0.0.1.2012-11-07.22-38-14.4e7bef3b-d50b-452b-a298-2cb919ed55a3'
p2690
asbasbasbag69
(g85
g71
NtRp2691
(dp2692
g74
(dp2693
sg83
g79
sg76
(lp2694
g69
(g90
g71
NtRp2695
(dp2696
g74
(dp2697
g94
g95
ssg83
g2691
sg76
(lp2698
S'vars'
p2699
asbag69
(g90
g71
NtRp2700
(dp2701
g74
(dp2702
g101
g102
ssg83
g2691
sg76
(lp2703
S':'
asbag69
(g90
g71
NtRp2704
(dp2705
g74
(dp2706
sg83
g2691
sg76
(lp2707
g69
(g70
g71
NtRp2708
(dp2709
g74
(dp2710
g82
I5
ssg83
g2704
sg76
(lp2711
g69
(g78
g71
NtRp2712
(dp2713
g74
(dp2714
g82
I4
ssg83
Nsg76
(lp2715
g69
(g85
g71
NtRp2716
(dp2717
g74
(dp2718
sg83
g2712
sg76
(lp2719
g69
(g90
g71
NtRp2720
(dp2721
g74
(dp2722
g94
g95
ssg83
g2716
sg76
(lp2723
g2570
asbag69
(g90
g71
NtRp2724
(dp2725
g74
(dp2726
g101
g102
ssg83
g2716
sg76
(lp2727
S':'
asbag69
(g90
g71
NtRp2728
(dp2729
g74
(dp2730
sg83
g2716
sg76
(lp2731
g69
(g70
g71
NtRp2732
(dp2733
g74
(dp2734
g82
I4
ssg83
g2728
sg76
(lp2735
S'1'
asbasbasbasbasbasbasbag69
(g85
g71
NtRp2736
(dp2737
g74
(dp2738
sg83
g79
sg76
(lp2739
g69
(g90
g71
NtRp2740
(dp2741
g74
(dp2742
g94
g95
ssg83
g2736
sg76
(lp2743
S'wsgi'
p2744
asbag69
(g90
g71
NtRp2745
(dp2746
g74
(dp2747
g101
g102
ssg83
g2736
sg76
(lp2748
S':'
asbag69
(g90
g71
NtRp2749
(dp2750
g74
(dp2751
sg83
g2736
sg76
(lp2752
g69
(g70
g71
NtRp2753
(dp2754
g74
(dp2755
g82
I5
ssg83
g2749
sg76
(lp2756
g69
(g78
g71
NtRp2757
(dp2758
g74
(dp2759
g82
I4
ssg83
Nsg76
(lp2760
g69
(g85
g71
NtRp2761
(dp2762
g74
(dp2763
sg83
g2757
sg76
(lp2764
g69
(g90
g71
NtRp2765
(dp2766
g74
(dp2767
g94
g95
ssg83
g2761
sg76
(lp2768
S'environ'
p2769
asbag69
(g90
g71
NtRp2770
(dp2771
g74
(dp2772
g101
g102
ssg83
g2761
sg76
(lp2773
S':'
asbag69
(g90
g71
NtRp2774
(dp2775
g74
(dp2776
sg83
g2761
sg76
(lp2777
g69
(g70
g71
NtRp2778
(dp2779
g74
(dp2780
g82
I4
ssg83
g2774
sg76
(lp2781
g69
(g78
g71
NtRp2782
(dp2783
g74
(dp2784
g82
I3
ssg83
Nsg76
(lp2785
g69
(g85
g71
NtRp2786
(dp2787
g74
(dp2788
sg83
g2782
sg76
(lp2789
g69
(g90
g71
NtRp2790
(dp2791
g74
(dp2792
g94
g95
ssg83
g2786
sg76
(lp2793
S'CONTENT_LENGTH'
p2794
asbag69
(g90
g71
NtRp2795
(dp2796
g74
(dp2797
g101
g102
ssg83
g2786
sg76
(lp2798
S':'
asbag69
(g90
g71
NtRp2799
(dp2800
g74
(dp2801
sg83
g2786
sg76
(lp2802
g69
(g70
g71
NtRp2803
(dp2804
g74
(dp2805
g82
I3
ssg83
g2799
sg76
(lp2806
S'6'
asbasbasbag69
(g85
g71
NtRp2807
(dp2808
g74
(dp2809
sg83
g2782
sg76
(lp2810
g69
(g90
g71
NtRp2811
(dp2812
g74
(dp2813
g94
g95
ssg83
g2807
sg76
(lp2814
S'CONTENT_TYPE'
p2815
asbag69
(g90
g71
NtRp2816
(dp2817
g74
(dp2818
g101
g102
ssg83
g2807
sg76
(lp2819
S':'
asbag69
(g90
g71
NtRp2820
(dp2821
g74
(dp2822
sg83
g2807
sg76
(lp2823
g69
(g70
g71
NtRp2824
(dp2825
g74
(dp2826
g82
I3
ssg83
g2820
sg76
(lp2827
g996
asbasbasbag69
(g85
g71
NtRp2828
(dp2829
g74
(dp2830
sg83
g2782
sg76
(lp2831
g69
(g90
g71
NtRp2832
(dp2833
g74
(dp2834
g94
g95
ssg83
g2828
sg76
(lp2835
S'HTTP_ACCEPT'
p2836
asbag69
(g90
g71
NtRp2837
(dp2838
g74
(dp2839
g101
g102
ssg83
g2828
sg76
(lp2840
S':'
asbag69
(g90
g71
NtRp2841
(dp2842
g74
(dp2843
sg83
g2828
sg76
(lp2844
g69
(g70
g71
NtRp2845
(dp2846
g74
(dp2847
g82
I3
ssg83
g2841
sg76
(lp2848
g1083
asbasbasbag69
(g85
g71
NtRp2849
(dp2850
g74
(dp2851
sg83
g2782
sg76
(lp2852
g69
(g90
g71
NtRp2853
(dp2854
g74
(dp2855
g94
g95
ssg83
g2849
sg76
(lp2856
S'HTTP_ACCEPT_ENCODING'
p2857
asbag69
(g90
g71
NtRp2858
(dp2859
g74
(dp2860
g101
g102
ssg83
g2849
sg76
(lp2861
S':'
asbag69
(g90
g71
NtRp2862
(dp2863
g74
(dp2864
sg83
g2849
sg76
(lp2865
g69
(g70
g71
NtRp2866
(dp2867
g74
(dp2868
g82
I3
ssg83
g2862
sg76
(lp2869
g1105
asbasbasbag69
(g85
g71
NtRp2870
(dp2871
g74
(dp2872
sg83
g2782
sg76
(lp2873
g69
(g90
g71
NtRp2874
(dp2875
g74
(dp2876
g94
g95
ssg83
g2870
sg76
(lp2877
S'HTTP_ACCEPT_LANGUAGE'
p2878
asbag69
(g90
g71
NtRp2879
(dp2880
g74
(dp2881
g101
g102
ssg83
g2870
sg76
(lp2882
S':'
asbag69
(g90
g71
NtRp2883
(dp2884
g74
(dp2885
sg83
g2870
sg76
(lp2886
g69
(g70
g71
NtRp2887
(dp2888
g74
(dp2889
g82
I3
ssg83
g2883
sg76
(lp2890
g1127
asbasbasbag69
(g85
g71
NtRp2891
(dp2892
g74
(dp2893
sg83
g2782
sg76
(lp2894
g69
(g90
g71
NtRp2895
(dp2896
g74
(dp2897
g94
g95
ssg83
g2891
sg76
(lp2898
S'HTTP_CONNECTION'
p2899
asbag69
(g90
g71
NtRp2900
(dp2901
g74
(dp2902
g101
g102
ssg83
g2891
sg76
(lp2903
S':'
asbag69
(g90
g71
NtRp2904
(dp2905
g74
(dp2906
sg83
g2891
sg76
(lp2907
g69
(g70
g71
NtRp2908
(dp2909
g74
(dp2910
g82
I3
ssg83
g2904
sg76
(lp2911
g1149
asbasbasbag69
(g85
g71
NtRp2912
(dp2913
g74
(dp2914
sg83
g2782
sg76
(lp2915
g69
(g90
g71
NtRp2916
(dp2917
g74
(dp2918
g94
g95
ssg83
g2912
sg76
(lp2919
S'HTTP_CONTENT_LENGTH'
p2920
asbag69
(g90
g71
NtRp2921
(dp2922
g74
(dp2923
g101
g102
ssg83
g2912
sg76
(lp2924
S':'
asbag69
(g90
g71
NtRp2925
(dp2926
g74
(dp2927
sg83
g2912
sg76
(lp2928
g69
(g70
g71
NtRp2929
(dp2930
g74
(dp2931
g82
I3
ssg83
g2925
sg76
(lp2932
S'6'
asbasbasbag69
(g85
g71
NtRp2933
(dp2934
g74
(dp2935
sg83
g2782
sg76
(lp2936
g69
(g90
g71
NtRp2937
(dp2938
g74
(dp2939
g94
g95
ssg83
g2933
sg76
(lp2940
S'HTTP_CONTENT_TYPE'
p2941
asbag69
(g90
g71
NtRp2942
(dp2943
g74
(dp2944
g101
g102
ssg83
g2933
sg76
(lp2945
S':'
asbag69
(g90
g71
NtRp2946
(dp2947
g74
(dp2948
sg83
g2933
sg76
(lp2949
g69
(g70
g71
NtRp2950
(dp2951
g74
(dp2952
g82
I3
ssg83
g2946
sg76
(lp2953
g996
asbasbasbag69
(g85
g71
NtRp2954
(dp2955
g74
(dp2956
sg83
g2782
sg76
(lp2957
g69
(g90
g71
NtRp2958
(dp2959
g74
(dp2960
g94
g95
ssg83
g2954
sg76
(lp2961
S'HTTP_COOKIE'
p2962
asbag69
(g90
g71
NtRp2963
(dp2964
g74
(dp2965
g101
g102
ssg83
g2954
sg76
(lp2966
S':'
asbag69
(g90
g71
NtRp2967
(dp2968
g74
(dp2969
sg83
g2954
sg76
(lp2970
g69
(g70
g71
NtRp2971
(dp2972
g74
(dp2973
g82
I3
ssg83
g2967
sg76
(lp2974
g1213
asbasbasbag69
(g85
g71
NtRp2975
(dp2976
g74
(dp2977
sg83
g2782
sg76
(lp2978
g69
(g90
g71
NtRp2979
(dp2980
g74
(dp2981
g94
g95
ssg83
g2975
sg76
(lp2982
S'HTTP_HOST'
p2983
asbag69
(g90
g71
NtRp2984
(dp2985
g74
(dp2986
g101
g102
ssg83
g2975
sg76
(lp2987
S':'
asbag69
(g90
g71
NtRp2988
(dp2989
g74
(dp2990
sg83
g2975
sg76
(lp2991
g69
(g70
g71
NtRp2992
(dp2993
g74
(dp2994
g82
I3
ssg83
g2988
sg76
(lp2995
g1235
asbasbasbag69
(g85
g71
NtRp2996
(dp2997
g74
(dp2998
sg83
g2782
sg76
(lp2999
g69
(g90
g71
NtRp3000
(dp3001
g74
(dp3002
g94
g95
ssg83
g2996
sg76
(lp3003
S'HTTP_ORIGIN'
p3004
asbag69
(g90
g71
NtRp3005
(dp3006
g74
(dp3007
g101
g102
ssg83
g2996
sg76
(lp3008
S':'
asbag69
(g90
g71
NtRp3009
(dp3010
g74
(dp3011
sg83
g2996
sg76
(lp3012
g69
(g70
g71
NtRp3013
(dp3014
g74
(dp3015
g82
I3
ssg83
g3009
sg76
(lp3016
g1257
asbasbasbag69
(g85
g71
NtRp3017
(dp3018
g74
(dp3019
sg83
g2782
sg76
(lp3020
g69
(g90
g71
NtRp3021
(dp3022
g74
(dp3023
g94
g95
ssg83
g3017
sg76
(lp3024
S'HTTP_REFERER'
p3025
asbag69
(g90
g71
NtRp3026
(dp3027
g74
(dp3028
g101
g102
ssg83
g3017
sg76
(lp3029
S':'
asbag69
(g90
g71
NtRp3030
(dp3031
g74
(dp3032
sg83
g3017
sg76
(lp3033
g69
(g70
g71
NtRp3034
(dp3035
g74
(dp3036
g82
I3
ssg83
g3030
sg76
(lp3037
g1279
asbasbasbag69
(g85
g71
NtRp3038
(dp3039
g74
(dp3040
sg83
g2782
sg76
(lp3041
g69
(g90
g71
NtRp3042
(dp3043
g74
(dp3044
g94
g95
ssg83
g3038
sg76
(lp3045
S'HTTP_USER_AGENT'
p3046
asbag69
(g90
g71
NtRp3047
(dp3048
g74
(dp3049
g101
g102
ssg83
g3038
sg76
(lp3050
S':'
asbag69
(g90
g71
NtRp3051
(dp3052
g74
(dp3053
sg83
g3038
sg76
(lp3054
g69
(g70
g71
NtRp3055
(dp3056
g74
(dp3057
g82
I3
ssg83
g3051
sg76
(lp3058
g1301
asbasbasbag69
(g85
g71
NtRp3059
(dp3060
g74
(dp3061
sg83
g2782
sg76
(lp3062
g69
(g90
g71
NtRp3063
(dp3064
g74
(dp3065
g94
g95
ssg83
g3059
sg76
(lp3066
S'PATH_INFO'
p3067
asbag69
(g90
g71
NtRp3068
(dp3069
g74
(dp3070
g101
g102
ssg83
g3059
sg76
(lp3071
S':'
asbag69
(g90
g71
NtRp3072
(dp3073
g74
(dp3074
sg83
g3059
sg76
(lp3075
g69
(g70
g71
NtRp3076
(dp3077
g74
(dp3078
g82
I3
ssg83
g3072
sg76
(lp3079
g1455
asbasbasbag69
(g85
g71
NtRp3080
(dp3081
g74
(dp3082
sg83
g2782
sg76
(lp3083
g69
(g90
g71
NtRp3084
(dp3085
g74
(dp3086
g94
g95
ssg83
g3080
sg76
(lp3087
S'QUERY_STRING'
p3088
asbag69
(g90
g71
NtRp3089
(dp3090
g74
(dp3091
g101
g102
ssg83
g3080
sg76
(lp3092
S':'
asbag69
(g90
g71
NtRp3093
(dp3094
g74
(dp3095
sg83
g3080
sg76
(lp3096
g69
(g70
g71
NtRp3097
(dp3098
g74
(dp3099
g82
I3
ssg83
g3093
sg76
(lp3100
S''
asbasbasbag69
(g85
g71
NtRp3101
(dp3102
g74
(dp3103
sg83
g2782
sg76
(lp3104
g69
(g90
g71
NtRp3105
(dp3106
g74
(dp3107
g94
g95
ssg83
g3101
sg76
(lp3108
S'REMOTE_ADDR'
p3109
asbag69
(g90
g71
NtRp3110
(dp3111
g74
(dp3112
g101
g102
ssg83
g3101
sg76
(lp3113
S':'
asbag69
(g90
g71
NtRp3114
(dp3115
g74
(dp3116
sg83
g3101
sg76
(lp3117
g69
(g70
g71
NtRp3118
(dp3119
g74
(dp3120
g82
I3
ssg83
g3114
sg76
(lp3121
g224
asbasbasbag69
(g85
g71
NtRp3122
(dp3123
g74
(dp3124
sg83
g2782
sg76
(lp3125
g69
(g90
g71
NtRp3126
(dp3127
g74
(dp3128
g94
g95
ssg83
g3122
sg76
(lp3129
S'REMOTE_PORT'
p3130
asbag69
(g90
g71
NtRp3131
(dp3132
g74
(dp3133
g101
g102
ssg83
g3122
sg76
(lp3134
S':'
asbag69
(g90
g71
NtRp3135
(dp3136
g74
(dp3137
sg83
g3122
sg76
(lp3138
g69
(g70
g71
NtRp3139
(dp3140
g74
(dp3141
g82
I3
ssg83
g3135
sg76
(lp3142
g1519
asbasbasbag69
(g85
g71
NtRp3143
(dp3144
g74
(dp3145
sg83
g2782
sg76
(lp3146
g69
(g90
g71
NtRp3147
(dp3148
g74
(dp3149
g94
g95
ssg83
g3143
sg76
(lp3150
S'REQUEST_METHOD'
p3151
asbag69
(g90
g71
NtRp3152
(dp3153
g74
(dp3154
g101
g102
ssg83
g3143
sg76
(lp3155
S':'
asbag69
(g90
g71
NtRp3156
(dp3157
g74
(dp3158
sg83
g3143
sg76
(lp3159
g69
(g70
g71
NtRp3160
(dp3161
g74
(dp3162
g82
I3
ssg83
g3156
sg76
(lp3163
g1541
asbasbasbag69
(g85
g71
NtRp3164
(dp3165
g74
(dp3166
sg83
g2782
sg76
(lp3167
g69
(g90
g71
NtRp3168
(dp3169
g74
(dp3170
g94
g95
ssg83
g3164
sg76
(lp3171
S'REQUEST_URI'
p3172
asbag69
(g90
g71
NtRp3173
(dp3174
g74
(dp3175
g101
g102
ssg83
g3164
sg76
(lp3176
S':'
asbag69
(g90
g71
NtRp3177
(dp3178
g74
(dp3179
sg83
g3164
sg76
(lp3180
g69
(g70
g71
NtRp3181
(dp3182
g74
(dp3183
g82
I3
ssg83
g3177
sg76
(lp3184
g1455
asbasbasbag69
(g85
g71
NtRp3185
(dp3186
g74
(dp3187
sg83
g2782
sg76
(lp3188
g69
(g90
g71
NtRp3189
(dp3190
g74
(dp3191
g94
g95
ssg83
g3185
sg76
(lp3192
S'SCRIPT_NAME'
p3193
asbag69
(g90
g71
NtRp3194
(dp3195
g74
(dp3196
g101
g102
ssg83
g3185
sg76
(lp3197
S':'
asbag69
(g90
g71
NtRp3198
(dp3199
g74
(dp3200
sg83
g3185
sg76
(lp3201
g69
(g70
g71
NtRp3202
(dp3203
g74
(dp3204
g82
I3
ssg83
g3198
sg76
(lp3205
S''
asbasbasbag69
(g85
g71
NtRp3206
(dp3207
g74
(dp3208
sg83
g2782
sg76
(lp3209
g69
(g90
g71
NtRp3210
(dp3211
g74
(dp3212
g94
g95
ssg83
g3206
sg76
(lp3213
S'SERVER_NAME'
p3214
asbag69
(g90
g71
NtRp3215
(dp3216
g74
(dp3217
g101
g102
ssg83
g3206
sg76
(lp3218
S':'
asbag69
(g90
g71
NtRp3219
(dp3220
g74
(dp3221
sg83
g3206
sg76
(lp3222
g69
(g70
g71
NtRp3223
(dp3224
g74
(dp3225
g82
I3
ssg83
g3219
sg76
(lp3226
g1420
asbasbasbag69
(g85
g71
NtRp3227
(dp3228
g74
(dp3229
sg83
g2782
sg76
(lp3230
g69
(g90
g71
NtRp3231
(dp3232
g74
(dp3233
g94
g95
ssg83
g3227
sg76
(lp3234
S'SERVER_PORT'
p3235
asbag69
(g90
g71
NtRp3236
(dp3237
g74
(dp3238
g101
g102
ssg83
g3227
sg76
(lp3239
S':'
asbag69
(g90
g71
NtRp3240
(dp3241
g74
(dp3242
sg83
g3227
sg76
(lp3243
g69
(g70
g71
NtRp3244
(dp3245
g74
(dp3246
g82
I3
ssg83
g3240
sg76
(lp3247
g1626
asbasbasbag69
(g85
g71
NtRp3248
(dp3249
g74
(dp3250
sg83
g2782
sg76
(lp3251
g69
(g90
g71
NtRp3252
(dp3253
g74
(dp3254
g94
g95
ssg83
g3248
sg76
(lp3255
S'SERVER_PROTOCOL'
p3256
asbag69
(g90
g71
NtRp3257
(dp3258
g74
(dp3259
g101
g102
ssg83
g3248
sg76
(lp3260
S':'
asbag69
(g90
g71
NtRp3261
(dp3262
g74
(dp3263
sg83
g3248
sg76
(lp3264
g69
(g70
g71
NtRp3265
(dp3266
g74
(dp3267
g82
I3
ssg83
g3261
sg76
(lp3268
g1648
asbasbasbag69
(g85
g71
NtRp3269
(dp3270
g74
(dp3271
sg83
g2782
sg76
(lp3272
g69
(g90
g71
NtRp3273
(dp3274
g74
(dp3275
g94
g95
ssg83
g3269
sg76
(lp3276
S'SERVER_SOFTWARE'
p3277
asbag69
(g90
g71
NtRp3278
(dp3279
g74
(dp3280
g101
g102
ssg83
g3269
sg76
(lp3281
S':'
asbag69
(g90
g71
NtRp3282
(dp3283
g74
(dp3284
sg83
g3269
sg76
(lp3285
g69
(g70
g71
NtRp3286
(dp3287
g74
(dp3288
g82
I3
ssg83
g3282
sg76
(lp3289
g1670
asbasbasbag69
(g85
g71
NtRp3290
(dp3291
g74
(dp3292
sg83
g2782
sg76
(lp3293
g69
(g90
g71
NtRp3294
(dp3295
g74
(dp3296
g94
g95
ssg83
g3290
sg76
(lp3297
S'wsgi.errors'
p3298
asbag69
(g90
g71
NtRp3299
(dp3300
g74
(dp3301
g101
g102
ssg83
g3290
sg76
(lp3302
S':'
asbag69
(g90
g71
NtRp3303
(dp3304
g74
(dp3305
sg83
g3290
sg76
(lp3306
g69
(g70
g71
NtRp3307
(dp3308
g74
(dp3309
g82
I3
ssg83
g3303
sg76
(lp3310
S"<open file '<stderr>', mode 'w' at 0x100416140>"
p3311
asbasbasbag69
(g85
g71
NtRp3312
(dp3313
g74
(dp3314
sg83
g2782
sg76
(lp3315
g69
(g90
g71
NtRp3316
(dp3317
g74
(dp3318
g94
g95
ssg83
g3312
sg76
(lp3319
S'wsgi.file_wrapper'
p3320
asbag69
(g90
g71
NtRp3321
(dp3322
g74
(dp3323
g101
g102
ssg83
g3312
sg76
(lp3324
S':'
asbag69
(g90
g71
NtRp3325
(dp3326
g74
(dp3327
sg83
g3312
sg76
(lp3328
g69
(g70
g71
NtRp3329
(dp3330
g74
(dp3331
g82
I3
ssg83
g3325
sg76
(lp3332
S'<class wsgiref.util.FileWrapper at 0x101a57c50>'
p3333
asbasbasbag69
(g85
g71
NtRp3334
(dp3335
g74
(dp3336
sg83
g2782
sg76
(lp3337
g69
(g90
g71
NtRp3338
(dp3339
g74
(dp3340
g94
g95
ssg83
g3334
sg76
(lp3341
S'wsgi.input'
p3342
asbag69
(g90
g71
NtRp3343
(dp3344
g74
(dp3345
g101
g102
ssg83
g3334
sg76
(lp3346
S':'
asbag69
(g90
g71
NtRp3347
(dp3348
g74
(dp3349
sg83
g3334
sg76
(lp3350
g69
(g70
g71
NtRp3351
(dp3352
g74
(dp3353
g82
I3
ssg83
g3347
sg76
(lp3354
S"<open file '<fdopen>', mode 'w+b' at 0x11ac693e8>"
p3355
asbasbasbag69
(g85
g71
NtRp3356
(dp3357
g74
(dp3358
sg83
g2782
sg76
(lp3359
g69
(g90
g71
NtRp3360
(dp3361
g74
(dp3362
g94
g95
ssg83
g3356
sg76
(lp3363
S'wsgi.multiprocess'
p3364
asbag69
(g90
g71
NtRp3365
(dp3366
g74
(dp3367
g101
g102
ssg83
g3356
sg76
(lp3368
S':'
asbag69
(g90
g71
NtRp3369
(dp3370
g74
(dp3371
sg83
g3356
sg76
(lp3372
g69
(g70
g71
NtRp3373
(dp3374
g74
(dp3375
g82
I3
ssg83
g3369
sg76
(lp3376
g112
asbasbasbag69
(g85
g71
NtRp3377
(dp3378
g74
(dp3379
sg83
g2782
sg76
(lp3380
g69
(g90
g71
NtRp3381
(dp3382
g74
(dp3383
g94
g95
ssg83
g3377
sg76
(lp3384
S'wsgi.multithread'
p3385
asbag69
(g90
g71
NtRp3386
(dp3387
g74
(dp3388
g101
g102
ssg83
g3377
sg76
(lp3389
S':'
asbag69
(g90
g71
NtRp3390
(dp3391
g74
(dp3392
sg83
g3377
sg76
(lp3393
g69
(g70
g71
NtRp3394
(dp3395
g74
(dp3396
g82
I3
ssg83
g3390
sg76
(lp3397
g1887
asbasbasbag69
(g85
g71
NtRp3398
(dp3399
g74
(dp3400
sg83
g2782
sg76
(lp3401
g69
(g90
g71
NtRp3402
(dp3403
g74
(dp3404
g94
g95
ssg83
g3398
sg76
(lp3405
S'wsgi.run_once'
p3406
asbag69
(g90
g71
NtRp3407
(dp3408
g74
(dp3409
g101
g102
ssg83
g3398
sg76
(lp3410
S':'
asbag69
(g90
g71
NtRp3411
(dp3412
g74
(dp3413
sg83
g3398
sg76
(lp3414
g69
(g70
g71
NtRp3415
(dp3416
g74
(dp3417
g82
I3
ssg83
g3411
sg76
(lp3418
g112
asbasbasbag69
(g85
g71
NtRp3419
(dp3420
g74
(dp3421
sg83
g2782
sg76
(lp3422
g69
(g90
g71
NtRp3423
(dp3424
g74
(dp3425
g94
g95
ssg83
g3419
sg76
(lp3426
S'wsgi.url_scheme'
p3427
asbag69
(g90
g71
NtRp3428
(dp3429
g74
(dp3430
g101
g102
ssg83
g3419
sg76
(lp3431
S':'
asbag69
(g90
g71
NtRp3432
(dp3433
g74
(dp3434
sg83
g3419
sg76
(lp3435
g69
(g70
g71
NtRp3436
(dp3437
g74
(dp3438
g82
I3
ssg83
g3432
sg76
(lp3439
g1930
asbasbasbag69
(g85
g71
NtRp3440
(dp3441
g74
(dp3442
sg83
g2782
sg76
(lp3443
g69
(g90
g71
NtRp3444
(dp3445
g74
(dp3446
g94
g95
ssg83
g3440
sg76
(lp3447
S'wsgi.version'
p3448
asbag69
(g90
g71
NtRp3449
(dp3450
g74
(dp3451
g101
g102
ssg83
g3440
sg76
(lp3452
S':'
asbag69
(g90
g71
NtRp3453
(dp3454
g74
(dp3455
sg83
g3440
sg76
(lp3456
g69
(g70
g71
NtRp3457
(dp3458
g74
(dp3459
g82
I3
ssg83
g3453
sg76
(lp3460
S'1'
asbasbasbasbasbasbasbasbasbasbasbasbasbsS'frames'
p3461
(lp3462
(dp3463
S'file'
p3464
S'/Users/keshav/Desktop/web2py/gluon/restricted.py'
p3465
sS'dump'
p3466
(dp3467
S'environment'
p3468
S"{'A': <class 'gluon.html.A'>, 'Auth': <class 'gluon.tools.Auth'>, 'B': <class 'gluon.html.B'>, 'BEAUTIFY': <class 'gluon.html.BEAUTIFY'>, 'BODY': <class 'gluon.html.BODY'>, 'BR': <class 'gluon.html.BR'>, 'BUTTON': <class 'gluon.html.BUTTON'>, 'CAT': <class 'gluon.html.CAT'>, 'CENTER': <class 'gluon.html.CENTER'>, 'CLEANUP': <class 'gluon.validators.CLEANUP'>, ...}"
p3469
sS'ccode'
p3470
S'<code object <module> at 0x1013f1b70, file "/Use...lications/MyApp/controllers/default.py", line 11>'
p3471
ssS'lnum'
p3472
I212
sS'lines'
p3473
(dp3474
I207
S'    try:'
p3475
sI208
S'        if isinstance(code, types.CodeType):'
p3476
sI209
S'            ccode = code'
p3477
sI210
S'        else:'
p3478
sI211
S'            ccode = compile2(code, layer)'
p3479
sI212
S'        exec ccode in environment'
p3480
sI213
S'    except HTTP:'
p3481
sI214
S'        raise'
p3482
sI215
S'    except RestrictedError:'
p3483
sI216
S'        # do not encapsulate (obfuscate) the original RestrictedError'
p3484
ssS'call'
p3485
S"(code='# -*- coding: utf-8 -*-\\n# this file is released ... 99\\n\\nresponse._vars=response._caller(update_tut)\\n', environment={'A': <class 'gluon.html.A'>, 'Auth': <class 'gluon.tools.Auth'>, 'B': <class 'gluon.html.B'>, 'BEAUTIFY': <class 'gluon.html.BEAUTIFY'>, 'BODY': <class 'gluon.html.BODY'>, 'BR': <class 'gluon.html.BR'>, 'BUTTON': <class 'gluon.html.BUTTON'>, 'CAT': <class 'gluon.html.CAT'>, 'CENTER': <class 'gluon.html.CENTER'>, 'CLEANUP': <class 'gluon.validators.CLEANUP'>, ...}, layer='/Users/keshav/Desktop/web2py/applications/MyApp/controllers/default.py')"
p3486
sS'func'
p3487
S'restricted'
p3488
sa(dp3489
g3464
S'/Users/keshav/Desktop/web2py/applications/MyApp/controllers/default.py'
p3490
sg3466
(dp3491
sg3472
I118
sg3473
(dp3492
I107
S'\t            error = err.getvalue()'
p3493
sI108
S'\t            return output+error'
p3494
sI109
S''
sI110
S''
sI111
S'def update_tut():'
p3495
sI112
S'    if(auth.is_logged_in()):'
p3496
sI113
S'        row = db(db.auth_user.id==auth.user_id).select().first()'
p3497
sI114
S"        row.update_record(level=request.vars['name'])"
p3498
sI115
S'    else:'
p3499
sI116
S'        return 99'
p3500
ssg3485
S'()'
p3501
sg3487
S'<module>'
p3502
sa(dp3503
g3464
S'/Users/keshav/Desktop/web2py/gluon/globals.py'
p3504
sg3466
(dp3505
S'self'
p3506
S'undefined'
p3507
sS'f'
S'<function update_tut at 0x1014081b8>'
p3508
ssg3472
I188
sg3473
(dp3509
I192
S''
sI183
S'        self.menu = []             # used by the default view layout'
p3510
sI184
S'        self.files = []            # used by web2py_ajax.html'
p3511
sI185
S'        self.generic_patterns = []  # patterns to allow generic views'
p3512
sI186
S"        self.delimiters = ('{{', '}}')"
p3513
sI187
S'        self._vars = None'
p3514
sI188
S'        self._caller = lambda f: f()'
p3515
sI189
S'        self._view_environment = None'
p3516
sI190
S'        self._custom_commit = None'
p3517
sI191
S'        self._custom_rollback = None'
p3518
ssg3485
S'(f=<function update_tut at 0x1014081b8>)'
p3519
sg3487
S'<lambda>'
p3520
sa(dp3521
g3464
S'/Users/keshav/Desktop/web2py/applications/MyApp/controllers/default.py'
p3522
sg3466
(dp3523
S'global request'
p3524
S"<Storage {'function': 'update_tut', 'body': <ope...s/MyApp/', 'post_vars': <Storage {'name': '1'}>}>"
p3525
sS'request.vars'
p3526
S"<Storage {'name': '1'}>"
p3527
sS'level'
p3528
g3507
sS'row.update_record'
p3529
S'<gluon.dal.RecordUpdater object at 0x1013d6f50>'
p3530
sS'row'
p3531
S"<Row {'first_name': 'Keshav', 'last_name': 'Chou...stration_key': '', 'email': 'kc00986@gmail.com'}>"
p3532
ssg3472
I114
sg3473
(dp3533
I107
S'\t            error = err.getvalue()'
p3534
sI108
S'\t            return output+error'
p3535
sI109
S''
sI110
S''
sI111
S'def update_tut():'
p3536
sI112
S'    if(auth.is_logged_in()):'
p3537
sI113
S'        row = db(db.auth_user.id==auth.user_id).select().first()'
p3538
sI114
S"        row.update_record(level=request.vars['name'])"
p3539
sI115
S'    else:'
p3540
sI116
S'        return 99'
p3541
ssg3485
S'()'
p3542
sg3487
S'update_tut'
p3543
sa(dp3544
g3464
S'/Users/keshav/Desktop/web2py/gluon/dal.py'
p3545
sg3466
(dp3546
S'table._id'
p3547
S'<gluon.dal.Field object at 0x1013f7710>'
p3548
sS'builtinTrue'
p3549
g1887
sS'ignore_common_filters'
p3550
g3507
sS'table._db'
p3551
S'<DAL uri="sqlite://storage.sqlite">'
p3552
sS'newfields'
p3553
g21
sS').update'
p3554
g3507
sS'table'
p3555
S'<Table auth_user (id,first_name,last_name,email,...stration_key,reset_password_key,registration_id)>'
p3556
sS'id'
p3557
S'1'
ssg3472
I8902
sg3473
(dp3558
I8897
S'        table = db[tablename]'
p3559
sI8898
S'        newfields = fields or dict(colset)'
p3560
sI8899
S'        for fieldname in newfields.keys():'
p3561
sI8900
S"            if not fieldname in table.fields or table[fieldname].type=='id':"
p3562
sI8901
S'                del newfields[fieldname]'
p3563
sI8902
S'        table._db(table._id==id,ignore_common_filters=True).update(**newfields)'
p3564
sI8903
S'        colset.update(newfields)'
p3565
sI8904
S'        return colset'
p3566
sI8905
S''
sI8906
S'class RecordDeleter(object):'
p3567
ssg3485
S'(self=<gluon.dal.RecordUpdater object at 0x1013d6f50>, **fields={})'
p3568
sg3487
S'__call__'
p3569
sa(dp3570
g3464
S'/Users/keshav/Desktop/web2py/gluon/dal.py'
p3571
sg3466
(dp3572
S'builtinSyntaxError'
p3573
S"<type 'exceptions.SyntaxError'>"
p3574
ssg3472
I8811
sg3473
(dp3575
I8806
S'        table._attempt_upload(update_fields)'
p3576
sI8807
S'        if any(f(self,update_fields) for f in table._before_update):'
p3577
sI8808
S'            return 0'
p3578
sI8809
S'        fields = table._listify(update_fields,update=True)'
p3579
sI8810
S'        if not fields:'
p3580
sI8811
S'            raise SyntaxError, "No fields to update"'
p3581
sI8812
S'        ret = db._adapter.update(tablename,self.query,fields)'
p3582
sI8813
S'        ret and [f(self,update_fields) for f in table._after_update]'
p3583
sI8814
S'        return ret'
p3584
sI8815
S''
ssg3485
S'(self=<Set (auth_user.id = 1)>, **update_fields={})'
p3585
sg3487
S'update'
p3586
sasS'pyver'
p3587
S'Python 2.6.1: /usr/bin/python'
p3588
sS'session'
p3589
g69
(g70
g71
NtRp3590
(dp3591
g74
(dp3592
sg76
(lp3593
g69
(g78
g71
NtRp3594
(dp3595
g74
(dp3596
g82
I5
ssg83
Nsg76
(lp3597
g69
(g85
g71
NtRp3598
(dp3599
g74
(dp3600
sg83
g3594
sg76
(lp3601
g69
(g90
g71
NtRp3602
(dp3603
g74
(dp3604
g94
g95
ssg83
g3598
sg76
(lp3605
S'auth'
p3606
asbag69
(g90
g71
NtRp3607
(dp3608
g74
(dp3609
g101
g102
ssg83
g3598
sg76
(lp3610
S':'
asbag69
(g90
g71
NtRp3611
(dp3612
g74
(dp3613
sg83
g3598
sg76
(lp3614
g69
(g70
g71
NtRp3615
(dp3616
g74
(dp3617
g82
I5
ssg83
g3611
sg76
(lp3618
g69
(g78
g71
NtRp3619
(dp3620
g74
(dp3621
g82
I4
ssg83
Nsg76
(lp3622
g69
(g85
g71
NtRp3623
(dp3624
g74
(dp3625
sg83
g3619
sg76
(lp3626
g69
(g90
g71
NtRp3627
(dp3628
g74
(dp3629
g94
g95
ssg83
g3623
sg76
(lp3630
S'expiration'
p3631
asbag69
(g90
g71
NtRp3632
(dp3633
g74
(dp3634
g101
g102
ssg83
g3623
sg76
(lp3635
S':'
asbag69
(g90
g71
NtRp3636
(dp3637
g74
(dp3638
sg83
g3623
sg76
(lp3639
g69
(g70
g71
NtRp3640
(dp3641
g74
(dp3642
g82
I4
ssg83
g3636
sg76
(lp3643
S'3600'
p3644
asbasbasbag69
(g85
g71
NtRp3645
(dp3646
g74
(dp3647
sg83
g3619
sg76
(lp3648
g69
(g90
g71
NtRp3649
(dp3650
g74
(dp3651
g94
g95
ssg83
g3645
sg76
(lp3652
S'hmac_key'
p3653
asbag69
(g90
g71
NtRp3654
(dp3655
g74
(dp3656
g101
g102
ssg83
g3645
sg76
(lp3657
S':'
asbag69
(g90
g71
NtRp3658
(dp3659
g74
(dp3660
sg83
g3645
sg76
(lp3661
g69
(g70
g71
NtRp3662
(dp3663
g74
(dp3664
g82
I4
ssg83
g3658
sg76
(lp3665
S'8d92ed6f-02cb-4e58-9471-e7e2eb9138ba'
p3666
asbasbasbag69
(g85
g71
NtRp3667
(dp3668
g74
(dp3669
sg83
g3619
sg76
(lp3670
g69
(g90
g71
NtRp3671
(dp3672
g74
(dp3673
g94
g95
ssg83
g3667
sg76
(lp3674
S'last_visit'
p3675
asbag69
(g90
g71
NtRp3676
(dp3677
g74
(dp3678
g101
g102
ssg83
g3667
sg76
(lp3679
S':'
asbag69
(g90
g71
NtRp3680
(dp3681
g74
(dp3682
sg83
g3667
sg76
(lp3683
g69
(g70
g71
NtRp3684
(dp3685
g74
(dp3686
g82
I4
ssg83
g3680
sg76
(lp3687
S'datetime.datetime(2012, 11, 7, 22, 38, 10, 879953)'
p3688
asbasbasbag69
(g85
g71
NtRp3689
(dp3690
g74
(dp3691
sg83
g3619
sg76
(lp3692
g69
(g90
g71
NtRp3693
(dp3694
g74
(dp3695
g94
g95
ssg83
g3689
sg76
(lp3696
S'remember'
p3697
asbag69
(g90
g71
NtRp3698
(dp3699
g74
(dp3700
g101
g102
ssg83
g3689
sg76
(lp3701
S':'
asbag69
(g90
g71
NtRp3702
(dp3703
g74
(dp3704
sg83
g3689
sg76
(lp3705
g69
(g70
g71
NtRp3706
(dp3707
g74
(dp3708
g82
I4
ssg83
g3702
sg76
(lp3709
g112
asbasbasbag69
(g85
g71
NtRp3710
(dp3711
g74
(dp3712
sg83
g3619
sg76
(lp3713
g69
(g90
g71
NtRp3714
(dp3715
g74
(dp3716
g94
g95
ssg83
g3710
sg76
(lp3717
S'user'
p3718
asbag69
(g90
g71
NtRp3719
(dp3720
g74
(dp3721
g101
g102
ssg83
g3710
sg76
(lp3722
S':'
asbag69
(g90
g71
NtRp3723
(dp3724
g74
(dp3725
sg83
g3710
sg76
(lp3726
g69
(g70
g71
NtRp3727
(dp3728
g74
(dp3729
g82
I4
ssg83
g3723
sg76
(lp3730
g69
(g78
g71
NtRp3731
(dp3732
g74
(dp3733
g82
I3
ssg83
Nsg76
(lp3734
g69
(g85
g71
NtRp3735
(dp3736
g74
(dp3737
sg83
g3731
sg76
(lp3738
g69
(g90
g71
NtRp3739
(dp3740
g74
(dp3741
g94
g95
ssg83
g3735
sg76
(lp3742
S'email'
p3743
asbag69
(g90
g71
NtRp3744
(dp3745
g74
(dp3746
g101
g102
ssg83
g3735
sg76
(lp3747
S':'
asbag69
(g90
g71
NtRp3748
(dp3749
g74
(dp3750
sg83
g3735
sg76
(lp3751
g69
(g70
g71
NtRp3752
(dp3753
g74
(dp3754
g82
I3
ssg83
g3748
sg76
(lp3755
S'kc00986@gmail.com'
p3756
asbasbasbag69
(g85
g71
NtRp3757
(dp3758
g74
(dp3759
sg83
g3731
sg76
(lp3760
g69
(g90
g71
NtRp3761
(dp3762
g74
(dp3763
g94
g95
ssg83
g3757
sg76
(lp3764
S'first_name'
p3765
asbag69
(g90
g71
NtRp3766
(dp3767
g74
(dp3768
g101
g102
ssg83
g3757
sg76
(lp3769
S':'
asbag69
(g90
g71
NtRp3770
(dp3771
g74
(dp3772
sg83
g3757
sg76
(lp3773
g69
(g70
g71
NtRp3774
(dp3775
g74
(dp3776
g82
I3
ssg83
g3770
sg76
(lp3777
S'Keshav'
p3778
asbasbasbag69
(g85
g71
NtRp3779
(dp3780
g74
(dp3781
sg83
g3731
sg76
(lp3782
g69
(g90
g71
NtRp3783
(dp3784
g74
(dp3785
g94
g95
ssg83
g3779
sg76
(lp3786
S'id'
p3787
asbag69
(g90
g71
NtRp3788
(dp3789
g74
(dp3790
g101
g102
ssg83
g3779
sg76
(lp3791
S':'
asbag69
(g90
g71
NtRp3792
(dp3793
g74
(dp3794
sg83
g3779
sg76
(lp3795
g69
(g70
g71
NtRp3796
(dp3797
g74
(dp3798
g82
I3
ssg83
g3792
sg76
(lp3799
S'1'
asbasbasbag69
(g85
g71
NtRp3800
(dp3801
g74
(dp3802
sg83
g3731
sg76
(lp3803
g69
(g90
g71
NtRp3804
(dp3805
g74
(dp3806
g94
g95
ssg83
g3800
sg76
(lp3807
S'last_name'
p3808
asbag69
(g90
g71
NtRp3809
(dp3810
g74
(dp3811
g101
g102
ssg83
g3800
sg76
(lp3812
S':'
asbag69
(g90
g71
NtRp3813
(dp3814
g74
(dp3815
sg83
g3800
sg76
(lp3816
g69
(g70
g71
NtRp3817
(dp3818
g74
(dp3819
g82
I3
ssg83
g3813
sg76
(lp3820
S'Choudhary'
p3821
asbasbasbag69
(g85
g71
NtRp3822
(dp3823
g74
(dp3824
sg83
g3731
sg76
(lp3825
g69
(g90
g71
NtRp3826
(dp3827
g74
(dp3828
g94
g95
ssg83
g3822
sg76
(lp3829
S'registration_id'
p3830
asbag69
(g90
g71
NtRp3831
(dp3832
g74
(dp3833
g101
g102
ssg83
g3822
sg76
(lp3834
S':'
asbag69
(g90
g71
NtRp3835
(dp3836
g74
(dp3837
sg83
g3822
sg76
(lp3838
g69
(g70
g71
NtRp3839
(dp3840
g74
(dp3841
g82
I3
ssg83
g3835
sg76
(lp3842
S''
asbasbasbag69
(g85
g71
NtRp3843
(dp3844
g74
(dp3845
sg83
g3731
sg76
(lp3846
g69
(g90
g71
NtRp3847
(dp3848
g74
(dp3849
g94
g95
ssg83
g3843
sg76
(lp3850
S'registration_key'
p3851
asbag69
(g90
g71
NtRp3852
(dp3853
g74
(dp3854
g101
g102
ssg83
g3843
sg76
(lp3855
S':'
asbag69
(g90
g71
NtRp3856
(dp3857
g74
(dp3858
sg83
g3843
sg76
(lp3859
g69
(g70
g71
NtRp3860
(dp3861
g74
(dp3862
g82
I3
ssg83
g3856
sg76
(lp3863
S''
asbasbasbag69
(g85
g71
NtRp3864
(dp3865
g74
(dp3866
sg83
g3731
sg76
(lp3867
g69
(g90
g71
NtRp3868
(dp3869
g74
(dp3870
g94
g95
ssg83
g3864
sg76
(lp3871
S'reset_password_key'
p3872
asbag69
(g90
g71
NtRp3873
(dp3874
g74
(dp3875
g101
g102
ssg83
g3864
sg76
(lp3876
S':'
asbag69
(g90
g71
NtRp3877
(dp3878
g74
(dp3879
sg83
g3864
sg76
(lp3880
g69
(g70
g71
NtRp3881
(dp3882
g74
(dp3883
g82
I3
ssg83
g3877
sg76
(lp3884
S''
asbasbasbasbasbasbasbag69
(g85
g71
NtRp3885
(dp3886
g74
(dp3887
sg83
g3619
sg76
(lp3888
g69
(g90
g71
NtRp3889
(dp3890
g74
(dp3891
g94
g95
ssg83
g3885
sg76
(lp3892
S'user_groups'
p3893
asbag69
(g90
g71
NtRp3894
(dp3895
g74
(dp3896
g101
g102
ssg83
g3885
sg76
(lp3897
S':'
asbag69
(g90
g71
NtRp3898
(dp3899
g74
(dp3900
sg83
g3885
sg76
(lp3901
g69
(g70
g71
NtRp3902
(dp3903
g74
(dp3904
g82
I4
ssg83
g3898
sg76
(lp3905
g69
(g78
g71
NtRp3906
(dp3907
g74
(dp3908
g82
I3
ssg83
Nsg76
(lp3909
g69
(g85
g71
NtRp3910
(dp3911
g74
(dp3912
sg83
g3906
sg76
(lp3913
g69
(g90
g71
NtRp3914
(dp3915
g74
(dp3916
g94
g95
ssg83
g3910
sg76
(lp3917
S'1'
asbag69
(g90
g71
NtRp3918
(dp3919
g74
(dp3920
g101
g102
ssg83
g3910
sg76
(lp3921
S':'
asbag69
(g90
g71
NtRp3922
(dp3923
g74
(dp3924
sg83
g3910
sg76
(lp3925
g69
(g70
g71
NtRp3926
(dp3927
g74
(dp3928
g82
I3
ssg83
g3922
sg76
(lp3929
S'user_1'
p3930
asbasbasbasbasbasbasbasbasbasbasbag69
(g85
g71
NtRp3931
(dp3932
g74
(dp3933
sg83
g3594
sg76
(lp3934
g69
(g90
g71
NtRp3935
(dp3936
g74
(dp3937
g94
g95
ssg83
g3931
sg76
(lp3938
S'flash'
p3939
asbag69
(g90
g71
NtRp3940
(dp3941
g74
(dp3942
g101
g102
ssg83
g3931
sg76
(lp3943
S':'
asbag69
(g90
g71
NtRp3944
(dp3945
g74
(dp3946
sg83
g3931
sg76
(lp3947
g69
(g70
g71
NtRp3948
(dp3949
g74
(dp3950
g82
I5
ssg83
g3944
sg76
(lp3951
S'None'
p3952
asbasbasbag69
(g85
g71
NtRp3953
(dp3954
g74
(dp3955
sg83
g3594
sg76
(lp3956
g69
(g90
g71
NtRp3957
(dp3958
g74
(dp3959
g94
g95
ssg83
g3953
sg76
(lp3960
S'last_orderby'
p3961
asbag69
(g90
g71
NtRp3962
(dp3963
g74
(dp3964
g101
g102
ssg83
g3953
sg76
(lp3965
S':'
asbag69
(g90
g71
NtRp3966
(dp3967
g74
(dp3968
sg83
g3953
sg76
(lp3969
g69
(g70
g71
NtRp3970
(dp3971
g74
(dp3972
g82
I5
ssg83
g3966
sg76
(lp3973
S'None'
p3974
asbasbasbag69
(g85
g71
NtRp3975
(dp3976
g74
(dp3977
sg83
g3594
sg76
(lp3978
g69
(g90
g71
NtRp3979
(dp3980
g74
(dp3981
g94
g95
ssg83
g3975
sg76
(lp3982
S'last_query'
p3983
asbag69
(g90
g71
NtRp3984
(dp3985
g74
(dp3986
g101
g102
ssg83
g3975
sg76
(lp3987
S':'
asbag69
(g90
g71
NtRp3988
(dp3989
g74
(dp3990
sg83
g3975
sg76
(lp3991
g69
(g70
g71
NtRp3992
(dp3993
g74
(dp3994
g82
I5
ssg83
g3988
sg76
(lp3995
S'db.auth_user.id>0'
p3996
asbasbasbasbasbsS'etype'
p3997
S"<type 'exceptions.SyntaxError'>"
p3998
sS'date'
p3999
S'Wed Nov  7 22:38:14 2012'
p4000
sS'response'
p4001
g69
(g70
g71
NtRp4002
(dp4003
g74
(dp4004
sg76
(lp4005
g69
(g78
g71
NtRp4006
(dp4007
g74
(dp4008
g82
I5
ssg83
Nsg76
(lp4009
g69
(g85
g71
NtRp4010
(dp4011
g74
(dp4012
sg83
g4006
sg76
(lp4013
g69
(g90
g71
NtRp4014
(dp4015
g74
(dp4016
g94
g95
ssg83
g4010
sg76
(lp4017
g167
asbag69
(g90
g71
NtRp4018
(dp4019
g74
(dp4020
g101
g102
ssg83
g4010
sg76
(lp4021
S':'
asbag69
(g90
g71
NtRp4022
(dp4023
g74
(dp4024
sg83
g4010
sg76
(lp4025
g69
(g70
g71
NtRp4026
(dp4027
g74
(dp4028
g82
I5
ssg83
g4022
sg76
(lp4029
S'<cStringIO.StringO object at 0x118560538>'
p4030
asbasbasbag69
(g85
g71
NtRp4031
(dp4032
g74
(dp4033
sg83
g4006
sg76
(lp4034
g69
(g90
g71
NtRp4035
(dp4036
g74
(dp4037
g94
g95
ssg83
g4031
sg76
(lp4038
g255
asbag69
(g90
g71
NtRp4039
(dp4040
g74
(dp4041
g101
g102
ssg83
g4031
sg76
(lp4042
S':'
asbag69
(g90
g71
NtRp4043
(dp4044
g74
(dp4045
sg83
g4031
sg76
(lp4046
g69
(g70
g71
NtRp4047
(dp4048
g74
(dp4049
g82
I5
ssg83
g4043
sg76
(lp4050
g69
(g78
g71
NtRp4051
(dp4052
g74
(dp4053
g82
I4
ssg83
Nsg76
(lp4054
g69
(g85
g71
NtRp4055
(dp4056
g74
(dp4057
sg83
g4051
sg76
(lp4058
g69
(g90
g71
NtRp4059
(dp4060
g74
(dp4061
g94
g95
ssg83
g4055
sg76
(lp4062
S'session_id_myapp'
p4063
asbag69
(g90
g71
NtRp4064
(dp4065
g74
(dp4066
g101
g102
ssg83
g4055
sg76
(lp4067
S':'
asbag69
(g90
g71
NtRp4068
(dp4069
g74
(dp4070
sg83
g4055
sg76
(lp4071
g69
(g70
g71
NtRp4072
(dp4073
g74
(dp4074
g82
I4
ssg83
g4068
sg76
(lp4075
g487
ag69
(g78
g71
NtRp4076
(dp4077
g74
(dp4078
g82
I3
ssg83
Nsg76
(lp4079
g69
(g85
g71
NtRp4080
(dp4081
g74
(dp4082
sg83
g4076
sg76
(lp4083
g69
(g90
g71
NtRp4084
(dp4085
g74
(dp4086
g94
g95
ssg83
g4080
sg76
(lp4087
g306
asbag69
(g90
g71
NtRp4088
(dp4089
g74
(dp4090
g101
g102
ssg83
g4080
sg76
(lp4091
S':'
asbag69
(g90
g71
NtRp4092
(dp4093
g74
(dp4094
sg83
g4080
sg76
(lp4095
g69
(g70
g71
NtRp4096
(dp4097
g74
(dp4098
g82
I3
ssg83
g4092
sg76
(lp4099
S''
asbasbasbag69
(g85
g71
NtRp4100
(dp4101
g74
(dp4102
sg83
g4076
sg76
(lp4103
g69
(g90
g71
NtRp4104
(dp4105
g74
(dp4106
g94
g95
ssg83
g4100
sg76
(lp4107
g327
asbag69
(g90
g71
NtRp4108
(dp4109
g74
(dp4110
g101
g102
ssg83
g4100
sg76
(lp4111
S':'
asbag69
(g90
g71
NtRp4112
(dp4113
g74
(dp4114
sg83
g4100
sg76
(lp4115
g69
(g70
g71
NtRp4116
(dp4117
g74
(dp4118
g82
I3
ssg83
g4112
sg76
(lp4119
S''
asbasbasbag69
(g85
g71
NtRp4120
(dp4121
g74
(dp4122
sg83
g4076
sg76
(lp4123
g69
(g90
g71
NtRp4124
(dp4125
g74
(dp4126
g94
g95
ssg83
g4120
sg76
(lp4127
g348
asbag69
(g90
g71
NtRp4128
(dp4129
g74
(dp4130
g101
g102
ssg83
g4120
sg76
(lp4131
S':'
asbag69
(g90
g71
NtRp4132
(dp4133
g74
(dp4134
sg83
g4120
sg76
(lp4135
g69
(g70
g71
NtRp4136
(dp4137
g74
(dp4138
g82
I3
ssg83
g4132
sg76
(lp4139
S''
asbasbasbag69
(g85
g71
NtRp4140
(dp4141
g74
(dp4142
sg83
g4076
sg76
(lp4143
g69
(g90
g71
NtRp4144
(dp4145
g74
(dp4146
g94
g95
ssg83
g4140
sg76
(lp4147
g369
asbag69
(g90
g71
NtRp4148
(dp4149
g74
(dp4150
g101
g102
ssg83
g4140
sg76
(lp4151
S':'
asbag69
(g90
g71
NtRp4152
(dp4153
g74
(dp4154
sg83
g4140
sg76
(lp4155
g69
(g70
g71
NtRp4156
(dp4157
g74
(dp4158
g82
I3
ssg83
g4152
sg76
(lp4159
S''
asbasbasbag69
(g85
g71
NtRp4160
(dp4161
g74
(dp4162
sg83
g4076
sg76
(lp4163
g69
(g90
g71
NtRp4164
(dp4165
g74
(dp4166
g94
g95
ssg83
g4160
sg76
(lp4167
g390
asbag69
(g90
g71
NtRp4168
(dp4169
g74
(dp4170
g101
g102
ssg83
g4160
sg76
(lp4171
S':'
asbag69
(g90
g71
NtRp4172
(dp4173
g74
(dp4174
sg83
g4160
sg76
(lp4175
g69
(g70
g71
NtRp4176
(dp4177
g74
(dp4178
g82
I3
ssg83
g4172
sg76
(lp4179
S''
asbasbasbag69
(g85
g71
NtRp4180
(dp4181
g74
(dp4182
sg83
g4076
sg76
(lp4183
g69
(g90
g71
NtRp4184
(dp4185
g74
(dp4186
g94
g95
ssg83
g4180
sg76
(lp4187
g411
asbag69
(g90
g71
NtRp4188
(dp4189
g74
(dp4190
g101
g102
ssg83
g4180
sg76
(lp4191
S':'
asbag69
(g90
g71
NtRp4192
(dp4193
g74
(dp4194
sg83
g4180
sg76
(lp4195
g69
(g70
g71
NtRp4196
(dp4197
g74
(dp4198
g82
I3
ssg83
g4192
sg76
(lp4199
S'/'
asbasbasbag69
(g85
g71
NtRp4200
(dp4201
g74
(dp4202
sg83
g4076
sg76
(lp4203
g69
(g90
g71
NtRp4204
(dp4205
g74
(dp4206
g94
g95
ssg83
g4200
sg76
(lp4207
g432
asbag69
(g90
g71
NtRp4208
(dp4209
g74
(dp4210
g101
g102
ssg83
g4200
sg76
(lp4211
S':'
asbag69
(g90
g71
NtRp4212
(dp4213
g74
(dp4214
sg83
g4200
sg76
(lp4215
g69
(g70
g71
NtRp4216
(dp4217
g74
(dp4218
g82
I3
ssg83
g4212
sg76
(lp4219
S''
asbasbasbag69
(g85
g71
NtRp4220
(dp4221
g74
(dp4222
sg83
g4076
sg76
(lp4223
g69
(g90
g71
NtRp4224
(dp4225
g74
(dp4226
g94
g95
ssg83
g4220
sg76
(lp4227
g453
asbag69
(g90
g71
NtRp4228
(dp4229
g74
(dp4230
g101
g102
ssg83
g4220
sg76
(lp4231
S':'
asbag69
(g90
g71
NtRp4232
(dp4233
g74
(dp4234
sg83
g4220
sg76
(lp4235
g69
(g70
g71
NtRp4236
(dp4237
g74
(dp4238
g82
I3
ssg83
g4232
sg76
(lp4239
S''
asbasbasbasbasbasbasbasbasbasbasbag69
(g85
g71
NtRp4240
(dp4241
g74
(dp4242
sg83
g4006
sg76
(lp4243
g69
(g90
g71
NtRp4244
(dp4245
g74
(dp4246
g94
g95
ssg83
g4240
sg76
(lp4247
S'delimiters'
p4248
asbag69
(g90
g71
NtRp4249
(dp4250
g74
(dp4251
g101
g102
ssg83
g4240
sg76
(lp4252
S':'
asbag69
(g90
g71
NtRp4253
(dp4254
g74
(dp4255
sg83
g4240
sg76
(lp4256
g69
(g70
g71
NtRp4257
(dp4258
g74
(dp4259
g82
I5
ssg83
g4253
sg76
(lp4260
g69
(g78
g71
NtRp4261
(dp4262
g74
(dp4263
g82
I4
ssg83
Nsg76
(lp4264
g69
(g85
g71
NtRp4265
(dp4266
g74
(dp4267
sg83
g4261
sg76
(lp4268
g69
(g90
g71
NtRp4269
(dp4270
g74
(dp4271
sg83
g4265
sg76
(lp4272
g69
(g70
g71
NtRp4273
(dp4274
g74
(dp4275
g82
I4
ssg83
g4269
sg76
(lp4276
S'{{'
p4277
asbasbasbag69
(g85
g71
NtRp4278
(dp4279
g74
(dp4280
sg83
g4261
sg76
(lp4281
g69
(g90
g71
NtRp4282
(dp4283
g74
(dp4284
sg83
g4278
sg76
(lp4285
g69
(g70
g71
NtRp4286
(dp4287
g74
(dp4288
g82
I4
ssg83
g4282
sg76
(lp4289
S'}}'
p4290
asbasbasbasbasbasbasbag69
(g85
g71
NtRp4291
(dp4292
g74
(dp4293
sg83
g4006
sg76
(lp4294
g69
(g90
g71
NtRp4295
(dp4296
g74
(dp4297
g94
g95
ssg83
g4291
sg76
(lp4298
S'files'
p4299
asbag69
(g90
g71
NtRp4300
(dp4301
g74
(dp4302
g101
g102
ssg83
g4291
sg76
(lp4303
S':'
asbag69
(g90
g71
NtRp4304
(dp4305
g74
(dp4306
sg83
g4291
sg76
(lp4307
g69
(g70
g71
NtRp4308
(dp4309
g74
(dp4310
g82
I5
ssg83
g4304
sg76
(lp4311
g69
(g78
g71
NtRp4312
(dp4313
g74
(dp4314
g82
I4
ssg83
Nsg76
(lp4315
sbasbasbasbag69
(g85
g71
NtRp4316
(dp4317
g74
(dp4318
sg83
g4006
sg76
(lp4319
g69
(g90
g71
NtRp4320
(dp4321
g74
(dp4322
g94
g95
ssg83
g4316
sg76
(lp4323
S'flash'
p4324
asbag69
(g90
g71
NtRp4325
(dp4326
g74
(dp4327
g101
g102
ssg83
g4316
sg76
(lp4328
S':'
asbag69
(g90
g71
NtRp4329
(dp4330
g74
(dp4331
sg83
g4316
sg76
(lp4332
g69
(g70
g71
NtRp4333
(dp4334
g74
(dp4335
g82
I5
ssg83
g4329
sg76
(lp4336
S''
asbasbasbag69
(g85
g71
NtRp4337
(dp4338
g74
(dp4339
sg83
g4006
sg76
(lp4340
g69
(g90
g71
NtRp4341
(dp4342
g74
(dp4343
g94
g95
ssg83
g4337
sg76
(lp4344
S'generic_patterns'
p4345
asbag69
(g90
g71
NtRp4346
(dp4347
g74
(dp4348
g101
g102
ssg83
g4337
sg76
(lp4349
S':'
asbag69
(g90
g71
NtRp4350
(dp4351
g74
(dp4352
sg83
g4337
sg76
(lp4353
g69
(g70
g71
NtRp4354
(dp4355
g74
(dp4356
g82
I5
ssg83
g4350
sg76
(lp4357
g69
(g78
g71
NtRp4358
(dp4359
g74
(dp4360
g82
I4
ssg83
Nsg76
(lp4361
g69
(g85
g71
NtRp4362
(dp4363
g74
(dp4364
sg83
g4358
sg76
(lp4365
g69
(g90
g71
NtRp4366
(dp4367
g74
(dp4368
sg83
g4362
sg76
(lp4369
g69
(g70
g71
NtRp4370
(dp4371
g74
(dp4372
g82
I4
ssg83
g4366
sg76
(lp4373
S'*'
asbasbasbasbasbasbasbag69
(g85
g71
NtRp4374
(dp4375
g74
(dp4376
sg83
g4006
sg76
(lp4377
g69
(g90
g71
NtRp4378
(dp4379
g74
(dp4380
g94
g95
ssg83
g4374
sg76
(lp4381
S'google_analytics_id'
p4382
asbag69
(g90
g71
NtRp4383
(dp4384
g74
(dp4385
g101
g102
ssg83
g4374
sg76
(lp4386
S':'
asbag69
(g90
g71
NtRp4387
(dp4388
g74
(dp4389
sg83
g4374
sg76
(lp4390
g69
(g70
g71
NtRp4391
(dp4392
g74
(dp4393
g82
I5
ssg83
g4387
sg76
(lp4394
S'None'
p4395
asbasbasbag69
(g85
g71
NtRp4396
(dp4397
g74
(dp4398
sg83
g4006
sg76
(lp4399
g69
(g90
g71
NtRp4400
(dp4401
g74
(dp4402
g94
g95
ssg83
g4396
sg76
(lp4403
S'headers'
p4404
asbag69
(g90
g71
NtRp4405
(dp4406
g74
(dp4407
g101
g102
ssg83
g4396
sg76
(lp4408
S':'
asbag69
(g90
g71
NtRp4409
(dp4410
g74
(dp4411
sg83
g4396
sg76
(lp4412
g69
(g70
g71
NtRp4413
(dp4414
g74
(dp4415
g82
I5
ssg83
g4409
sg76
(lp4416
g69
(g78
g71
NtRp4417
(dp4418
g74
(dp4419
g82
I4
ssg83
Nsg76
(lp4420
g69
(g85
g71
NtRp4421
(dp4422
g74
(dp4423
sg83
g4417
sg76
(lp4424
g69
(g90
g71
NtRp4425
(dp4426
g74
(dp4427
g94
g95
ssg83
g4421
sg76
(lp4428
S'X-Powered-By'
p4429
asbag69
(g90
g71
NtRp4430
(dp4431
g74
(dp4432
g101
g102
ssg83
g4421
sg76
(lp4433
S':'
asbag69
(g90
g71
NtRp4434
(dp4435
g74
(dp4436
sg83
g4421
sg76
(lp4437
g69
(g70
g71
NtRp4438
(dp4439
g74
(dp4440
g82
I4
ssg83
g4434
sg76
(lp4441
S'web2py'
p4442
asbasbasbasbasbasbasbag69
(g85
g71
NtRp4443
(dp4444
g74
(dp4445
sg83
g4006
sg76
(lp4446
g69
(g90
g71
NtRp4447
(dp4448
g74
(dp4449
g94
g95
ssg83
g4443
sg76
(lp4450
S'menu'
p4451
asbag69
(g90
g71
NtRp4452
(dp4453
g74
(dp4454
g101
g102
ssg83
g4443
sg76
(lp4455
S':'
asbag69
(g90
g71
NtRp4456
(dp4457
g74
(dp4458
sg83
g4443
sg76
(lp4459
g69
(g70
g71
NtRp4460
(dp4461
g74
(dp4462
g82
I5
ssg83
g4456
sg76
(lp4463
g69
(g78
g71
NtRp4464
(dp4465
g74
(dp4466
g82
I4
ssg83
Nsg76
(lp4467
g69
(g85
g71
NtRp4468
(dp4469
g74
(dp4470
sg83
g4464
sg76
(lp4471
g69
(g90
g71
NtRp4472
(dp4473
g74
(dp4474
sg83
g4468
sg76
(lp4475
g69
(g70
g71
NtRp4476
(dp4477
g74
(dp4478
g82
I4
ssg83
g4472
sg76
(lp4479
g69
(g78
g71
NtRp4480
(dp4481
g74
(dp4482
g82
I3
ssg83
Nsg76
(lp4483
g69
(g85
g71
NtRp4484
(dp4485
g74
(dp4486
sg83
g4480
sg76
(lp4487
g69
(g90
g71
NtRp4488
(dp4489
g74
(dp4490
sg83
g4484
sg76
(lp4491
g69
(g70
g71
NtRp4492
(dp4493
g74
(dp4494
g82
I3
ssg83
g4488
sg76
(lp4495
cgluon.languages
lazyT_unpickle
p4496
(S's\x04\x00\x00\x00Home'
tRp4497
asbasbasbag69
(g85
g71
NtRp4498
(dp4499
g74
(dp4500
sg83
g4480
sg76
(lp4501
g69
(g90
g71
NtRp4502
(dp4503
g74
(dp4504
sg83
g4498
sg76
(lp4505
g69
(g70
g71
NtRp4506
(dp4507
g74
(dp4508
g82
I3
ssg83
g4502
sg76
(lp4509
g112
asbasbasbag69
(g85
g71
NtRp4510
(dp4511
g74
(dp4512
sg83
g4480
sg76
(lp4513
g69
(g90
g71
NtRp4514
(dp4515
g74
(dp4516
sg83
g4510
sg76
(lp4517
g69
(g70
g71
NtRp4518
(dp4519
g74
(dp4520
g82
I3
ssg83
g4514
sg76
(lp4521
S'/MyApp/default/index'
p4522
asbasbasbag69
(g85
g71
NtRp4523
(dp4524
g74
(dp4525
sg83
g4480
sg76
(lp4526
g69
(g90
g71
NtRp4527
(dp4528
g74
(dp4529
sg83
g4523
sg76
(lp4530
g69
(g70
g71
NtRp4531
(dp4532
g74
(dp4533
g82
I3
ssg83
g4527
sg76
(lp4534
g69
(g78
g71
NtRp4535
(dp4536
g74
(dp4537
g82
I2
ssg83
Nsg76
(lp4538
sbasbasbasbasbasbasbasbag69
(g85
g71
NtRp4539
(dp4540
g74
(dp4541
sg83
g4464
sg76
(lp4542
g69
(g90
g71
NtRp4543
(dp4544
g74
(dp4545
sg83
g4539
sg76
(lp4546
g69
(g70
g71
NtRp4547
(dp4548
g74
(dp4549
g82
I4
ssg83
g4543
sg76
(lp4550
g69
(g78
g71
NtRp4551
(dp4552
g74
(dp4553
g82
I3
ssg83
Nsg76
(lp4554
g69
(g85
g71
NtRp4555
(dp4556
g74
(dp4557
sg83
g4551
sg76
(lp4558
g69
(g90
g71
NtRp4559
(dp4560
g74
(dp4561
sg83
g4555
sg76
(lp4562
g69
(g70
g71
NtRp4563
(dp4564
g74
(dp4565
g82
I3
ssg83
g4559
sg76
(lp4566
g69
(cgluon.html
SPAN
p4567
g71
NtRp4568
(dp4569
g74
(dp4570
S'_class'
p4571
S'highlighted'
p4572
ssg83
Nsg76
(lp4573
g4442
asbasbasbasbag69
(g85
g71
NtRp4574
(dp4575
g74
(dp4576
sg83
g4551
sg76
(lp4577
g69
(g90
g71
NtRp4578
(dp4579
g74
(dp4580
sg83
g4574
sg76
(lp4581
g69
(g70
g71
NtRp4582
(dp4583
g74
(dp4584
g82
I3
ssg83
g4578
sg76
(lp4585
g112
asbasbasbag69
(g85
g71
NtRp4586
(dp4587
g74
(dp4588
sg83
g4551
sg76
(lp4589
g69
(g90
g71
NtRp4590
(dp4591
g74
(dp4592
sg83
g4586
sg76
(lp4593
g69
(g70
g71
NtRp4594
(dp4595
g74
(dp4596
g82
I3
ssg83
g4590
sg76
(lp4597
S'http://web2py.com'
p4598
asbasbasbag69
(g85
g71
NtRp4599
(dp4600
g74
(dp4601
sg83
g4551
sg76
(lp4602
g69
(g90
g71
NtRp4603
(dp4604
g74
(dp4605
sg83
g4599
sg76
(lp4606
g69
(g70
g71
NtRp4607
(dp4608
g74
(dp4609
g82
I3
ssg83
g4603
sg76
(lp4610
g69
(g78
g71
NtRp4611
(dp4612
g74
(dp4613
g82
I2
ssg83
Nsg76
(lp4614
g69
(g85
g71
NtRp4615
(dp4616
g74
(dp4617
sg83
g4611
sg76
(lp4618
g69
(g90
g71
NtRp4619
(dp4620
g74
(dp4621
sg83
g4615
sg76
(lp4622
g69
(g70
g71
NtRp4623
(dp4624
g74
(dp4625
g82
I2
ssg83
g4619
sg76
(lp4626
g69
(g78
g71
NtRp4627
(dp4628
g74
(dp4629
g82
I1
ssg83
Nsg76
(lp4630
g69
(g85
g71
NtRp4631
(dp4632
g74
(dp4633
sg83
g4627
sg76
(lp4634
g69
(g90
g71
NtRp4635
(dp4636
g74
(dp4637
sg83
g4631
sg76
(lp4638
g69
(g70
g71
NtRp4639
(dp4640
g74
(dp4641
g82
I1
ssg83
g4635
sg76
(lp4642
g4496
(S's\x08\x00\x00\x00My Sites'
tRp4643
asbasbasbag69
(g85
g71
NtRp4644
(dp4645
g74
(dp4646
sg83
g4627
sg76
(lp4647
g69
(g90
g71
NtRp4648
(dp4649
g74
(dp4650
sg83
g4644
sg76
(lp4651
g69
(g70
g71
NtRp4652
(dp4653
g74
(dp4654
g82
I1
ssg83
g4648
sg76
(lp4655
I00
asbasbasbag69
(g85
g71
NtRp4656
(dp4657
g74
(dp4658
sg83
g4627
sg76
(lp4659
g69
(g90
g71
NtRp4660
(dp4661
g74
(dp4662
sg83
g4656
sg76
(lp4663
g69
(g70
g71
NtRp4664
(dp4665
g74
(dp4666
g82
I1
ssg83
g4660
sg76
(lp4667
S'/admin/default/site'
p4668
asbasbasbasbasbasbasbag69
(g85
g71
NtRp4669
(dp4670
g74
(dp4671
sg83
g4611
sg76
(lp4672
g69
(g90
g71
NtRp4673
(dp4674
g74
(dp4675
sg83
g4669
sg76
(lp4676
g69
(g70
g71
NtRp4677
(dp4678
g74
(dp4679
g82
I2
ssg83
g4673
sg76
(lp4680
g69
(g78
g71
NtRp4681
(dp4682
g74
(dp4683
g82
I1
ssg83
Nsg76
(lp4684
g69
(g85
g71
NtRp4685
(dp4686
g74
(dp4687
sg83
g4681
sg76
(lp4688
g69
(g90
g71
NtRp4689
(dp4690
g74
(dp4691
sg83
g4685
sg76
(lp4692
g69
(g70
g71
NtRp4693
(dp4694
g74
(dp4695
g82
I1
ssg83
g4689
sg76
(lp4696
g4496
(S's\x08\x00\x00\x00This App'
tRp4697
asbasbasbag69
(g85
g71
NtRp4698
(dp4699
g74
(dp4700
sg83
g4681
sg76
(lp4701
g69
(g90
g71
NtRp4702
(dp4703
g74
(dp4704
sg83
g4698
sg76
(lp4705
g69
(g70
g71
NtRp4706
(dp4707
g74
(dp4708
g82
I1
ssg83
g4702
sg76
(lp4709
I00
asbasbasbag69
(g85
g71
NtRp4710
(dp4711
g74
(dp4712
sg83
g4681
sg76
(lp4713
g69
(g90
g71
NtRp4714
(dp4715
g74
(dp4716
sg83
g4710
sg76
(lp4717
g69
(g70
g71
NtRp4718
(dp4719
g74
(dp4720
g82
I1
ssg83
g4714
sg76
(lp4721
S'/admin/default/design/MyApp'
p4722
asbasbasbag69
(g85
g71
NtRp4723
(dp4724
g74
(dp4725
sg83
g4681
sg76
(lp4726
g69
(g90
g71
NtRp4727
(dp4728
g74
(dp4729
sg83
g4723
sg76
(lp4730
g69
(g70
g71
NtRp4731
(dp4732
g74
(dp4733
g82
I1
ssg83
g4727
sg76
(lp4734
(lp4735
(g4496
(S's\n\x00\x00\x00Controller'
tRp4736
I00
S'/admin/default/edit/MyApp/controllers/default.py'
tp4737
a(g4496
(S's\x04\x00\x00\x00View'
tRp4738
I00
S'/admin/default/edit/MyApp/views/default/update_tut.html'
tp4739
a(g4496
(S's\x06\x00\x00\x00Layout'
tRp4740
I00
S'/admin/default/edit/MyApp/views/layout.html'
tp4741
a(g4496
(S's\n\x00\x00\x00Stylesheet'
tRp4742
I00
S'/admin/default/edit/MyApp/static/css/web2py.css'
tp4743
a(g4496
(S's\x08\x00\x00\x00DB Model'
tRp4744
I00
S'/admin/default/edit/MyApp/models/db.py'
tp4745
a(g4496
(S's\n\x00\x00\x00Menu Model'
tRp4746
I00
S'/admin/default/edit/MyApp/models/menu.py'
tp4747
a(g4496
(S's\x08\x00\x00\x00Database'
tRp4748
I00
S'/MyApp/appadmin/index'
tp4749
a(g4496
(S's\x06\x00\x00\x00Errors'
tRp4750
I00
S'/admin/default/errors/MyApp'
tp4751
a(g4496
(S's\x05\x00\x00\x00About'
tRp4752
I00
S'/admin/default/about/MyApp'
tp4753
aasbasbasbasbasbasbasbag69
(g85
g71
NtRp4754
(dp4755
g74
(dp4756
sg83
g4611
sg76
(lp4757
g69
(g90
g71
NtRp4758
(dp4759
g74
(dp4760
sg83
g4754
sg76
(lp4761
g69
(g70
g71
NtRp4762
(dp4763
g74
(dp4764
g82
I2
ssg83
g4758
sg76
(lp4765
g69
(g78
g71
NtRp4766
(dp4767
g74
(dp4768
g82
I1
ssg83
Nsg76
(lp4769
g69
(g85
g71
NtRp4770
(dp4771
g74
(dp4772
sg83
g4766
sg76
(lp4773
g69
(g90
g71
NtRp4774
(dp4775
g74
(dp4776
sg83
g4770
sg76
(lp4777
g69
(g70
g71
NtRp4778
(dp4779
g74
(dp4780
g82
I1
ssg83
g4774
sg76
(lp4781
S'web2py.com'
p4782
asbasbasbag69
(g85
g71
NtRp4783
(dp4784
g74
(dp4785
sg83
g4766
sg76
(lp4786
g69
(g90
g71
NtRp4787
(dp4788
g74
(dp4789
sg83
g4783
sg76
(lp4790
g69
(g70
g71
NtRp4791
(dp4792
g74
(dp4793
g82
I1
ssg83
g4787
sg76
(lp4794
I00
asbasbasbag69
(g85
g71
NtRp4795
(dp4796
g74
(dp4797
sg83
g4766
sg76
(lp4798
g69
(g90
g71
NtRp4799
(dp4800
g74
(dp4801
sg83
g4795
sg76
(lp4802
g69
(g70
g71
NtRp4803
(dp4804
g74
(dp4805
g82
I1
ssg83
g4799
sg76
(lp4806
S'http://www.web2py.com'
p4807
asbasbasbag69
(g85
g71
NtRp4808
(dp4809
g74
(dp4810
sg83
g4766
sg76
(lp4811
g69
(g90
g71
NtRp4812
(dp4813
g74
(dp4814
sg83
g4808
sg76
(lp4815
g69
(g70
g71
NtRp4816
(dp4817
g74
(dp4818
g82
I1
ssg83
g4812
sg76
(lp4819
(lp4820
(g4496
(S's\x08\x00\x00\x00Download'
tRp4821
I00
S'http://www.web2py.com/examples/default/download'
p4822
tp4823
a(g4496
(S's\x07\x00\x00\x00Support'
tRp4824
I00
S'http://www.web2py.com/examples/default/support'
p4825
tp4826
a(g4496
(S's\x04\x00\x00\x00Demo'
tRp4827
I00
S'http://web2py.com/demo_admin'
p4828
tp4829
a(g4496
(S's\x0e\x00\x00\x00Quick Examples'
tRp4830
I00
S'http://web2py.com/examples/default/examples'
p4831
tp4832
a(g4496
(S's\x03\x00\x00\x00FAQ'
tRp4833
I00
S'http://web2py.com/AlterEgo'
p4834
tp4835
a(g4496
(S's\x06\x00\x00\x00Videos'
tRp4836
I00
S'http://www.web2py.com/examples/default/videos/'
p4837
tp4838
a(g4496
(S's\x11\x00\x00\x00Free Applications'
tRp4839
I00
S'http://web2py.com/appliances'
p4840
tp4841
a(g4496
(S's\x07\x00\x00\x00Plugins'
tRp4842
I00
S'http://web2py.com/plugins'
p4843
tp4844
a(g4496
(S's\x07\x00\x00\x00Layouts'
tRp4845
I00
S'http://web2py.com/layouts'
p4846
tp4847
a(g4496
(S's\x07\x00\x00\x00Recipes'
tRp4848
I00
S'http://web2pyslices.com/'
p4849
tp4850
a(g4496
(S's\x08\x00\x00\x00Semantic'
tRp4851
I00
S'http://web2py.com/semantic'
p4852
tp4853
aasbasbasbasbasbasbasbag69
(g85
g71
NtRp4854
(dp4855
g74
(dp4856
sg83
g4611
sg76
(lp4857
g69
(g90
g71
NtRp4858
(dp4859
g74
(dp4860
sg83
g4854
sg76
(lp4861
g69
(g70
g71
NtRp4862
(dp4863
g74
(dp4864
g82
I2
ssg83
g4858
sg76
(lp4865
g69
(g78
g71
NtRp4866
(dp4867
g74
(dp4868
g82
I1
ssg83
Nsg76
(lp4869
g69
(g85
g71
NtRp4870
(dp4871
g74
(dp4872
sg83
g4866
sg76
(lp4873
g69
(g90
g71
NtRp4874
(dp4875
g74
(dp4876
sg83
g4870
sg76
(lp4877
g69
(g70
g71
NtRp4878
(dp4879
g74
(dp4880
g82
I1
ssg83
g4874
sg76
(lp4881
g4496
(S's\r\x00\x00\x00Documentation'
tRp4882
asbasbasbag69
(g85
g71
NtRp4883
(dp4884
g74
(dp4885
sg83
g4866
sg76
(lp4886
g69
(g90
g71
NtRp4887
(dp4888
g74
(dp4889
sg83
g4883
sg76
(lp4890
g69
(g70
g71
NtRp4891
(dp4892
g74
(dp4893
g82
I1
ssg83
g4887
sg76
(lp4894
I00
asbasbasbag69
(g85
g71
NtRp4895
(dp4896
g74
(dp4897
sg83
g4866
sg76
(lp4898
g69
(g90
g71
NtRp4899
(dp4900
g74
(dp4901
sg83
g4895
sg76
(lp4902
g69
(g70
g71
NtRp4903
(dp4904
g74
(dp4905
g82
I1
ssg83
g4899
sg76
(lp4906
S'http://www.web2py.com/book'
p4907
asbasbasbag69
(g85
g71
NtRp4908
(dp4909
g74
(dp4910
sg83
g4866
sg76
(lp4911
g69
(g90
g71
NtRp4912
(dp4913
g74
(dp4914
sg83
g4908
sg76
(lp4915
g69
(g70
g71
NtRp4916
(dp4917
g74
(dp4918
g82
I1
ssg83
g4912
sg76
(lp4919
(lp4920
(g4496
(S's\x07\x00\x00\x00Preface'
tRp4921
I00
S'http://www.web2py.com/book/default/chapter/00'
p4922
tp4923
a(g4496
(S's\x0c\x00\x00\x00Introduction'
tRp4924
I00
S'http://www.web2py.com/book/default/chapter/01'
p4925
tp4926
a(g4496
(S's\x06\x00\x00\x00Python'
tRp4927
I00
S'http://www.web2py.com/book/default/chapter/02'
p4928
tp4929
a(g4496
(S's\x08\x00\x00\x00Overview'
tRp4930
I00
S'http://www.web2py.com/book/default/chapter/03'
p4931
tp4932
a(g4496
(S's\x08\x00\x00\x00The Core'
tRp4933
I00
S'http://www.web2py.com/book/default/chapter/04'
p4934
tp4935
a(g4496
(S's\t\x00\x00\x00The Views'
tRp4936
I00
S'http://www.web2py.com/book/default/chapter/05'
p4937
tp4938
a(g4496
(S's\x08\x00\x00\x00Database'
tRp4939
I00
S'http://www.web2py.com/book/default/chapter/06'
p4940
tp4941
a(g4496
(S's\x14\x00\x00\x00Forms and Validators'
tRp4942
I00
S'http://www.web2py.com/book/default/chapter/07'
p4943
tp4944
a(g4496
(S's\r\x00\x00\x00Email and SMS'
tRp4945
I00
S'http://www.web2py.com/book/default/chapter/08'
p4946
tp4947
a(g4496
(S's\x0e\x00\x00\x00Access Control'
tRp4948
I00
S'http://www.web2py.com/book/default/chapter/09'
p4949
tp4950
a(g4496
(S's\x08\x00\x00\x00Services'
tRp4951
I00
S'http://www.web2py.com/book/default/chapter/10'
p4952
tp4953
a(g4496
(S's\x0c\x00\x00\x00Ajax Recipes'
tRp4954
I00
S'http://www.web2py.com/book/default/chapter/11'
p4955
tp4956
a(g4496
(S's\x16\x00\x00\x00Components and Plugins'
tRp4957
I00
S'http://www.web2py.com/book/default/chapter/12'
p4958
tp4959
a(g4496
(S's\x12\x00\x00\x00Deployment Recipes'
tRp4960
I00
S'http://www.web2py.com/book/default/chapter/13'
p4961
tp4962
a(g4496
(S's\r\x00\x00\x00Other Recipes'
tRp4963
I00
S'http://www.web2py.com/book/default/chapter/14'
p4964
tp4965
a(g4496
(S's\r\x00\x00\x00Buy this book'
tRp4966
I00
S'http://stores.lulu.com/web2py'
p4967
tp4968
aasbasbasbasbasbasbasbag69
(g85
g71
NtRp4969
(dp4970
g74
(dp4971
sg83
g4611
sg76
(lp4972
g69
(g90
g71
NtRp4973
(dp4974
g74
(dp4975
sg83
g4969
sg76
(lp4976
g69
(g70
g71
NtRp4977
(dp4978
g74
(dp4979
g82
I2
ssg83
g4973
sg76
(lp4980
g69
(g78
g71
NtRp4981
(dp4982
g74
(dp4983
g82
I1
ssg83
Nsg76
(lp4984
g69
(g85
g71
NtRp4985
(dp4986
g74
(dp4987
sg83
g4981
sg76
(lp4988
g69
(g90
g71
NtRp4989
(dp4990
g74
(dp4991
sg83
g4985
sg76
(lp4992
g69
(g70
g71
NtRp4993
(dp4994
g74
(dp4995
g82
I1
ssg83
g4989
sg76
(lp4996
g4496
(S's\t\x00\x00\x00Community'
tRp4997
asbasbasbag69
(g85
g71
NtRp4998
(dp4999
g74
(dp5000
sg83
g4981
sg76
(lp5001
g69
(g90
g71
NtRp5002
(dp5003
g74
(dp5004
sg83
g4998
sg76
(lp5005
g69
(g70
g71
NtRp5006
(dp5007
g74
(dp5008
g82
I1
ssg83
g5002
sg76
(lp5009
I00
asbasbasbag69
(g85
g71
NtRp5010
(dp5011
g74
(dp5012
sg83
g4981
sg76
(lp5013
g69
(g90
g71
NtRp5014
(dp5015
g74
(dp5016
sg83
g5010
sg76
(lp5017
g69
(g70
g71
NtRp5018
(dp5019
g74
(dp5020
g82
I1
ssg83
g5014
sg76
(lp5021
Nasbasbasbag69
(g85
g71
NtRp5022
(dp5023
g74
(dp5024
sg83
g4981
sg76
(lp5025
g69
(g90
g71
NtRp5026
(dp5027
g74
(dp5028
sg83
g5022
sg76
(lp5029
g69
(g70
g71
NtRp5030
(dp5031
g74
(dp5032
g82
I1
ssg83
g5026
sg76
(lp5033
(lp5034
(g4496
(S's\x06\x00\x00\x00Groups'
tRp5035
I00
S'http://www.web2py.com/examples/default/usergroups'
p5036
tp5037
a(g4496
(S's\x07\x00\x00\x00Twitter'
tRp5038
I00
S'http://twitter.com/web2py'
p5039
tp5040
a(g4496
(S's\t\x00\x00\x00Live Chat'
tRp5041
I00
S'http://webchat.freenode.net/?channels=web2py'
p5042
tp5043
aasbasbasbasbasbasbasbag69
(g85
g71
NtRp5044
(dp5045
g74
(dp5046
sg83
g4611
sg76
(lp5047
g69
(g90
g71
NtRp5048
(dp5049
g74
(dp5050
sg83
g5044
sg76
(lp5051
g69
(g70
g71
NtRp5052
(dp5053
g74
(dp5054
g82
I2
ssg83
g5048
sg76
(lp5055
g69
(g78
g71
NtRp5056
(dp5057
g74
(dp5058
g82
I1
ssg83
Nsg76
(lp5059
g69
(g85
g71
NtRp5060
(dp5061
g74
(dp5062
sg83
g5056
sg76
(lp5063
g69
(g90
g71
NtRp5064
(dp5065
g74
(dp5066
sg83
g5060
sg76
(lp5067
g69
(g70
g71
NtRp5068
(dp5069
g74
(dp5070
g82
I1
ssg83
g5064
sg76
(lp5071
g4496
(S's\x07\x00\x00\x00Plugins'
tRp5072
asbasbasbag69
(g85
g71
NtRp5073
(dp5074
g74
(dp5075
sg83
g5056
sg76
(lp5076
g69
(g90
g71
NtRp5077
(dp5078
g74
(dp5079
sg83
g5073
sg76
(lp5080
g69
(g70
g71
NtRp5081
(dp5082
g74
(dp5083
g82
I1
ssg83
g5077
sg76
(lp5084
I00
asbasbasbag69
(g85
g71
NtRp5085
(dp5086
g74
(dp5087
sg83
g5056
sg76
(lp5088
g69
(g90
g71
NtRp5089
(dp5090
g74
(dp5091
sg83
g5085
sg76
(lp5092
g69
(g70
g71
NtRp5093
(dp5094
g74
(dp5095
g82
I1
ssg83
g5089
sg76
(lp5096
Nasbasbasbag69
(g85
g71
NtRp5097
(dp5098
g74
(dp5099
sg83
g5056
sg76
(lp5100
g69
(g90
g71
NtRp5101
(dp5102
g74
(dp5103
sg83
g5097
sg76
(lp5104
g69
(g70
g71
NtRp5105
(dp5106
g74
(dp5107
g82
I1
ssg83
g5101
sg76
(lp5108
(lp5109
(S'plugin_wiki'
p5110
I00
S'http://web2py.com/examples/default/download'
p5111
tp5112
a(g4496
(S's\r\x00\x00\x00Other Plugins'
tRp5113
I00
g4843
tp5114
a(g4496
(S's\x0e\x00\x00\x00Layout Plugins'
tRp5115
I00
g4846
tp5116
aasbasbasbasbasbasbasbasbasbasbasbasbasbasbasbasbasbasbasbag69
(g85
g71
NtRp5117
(dp5118
g74
(dp5119
sg83
g4006
sg76
(lp5120
g69
(g90
g71
NtRp5121
(dp5122
g74
(dp5123
g94
g95
ssg83
g5117
sg76
(lp5124
S'meta'
p5125
asbag69
(g90
g71
NtRp5126
(dp5127
g74
(dp5128
g101
g102
ssg83
g5117
sg76
(lp5129
S':'
asbag69
(g90
g71
NtRp5130
(dp5131
g74
(dp5132
sg83
g5117
sg76
(lp5133
g69
(g70
g71
NtRp5134
(dp5135
g74
(dp5136
g82
I5
ssg83
g5130
sg76
(lp5137
g69
(g78
g71
NtRp5138
(dp5139
g74
(dp5140
g82
I4
ssg83
Nsg76
(lp5141
g69
(g85
g71
NtRp5142
(dp5143
g74
(dp5144
sg83
g5138
sg76
(lp5145
g69
(g90
g71
NtRp5146
(dp5147
g74
(dp5148
g94
g95
ssg83
g5142
sg76
(lp5149
S'author'
p5150
asbag69
(g90
g71
NtRp5151
(dp5152
g74
(dp5153
g101
g102
ssg83
g5142
sg76
(lp5154
S':'
asbag69
(g90
g71
NtRp5155
(dp5156
g74
(dp5157
sg83
g5142
sg76
(lp5158
g69
(g70
g71
NtRp5159
(dp5160
g74
(dp5161
g82
I4
ssg83
g5155
sg76
(lp5162
S'Your Name <you@example.com>'
p5163
asbasbasbag69
(g85
g71
NtRp5164
(dp5165
g74
(dp5166
sg83
g5138
sg76
(lp5167
g69
(g90
g71
NtRp5168
(dp5169
g74
(dp5170
g94
g95
ssg83
g5164
sg76
(lp5171
S'description'
p5172
asbag69
(g90
g71
NtRp5173
(dp5174
g74
(dp5175
g101
g102
ssg83
g5164
sg76
(lp5176
S':'
asbag69
(g90
g71
NtRp5177
(dp5178
g74
(dp5179
sg83
g5164
sg76
(lp5180
g69
(g70
g71
NtRp5181
(dp5182
g74
(dp5183
g82
I4
ssg83
g5177
sg76
(lp5184
S'a cool new app'
p5185
asbasbasbag69
(g85
g71
NtRp5186
(dp5187
g74
(dp5188
sg83
g5138
sg76
(lp5189
g69
(g90
g71
NtRp5190
(dp5191
g74
(dp5192
g94
g95
ssg83
g5186
sg76
(lp5193
S'generator'
p5194
asbag69
(g90
g71
NtRp5195
(dp5196
g74
(dp5197
g101
g102
ssg83
g5186
sg76
(lp5198
S':'
asbag69
(g90
g71
NtRp5199
(dp5200
g74
(dp5201
sg83
g5186
sg76
(lp5202
g69
(g70
g71
NtRp5203
(dp5204
g74
(dp5205
g82
I4
ssg83
g5199
sg76
(lp5206
S'Web2py Web Framework'
p5207
asbasbasbag69
(g85
g71
NtRp5208
(dp5209
g74
(dp5210
sg83
g5138
sg76
(lp5211
g69
(g90
g71
NtRp5212
(dp5213
g74
(dp5214
g94
g95
ssg83
g5208
sg76
(lp5215
S'keywords'
p5216
asbag69
(g90
g71
NtRp5217
(dp5218
g74
(dp5219
g101
g102
ssg83
g5208
sg76
(lp5220
S':'
asbag69
(g90
g71
NtRp5221
(dp5222
g74
(dp5223
sg83
g5208
sg76
(lp5224
g69
(g70
g71
NtRp5225
(dp5226
g74
(dp5227
g82
I4
ssg83
g5221
sg76
(lp5228
S'web2py, python, framework'
p5229
asbasbasbasbasbasbasbag69
(g85
g71
NtRp5230
(dp5231
g74
(dp5232
sg83
g4006
sg76
(lp5233
g69
(g90
g71
NtRp5234
(dp5235
g74
(dp5236
g94
g95
ssg83
g5230
sg76
(lp5237
S'models_to_run'
p5238
asbag69
(g90
g71
NtRp5239
(dp5240
g74
(dp5241
g101
g102
ssg83
g5230
sg76
(lp5242
S':'
asbag69
(g90
g71
NtRp5243
(dp5244
g74
(dp5245
sg83
g5230
sg76
(lp5246
g69
(g70
g71
NtRp5247
(dp5248
g74
(dp5249
g82
I5
ssg83
g5243
sg76
(lp5250
g69
(g78
g71
NtRp5251
(dp5252
g74
(dp5253
g82
I4
ssg83
Nsg76
(lp5254
g69
(g85
g71
NtRp5255
(dp5256
g74
(dp5257
sg83
g5251
sg76
(lp5258
g69
(g90
g71
NtRp5259
(dp5260
g74
(dp5261
sg83
g5255
sg76
(lp5262
g69
(g70
g71
NtRp5263
(dp5264
g74
(dp5265
g82
I4
ssg83
g5259
sg76
(lp5266
S'^\\w+\\.py$'
p5267
asbasbasbag69
(g85
g71
NtRp5268
(dp5269
g74
(dp5270
sg83
g5251
sg76
(lp5271
g69
(g90
g71
NtRp5272
(dp5273
g74
(dp5274
sg83
g5268
sg76
(lp5275
g69
(g70
g71
NtRp5276
(dp5277
g74
(dp5278
g82
I4
ssg83
g5272
sg76
(lp5279
S'^default/\\w+\\.py$'
p5280
asbasbasbag69
(g85
g71
NtRp5281
(dp5282
g74
(dp5283
sg83
g5251
sg76
(lp5284
g69
(g90
g71
NtRp5285
(dp5286
g74
(dp5287
sg83
g5281
sg76
(lp5288
g69
(g70
g71
NtRp5289
(dp5290
g74
(dp5291
g82
I4
ssg83
g5285
sg76
(lp5292
S'^default/update_tut/\\w+\\.py$'
p5293
asbasbasbasbasbasbasbag69
(g85
g71
NtRp5294
(dp5295
g74
(dp5296
sg83
g4006
sg76
(lp5297
g69
(g90
g71
NtRp5298
(dp5299
g74
(dp5300
g94
g95
ssg83
g5294
sg76
(lp5301
S'postprocessing'
p5302
asbag69
(g90
g71
NtRp5303
(dp5304
g74
(dp5305
g101
g102
ssg83
g5294
sg76
(lp5306
S':'
asbag69
(g90
g71
NtRp5307
(dp5308
g74
(dp5309
sg83
g5294
sg76
(lp5310
g69
(g70
g71
NtRp5311
(dp5312
g74
(dp5313
g82
I5
ssg83
g5307
sg76
(lp5314
g69
(g78
g71
NtRp5315
(dp5316
g74
(dp5317
g82
I4
ssg83
Nsg76
(lp5318
sbasbasbasbag69
(g85
g71
NtRp5319
(dp5320
g74
(dp5321
sg83
g4006
sg76
(lp5322
g69
(g90
g71
NtRp5323
(dp5324
g74
(dp5325
g94
g95
ssg83
g5319
sg76
(lp5326
S'session_cookie_expires'
p5327
asbag69
(g90
g71
NtRp5328
(dp5329
g74
(dp5330
g101
g102
ssg83
g5319
sg76
(lp5331
S':'
asbag69
(g90
g71
NtRp5332
(dp5333
g74
(dp5334
sg83
g5319
sg76
(lp5335
g69
(g70
g71
NtRp5336
(dp5337
g74
(dp5338
g82
I5
ssg83
g5332
sg76
(lp5339
S'None'
p5340
asbasbasbag69
(g85
g71
NtRp5341
(dp5342
g74
(dp5343
sg83
g4006
sg76
(lp5344
g69
(g90
g71
NtRp5345
(dp5346
g74
(dp5347
g94
g95
ssg83
g5341
sg76
(lp5348
S'session_data_name'
p5349
asbag69
(g90
g71
NtRp5350
(dp5351
g74
(dp5352
g101
g102
ssg83
g5341
sg76
(lp5353
S':'
asbag69
(g90
g71
NtRp5354
(dp5355
g74
(dp5356
sg83
g5341
sg76
(lp5357
g69
(g70
g71
NtRp5358
(dp5359
g74
(dp5360
g82
I5
ssg83
g5354
sg76
(lp5361
S'session_data_myapp'
p5362
asbasbasbag69
(g85
g71
NtRp5363
(dp5364
g74
(dp5365
sg83
g4006
sg76
(lp5366
g69
(g90
g71
NtRp5367
(dp5368
g74
(dp5369
g94
g95
ssg83
g5363
sg76
(lp5370
S'session_file'
p5371
asbag69
(g90
g71
NtRp5372
(dp5373
g74
(dp5374
g101
g102
ssg83
g5363
sg76
(lp5375
S':'
asbag69
(g90
g71
NtRp5376
(dp5377
g74
(dp5378
sg83
g5363
sg76
(lp5379
g69
(g70
g71
NtRp5380
(dp5381
g74
(dp5382
g82
I5
ssg83
g5376
sg76
(lp5383
S"<open file '/Users/keshav/Desktop/web2py/applications/MyApp/sessions/127.0.0.1-c29873db-dcbb-4e1b-a3b4-5e8b27d0f857', mode 'rb+' at 0x11ac698b0>"
p5384
asbasbasbag69
(g85
g71
NtRp5385
(dp5386
g74
(dp5387
sg83
g4006
sg76
(lp5388
g69
(g90
g71
NtRp5389
(dp5390
g74
(dp5391
g94
g95
ssg83
g5385
sg76
(lp5392
S'session_filename'
p5393
asbag69
(g90
g71
NtRp5394
(dp5395
g74
(dp5396
g101
g102
ssg83
g5385
sg76
(lp5397
S':'
asbag69
(g90
g71
NtRp5398
(dp5399
g74
(dp5400
sg83
g5385
sg76
(lp5401
g69
(g70
g71
NtRp5402
(dp5403
g74
(dp5404
g82
I5
ssg83
g5398
sg76
(lp5405
S'/Users/keshav/Desktop/web2py/applications/MyApp/sessions/127.0.0.1-c29873db-dcbb-4e1b-a3b4-5e8b27d0f857'
p5406
asbasbasbag69
(g85
g71
NtRp5407
(dp5408
g74
(dp5409
sg83
g4006
sg76
(lp5410
g69
(g90
g71
NtRp5411
(dp5412
g74
(dp5413
g94
g95
ssg83
g5407
sg76
(lp5414
S'session_id'
p5415
asbag69
(g90
g71
NtRp5416
(dp5417
g74
(dp5418
g101
g102
ssg83
g5407
sg76
(lp5419
S':'
asbag69
(g90
g71
NtRp5420
(dp5421
g74
(dp5422
sg83
g5407
sg76
(lp5423
g69
(g70
g71
NtRp5424
(dp5425
g74
(dp5426
g82
I5
ssg83
g5420
sg76
(lp5427
g487
asbasbasbag69
(g85
g71
NtRp5428
(dp5429
g74
(dp5430
sg83
g4006
sg76
(lp5431
g69
(g90
g71
NtRp5432
(dp5433
g74
(dp5434
g94
g95
ssg83
g5428
sg76
(lp5435
S'session_id_name'
p5436
asbag69
(g90
g71
NtRp5437
(dp5438
g74
(dp5439
g101
g102
ssg83
g5428
sg76
(lp5440
S':'
asbag69
(g90
g71
NtRp5441
(dp5442
g74
(dp5443
sg83
g5428
sg76
(lp5444
g69
(g70
g71
NtRp5445
(dp5446
g74
(dp5447
g82
I5
ssg83
g5441
sg76
(lp5448
g4063
asbasbasbag69
(g85
g71
NtRp5449
(dp5450
g74
(dp5451
sg83
g4006
sg76
(lp5452
g69
(g90
g71
NtRp5453
(dp5454
g74
(dp5455
g94
g95
ssg83
g5449
sg76
(lp5456
S'session_locked'
p5457
asbag69
(g90
g71
NtRp5458
(dp5459
g74
(dp5460
g101
g102
ssg83
g5449
sg76
(lp5461
S':'
asbag69
(g90
g71
NtRp5462
(dp5463
g74
(dp5464
sg83
g5449
sg76
(lp5465
g69
(g70
g71
NtRp5466
(dp5467
g74
(dp5468
g82
I5
ssg83
g5462
sg76
(lp5469
g1887
asbasbasbag69
(g85
g71
NtRp5470
(dp5471
g74
(dp5472
sg83
g4006
sg76
(lp5473
g69
(g90
g71
NtRp5474
(dp5475
g74
(dp5476
g94
g95
ssg83
g5470
sg76
(lp5477
S'session_new'
p5478
asbag69
(g90
g71
NtRp5479
(dp5480
g74
(dp5481
g101
g102
ssg83
g5470
sg76
(lp5482
S':'
asbag69
(g90
g71
NtRp5483
(dp5484
g74
(dp5485
sg83
g5470
sg76
(lp5486
g69
(g70
g71
NtRp5487
(dp5488
g74
(dp5489
g82
I5
ssg83
g5483
sg76
(lp5490
g112
asbasbasbag69
(g85
g71
NtRp5491
(dp5492
g74
(dp5493
sg83
g4006
sg76
(lp5494
g69
(g90
g71
NtRp5495
(dp5496
g74
(dp5497
g94
g95
ssg83
g5491
sg76
(lp5498
S'session_storage_type'
p5499
asbag69
(g90
g71
NtRp5500
(dp5501
g74
(dp5502
g101
g102
ssg83
g5491
sg76
(lp5503
S':'
asbag69
(g90
g71
NtRp5504
(dp5505
g74
(dp5506
sg83
g5491
sg76
(lp5507
g69
(g70
g71
NtRp5508
(dp5509
g74
(dp5510
g82
I5
ssg83
g5504
sg76
(lp5511
g3464
asbasbasbag69
(g85
g71
NtRp5512
(dp5513
g74
(dp5514
sg83
g4006
sg76
(lp5515
g69
(g90
g71
NtRp5516
(dp5517
g74
(dp5518
g94
g95
ssg83
g5512
sg76
(lp5519
S'status'
p5520
asbag69
(g90
g71
NtRp5521
(dp5522
g74
(dp5523
g101
g102
ssg83
g5512
sg76
(lp5524
S':'
asbag69
(g90
g71
NtRp5525
(dp5526
g74
(dp5527
sg83
g5512
sg76
(lp5528
g69
(g70
g71
NtRp5529
(dp5530
g74
(dp5531
g82
I5
ssg83
g5525
sg76
(lp5532
S'200'
p5533
asbasbasbag69
(g85
g71
NtRp5534
(dp5535
g74
(dp5536
sg83
g4006
sg76
(lp5537
g69
(g90
g71
NtRp5538
(dp5539
g74
(dp5540
g94
g95
ssg83
g5534
sg76
(lp5541
S'subtitle'
p5542
asbag69
(g90
g71
NtRp5543
(dp5544
g74
(dp5545
g101
g102
ssg83
g5534
sg76
(lp5546
S':'
asbag69
(g90
g71
NtRp5547
(dp5548
g74
(dp5549
sg83
g5534
sg76
(lp5550
g69
(g70
g71
NtRp5551
(dp5552
g74
(dp5553
g82
I5
ssg83
g5547
sg76
(lp5554
g4496
(S's\r\x00\x00\x00customize me!'
tRp5555
asbasbasbag69
(g85
g71
NtRp5556
(dp5557
g74
(dp5558
sg83
g4006
sg76
(lp5559
g69
(g90
g71
NtRp5560
(dp5561
g74
(dp5562
g94
g95
ssg83
g5556
sg76
(lp5563
S'title'
p5564
asbag69
(g90
g71
NtRp5565
(dp5566
g74
(dp5567
g101
g102
ssg83
g5556
sg76
(lp5568
S':'
asbag69
(g90
g71
NtRp5569
(dp5570
g74
(dp5571
sg83
g5556
sg76
(lp5572
g69
(g70
g71
NtRp5573
(dp5574
g74
(dp5575
g82
I5
ssg83
g5569
sg76
(lp5576
S'Myapp'
p5577
asbasbasbag69
(g85
g71
NtRp5578
(dp5579
g74
(dp5580
sg83
g4006
sg76
(lp5581
g69
(g90
g71
NtRp5582
(dp5583
g74
(dp5584
g94
g95
ssg83
g5578
sg76
(lp5585
S'view'
p5586
asbag69
(g90
g71
NtRp5587
(dp5588
g74
(dp5589
g101
g102
ssg83
g5578
sg76
(lp5590
S':'
asbag69
(g90
g71
NtRp5591
(dp5592
g74
(dp5593
sg83
g5578
sg76
(lp5594
g69
(g70
g71
NtRp5595
(dp5596
g74
(dp5597
g82
I5
ssg83
g5591
sg76
(lp5598
S'default/update_tut.html'
p5599
asbasbasbasbasbsS'locals'
p5600
(dp5601
S'update_fields'
p5602
g21
sS'fields'
p5603
S'[]'
p5604
sS'self'
p5605
S'<Set (auth_user.id = 1)>'
p5606
sS'db'
p5607
S'<DAL uri="sqlite://storage.sqlite">'
p5608
sS'tablename'
p5609
S"'auth_user'"
p5610
sS'table'
p5611
S'<Table auth_user (id,first_name,last_name,email,...stration_key,reset_password_key,registration_id)>'
p5612
sssS'traceback'
p5613
S'Traceback (most recent call last):\n  File "/Users/keshav/Desktop/web2py/gluon/restricted.py", line 212, in restricted\n    exec ccode in environment\n  File "/Users/keshav/Desktop/web2py/applications/MyApp/controllers/default.py", line 118, in <module>\n  File "/Users/keshav/Desktop/web2py/gluon/globals.py", line 188, in <lambda>\n    self._caller = lambda f: f()\n  File "/Users/keshav/Desktop/web2py/applications/MyApp/controllers/default.py", line 114, in update_tut\n    row.update_record(level=request.vars[\'name\'])\n  File "/Users/keshav/Desktop/web2py/gluon/dal.py", line 8902, in __call__\n    table._db(table._id==id,ignore_common_filters=True).update(**newfields)\n  File "/Users/keshav/Desktop/web2py/gluon/dal.py", line 8811, in update\n    raise SyntaxError, "No fields to update"\nSyntaxError: No fields to update\n'
p5614
s.