(dp1
S'output'
p2
S"<type 'exceptions.SyntaxError'> invalid syntax (index.html, line 4)"
p3
sS'layer'
p4
S'/Users/keshav/Desktop/web2py/applications/MyApp/views/default/index.html'
p5
sS'code'
p6
S"response.write('<html>\\n   <head></head>\\n   <body>\\n      <h1>', escape=False)\nresponse.write(message1)\nresponse.write('</h1>\\n       <h2>', escape=False)\nh2>\n</body>\n</html"
p7
sS'snapshot'
p8
(dp9
S'exception'
p10
(dp11
S'__getslice__'
p12
S"<method-wrapper '__getslice__' of exceptions.SyntaxError object at 0x102750050>"
p13
sS'text'
p14
S"'h2>\\n'"
p15
sS'__str__'
p16
S"<method-wrapper '__str__' of exceptions.SyntaxError object at 0x102750050>"
p17
sS'__reduce__'
p18
S'<built-in method __reduce__ of exceptions.SyntaxError object at 0x102750050>'
p19
sS'__dict__'
p20
S'{}'
p21
sS'__sizeof__'
p22
S'<built-in method __sizeof__ of exceptions.SyntaxError object at 0x102750050>'
p23
sS'__init__'
p24
S"<method-wrapper '__init__' of exceptions.SyntaxError object at 0x102750050>"
p25
sS'__setattr__'
p26
S"<method-wrapper '__setattr__' of exceptions.SyntaxError object at 0x102750050>"
p27
sS'__reduce_ex__'
p28
S'<built-in method __reduce_ex__ of exceptions.SyntaxError object at 0x102750050>'
p29
sS'__new__'
p30
S'<built-in method __new__ of type object at 0x10011bb20>'
p31
sS'__format__'
p32
S'<built-in method __format__ of exceptions.SyntaxError object at 0x102750050>'
p33
sS'__class__'
p34
S"<type 'exceptions.SyntaxError'>"
p35
sS'filename'
p36
S"'/Users/keshav/Desktop/web2py/applications/MyApp/views/default/index.html'"
p37
sS'lineno'
p38
S'4'
sS'msg'
p39
S"'invalid syntax'"
p40
sS'__doc__'
p41
S"'Invalid syntax.'"
p42
sS'__getitem__'
p43
S"<method-wrapper '__getitem__' of exceptions.SyntaxError object at 0x102750050>"
p44
sS'__setstate__'
p45
S'<built-in method __setstate__ of exceptions.SyntaxError object at 0x102750050>'
p46
sS'__getattribute__'
p47
S"<method-wrapper '__getattribute__' of exceptions.SyntaxError object at 0x102750050>"
p48
sS'print_file_and_line'
p49
S'None'
p50
sS'args'
p51
S"('invalid syntax', ('/Users/keshav/Desktop/web2py/applications/MyApp/views/default/index.html', 4, 4, 'h2>\\n'))"
p52
sS'__subclasshook__'
p53
S'<built-in method __subclasshook__ of type object at 0x10011bb20>'
p54
sS'offset'
p55
S'4'
sS'__unicode__'
p56
S'<built-in method __unicode__ of exceptions.SyntaxError object at 0x102750050>'
p57
sS'__delattr__'
p58
S"<method-wrapper '__delattr__' of exceptions.SyntaxError object at 0x102750050>"
p59
sS'__repr__'
p60
S"<method-wrapper '__repr__' of exceptions.SyntaxError object at 0x102750050>"
p61
sS'__hash__'
p62
S"<method-wrapper '__hash__' of exceptions.SyntaxError object at 0x102750050>"
p63
ssS'evalue'
p64
S'invalid syntax (index.html, line 4)'
p65
sS'request'
p66
ccopy_reg
_reconstructor
p67
(cgluon.html
BEAUTIFY
p68
c__builtin__
object
p69
NtRp70
(dp71
S'attributes'
p72
(dp73
sS'components'
p74
(lp75
g67
(cgluon.html
TABLE
p76
g69
NtRp77
(dp78
g72
(dp79
S'level'
p80
I5
ssS'parent'
p81
Nsg74
(lp82
g67
(cgluon.html
TR
p83
g69
NtRp84
(dp85
g72
(dp86
sg81
g77
sg74
(lp87
g67
(cgluon.html
TD
p88
g69
NtRp89
(dp90
g72
(dp91
S'_style'
p92
S'font-weight:bold;vertical-align:top'
p93
ssg81
g84
sg74
(lp94
S'ajax'
p95
asbag67
(g88
g69
NtRp96
(dp97
g72
(dp98
S'_valign'
p99
S'top'
p100
ssg81
g84
sg74
(lp101
S':'
asbag67
(g88
g69
NtRp102
(dp103
g72
(dp104
sg81
g84
sg74
(lp105
g67
(g68
g69
NtRp106
(dp107
g72
(dp108
g80
I5
ssg81
g102
sg74
(lp109
S'False'
p110
asbasbasbag67
(g83
g69
NtRp111
(dp112
g72
(dp113
sg81
g77
sg74
(lp114
g67
(g88
g69
NtRp115
(dp116
g72
(dp117
g92
g93
ssg81
g111
sg74
(lp118
S'application'
p119
asbag67
(g88
g69
NtRp120
(dp121
g72
(dp122
g99
g100
ssg81
g111
sg74
(lp123
S':'
asbag67
(g88
g69
NtRp124
(dp125
g72
(dp126
sg81
g111
sg74
(lp127
g67
(g68
g69
NtRp128
(dp129
g72
(dp130
g80
I5
ssg81
g124
sg74
(lp131
S'MyApp'
p132
asbasbasbag67
(g83
g69
NtRp133
(dp134
g72
(dp135
sg81
g77
sg74
(lp136
g67
(g88
g69
NtRp137
(dp138
g72
(dp139
g92
g93
ssg81
g133
sg74
(lp140
g51
asbag67
(g88
g69
NtRp141
(dp142
g72
(dp143
g99
g100
ssg81
g133
sg74
(lp144
S':'
asbag67
(g88
g69
NtRp145
(dp146
g72
(dp147
sg81
g133
sg74
(lp148
g67
(g68
g69
NtRp149
(dp150
g72
(dp151
g80
I5
ssg81
g145
sg74
(lp152
g67
(g76
g69
NtRp153
(dp154
g72
(dp155
g80
I4
ssg81
Nsg74
(lp156
sbasbasbasbag67
(g83
g69
NtRp157
(dp158
g72
(dp159
sg81
g77
sg74
(lp160
g67
(g88
g69
NtRp161
(dp162
g72
(dp163
g92
g93
ssg81
g157
sg74
(lp164
S'body'
p165
asbag67
(g88
g69
NtRp166
(dp167
g72
(dp168
g99
g100
ssg81
g157
sg74
(lp169
S':'
asbag67
(g88
g69
NtRp170
(dp171
g72
(dp172
sg81
g157
sg74
(lp173
g67
(g68
g69
NtRp174
(dp175
g72
(dp176
g80
I5
ssg81
g170
sg74
(lp177
S'<cStringIO.StringO object at 0x1186230a0>'
p178
asbasbasbag67
(g83
g69
NtRp179
(dp180
g72
(dp181
sg81
g77
sg74
(lp182
g67
(g88
g69
NtRp183
(dp184
g72
(dp185
g92
g93
ssg81
g179
sg74
(lp186
S'cid'
p187
asbag67
(g88
g69
NtRp188
(dp189
g72
(dp190
g99
g100
ssg81
g179
sg74
(lp191
S':'
asbag67
(g88
g69
NtRp192
(dp193
g72
(dp194
sg81
g179
sg74
(lp195
g67
(g68
g69
NtRp196
(dp197
g72
(dp198
g80
I5
ssg81
g192
sg74
(lp199
S'None'
p200
asbasbasbag67
(g83
g69
NtRp201
(dp202
g72
(dp203
sg81
g77
sg74
(lp204
g67
(g88
g69
NtRp205
(dp206
g72
(dp207
g92
g93
ssg81
g201
sg74
(lp208
S'client'
p209
asbag67
(g88
g69
NtRp210
(dp211
g72
(dp212
g99
g100
ssg81
g201
sg74
(lp213
S':'
asbag67
(g88
g69
NtRp214
(dp215
g72
(dp216
sg81
g201
sg74
(lp217
g67
(g68
g69
NtRp218
(dp219
g72
(dp220
g80
I5
ssg81
g214
sg74
(lp221
S'127.0.0.1'
p222
asbasbasbag67
(g83
g69
NtRp223
(dp224
g72
(dp225
sg81
g77
sg74
(lp226
g67
(g88
g69
NtRp227
(dp228
g72
(dp229
g92
g93
ssg81
g223
sg74
(lp230
S'controller'
p231
asbag67
(g88
g69
NtRp232
(dp233
g72
(dp234
g99
g100
ssg81
g223
sg74
(lp235
S':'
asbag67
(g88
g69
NtRp236
(dp237
g72
(dp238
sg81
g223
sg74
(lp239
g67
(g68
g69
NtRp240
(dp241
g72
(dp242
g80
I5
ssg81
g236
sg74
(lp243
S'default'
p244
asbasbasbag67
(g83
g69
NtRp245
(dp246
g72
(dp247
sg81
g77
sg74
(lp248
g67
(g88
g69
NtRp249
(dp250
g72
(dp251
g92
g93
ssg81
g245
sg74
(lp252
S'cookies'
p253
asbag67
(g88
g69
NtRp254
(dp255
g72
(dp256
g99
g100
ssg81
g245
sg74
(lp257
S':'
asbag67
(g88
g69
NtRp258
(dp259
g72
(dp260
sg81
g245
sg74
(lp261
g67
(g68
g69
NtRp262
(dp263
g72
(dp264
g80
I5
ssg81
g258
sg74
(lp265
g67
(g76
g69
NtRp266
(dp267
g72
(dp268
g80
I4
ssg81
Nsg74
(lp269
g67
(g83
g69
NtRp270
(dp271
g72
(dp272
sg81
g266
sg74
(lp273
g67
(g88
g69
NtRp274
(dp275
g72
(dp276
g92
g93
ssg81
g270
sg74
(lp277
S'session_id_admin'
p278
asbag67
(g88
g69
NtRp279
(dp280
g72
(dp281
g99
g100
ssg81
g270
sg74
(lp282
S':'
asbag67
(g88
g69
NtRp283
(dp284
g72
(dp285
sg81
g270
sg74
(lp286
g67
(g68
g69
NtRp287
(dp288
g72
(dp289
g80
I4
ssg81
g283
sg74
(lp290
S'127.0.0.1-2ac05282-256e-45c0-9927-a44c4ae81fa6'
p291
ag67
(g76
g69
NtRp292
(dp293
g72
(dp294
g80
I3
ssg81
Nsg74
(lp295
g67
(g83
g69
NtRp296
(dp297
g72
(dp298
sg81
g292
sg74
(lp299
g67
(g88
g69
NtRp300
(dp301
g72
(dp302
g92
g93
ssg81
g296
sg74
(lp303
S'comment'
p304
asbag67
(g88
g69
NtRp305
(dp306
g72
(dp307
g99
g100
ssg81
g296
sg74
(lp308
S':'
asbag67
(g88
g69
NtRp309
(dp310
g72
(dp311
sg81
g296
sg74
(lp312
g67
(g68
g69
NtRp313
(dp314
g72
(dp315
g80
I3
ssg81
g309
sg74
(lp316
S''
asbasbasbag67
(g83
g69
NtRp317
(dp318
g72
(dp319
sg81
g292
sg74
(lp320
g67
(g88
g69
NtRp321
(dp322
g72
(dp323
g92
g93
ssg81
g317
sg74
(lp324
S'domain'
p325
asbag67
(g88
g69
NtRp326
(dp327
g72
(dp328
g99
g100
ssg81
g317
sg74
(lp329
S':'
asbag67
(g88
g69
NtRp330
(dp331
g72
(dp332
sg81
g317
sg74
(lp333
g67
(g68
g69
NtRp334
(dp335
g72
(dp336
g80
I3
ssg81
g330
sg74
(lp337
S''
asbasbasbag67
(g83
g69
NtRp338
(dp339
g72
(dp340
sg81
g292
sg74
(lp341
g67
(g88
g69
NtRp342
(dp343
g72
(dp344
g92
g93
ssg81
g338
sg74
(lp345
S'expires'
p346
asbag67
(g88
g69
NtRp347
(dp348
g72
(dp349
g99
g100
ssg81
g338
sg74
(lp350
S':'
asbag67
(g88
g69
NtRp351
(dp352
g72
(dp353
sg81
g338
sg74
(lp354
g67
(g68
g69
NtRp355
(dp356
g72
(dp357
g80
I3
ssg81
g351
sg74
(lp358
S''
asbasbasbag67
(g83
g69
NtRp359
(dp360
g72
(dp361
sg81
g292
sg74
(lp362
g67
(g88
g69
NtRp363
(dp364
g72
(dp365
g92
g93
ssg81
g359
sg74
(lp366
S'httponly'
p367
asbag67
(g88
g69
NtRp368
(dp369
g72
(dp370
g99
g100
ssg81
g359
sg74
(lp371
S':'
asbag67
(g88
g69
NtRp372
(dp373
g72
(dp374
sg81
g359
sg74
(lp375
g67
(g68
g69
NtRp376
(dp377
g72
(dp378
g80
I3
ssg81
g372
sg74
(lp379
S''
asbasbasbag67
(g83
g69
NtRp380
(dp381
g72
(dp382
sg81
g292
sg74
(lp383
g67
(g88
g69
NtRp384
(dp385
g72
(dp386
g92
g93
ssg81
g380
sg74
(lp387
S'max-age'
p388
asbag67
(g88
g69
NtRp389
(dp390
g72
(dp391
g99
g100
ssg81
g380
sg74
(lp392
S':'
asbag67
(g88
g69
NtRp393
(dp394
g72
(dp395
sg81
g380
sg74
(lp396
g67
(g68
g69
NtRp397
(dp398
g72
(dp399
g80
I3
ssg81
g393
sg74
(lp400
S''
asbasbasbag67
(g83
g69
NtRp401
(dp402
g72
(dp403
sg81
g292
sg74
(lp404
g67
(g88
g69
NtRp405
(dp406
g72
(dp407
g92
g93
ssg81
g401
sg74
(lp408
S'path'
p409
asbag67
(g88
g69
NtRp410
(dp411
g72
(dp412
g99
g100
ssg81
g401
sg74
(lp413
S':'
asbag67
(g88
g69
NtRp414
(dp415
g72
(dp416
sg81
g401
sg74
(lp417
g67
(g68
g69
NtRp418
(dp419
g72
(dp420
g80
I3
ssg81
g414
sg74
(lp421
S''
asbasbasbag67
(g83
g69
NtRp422
(dp423
g72
(dp424
sg81
g292
sg74
(lp425
g67
(g88
g69
NtRp426
(dp427
g72
(dp428
g92
g93
ssg81
g422
sg74
(lp429
S'secure'
p430
asbag67
(g88
g69
NtRp431
(dp432
g72
(dp433
g99
g100
ssg81
g422
sg74
(lp434
S':'
asbag67
(g88
g69
NtRp435
(dp436
g72
(dp437
sg81
g422
sg74
(lp438
g67
(g68
g69
NtRp439
(dp440
g72
(dp441
g80
I3
ssg81
g435
sg74
(lp442
S''
asbasbasbag67
(g83
g69
NtRp443
(dp444
g72
(dp445
sg81
g292
sg74
(lp446
g67
(g88
g69
NtRp447
(dp448
g72
(dp449
g92
g93
ssg81
g443
sg74
(lp450
S'version'
p451
asbag67
(g88
g69
NtRp452
(dp453
g72
(dp454
g99
g100
ssg81
g443
sg74
(lp455
S':'
asbag67
(g88
g69
NtRp456
(dp457
g72
(dp458
sg81
g443
sg74
(lp459
g67
(g68
g69
NtRp460
(dp461
g72
(dp462
g80
I3
ssg81
g456
sg74
(lp463
S''
asbasbasbasbasbasbasbag67
(g83
g69
NtRp464
(dp465
g72
(dp466
sg81
g266
sg74
(lp467
g67
(g88
g69
NtRp468
(dp469
g72
(dp470
g92
g93
ssg81
g464
sg74
(lp471
S'session_id_myapp'
p472
asbag67
(g88
g69
NtRp473
(dp474
g72
(dp475
g99
g100
ssg81
g464
sg74
(lp476
S':'
asbag67
(g88
g69
NtRp477
(dp478
g72
(dp479
sg81
g464
sg74
(lp480
g67
(g68
g69
NtRp481
(dp482
g72
(dp483
g80
I4
ssg81
g477
sg74
(lp484
S'127.0.0.1-7f26db05-2ed8-4b13-830c-72020f55c914'
p485
ag67
(g76
g69
NtRp486
(dp487
g72
(dp488
g80
I3
ssg81
Nsg74
(lp489
g67
(g83
g69
NtRp490
(dp491
g72
(dp492
sg81
g486
sg74
(lp493
g67
(g88
g69
NtRp494
(dp495
g72
(dp496
g92
g93
ssg81
g490
sg74
(lp497
g304
asbag67
(g88
g69
NtRp498
(dp499
g72
(dp500
g99
g100
ssg81
g490
sg74
(lp501
S':'
asbag67
(g88
g69
NtRp502
(dp503
g72
(dp504
sg81
g490
sg74
(lp505
g67
(g68
g69
NtRp506
(dp507
g72
(dp508
g80
I3
ssg81
g502
sg74
(lp509
S''
asbasbasbag67
(g83
g69
NtRp510
(dp511
g72
(dp512
sg81
g486
sg74
(lp513
g67
(g88
g69
NtRp514
(dp515
g72
(dp516
g92
g93
ssg81
g510
sg74
(lp517
g325
asbag67
(g88
g69
NtRp518
(dp519
g72
(dp520
g99
g100
ssg81
g510
sg74
(lp521
S':'
asbag67
(g88
g69
NtRp522
(dp523
g72
(dp524
sg81
g510
sg74
(lp525
g67
(g68
g69
NtRp526
(dp527
g72
(dp528
g80
I3
ssg81
g522
sg74
(lp529
S''
asbasbasbag67
(g83
g69
NtRp530
(dp531
g72
(dp532
sg81
g486
sg74
(lp533
g67
(g88
g69
NtRp534
(dp535
g72
(dp536
g92
g93
ssg81
g530
sg74
(lp537
g346
asbag67
(g88
g69
NtRp538
(dp539
g72
(dp540
g99
g100
ssg81
g530
sg74
(lp541
S':'
asbag67
(g88
g69
NtRp542
(dp543
g72
(dp544
sg81
g530
sg74
(lp545
g67
(g68
g69
NtRp546
(dp547
g72
(dp548
g80
I3
ssg81
g542
sg74
(lp549
S''
asbasbasbag67
(g83
g69
NtRp550
(dp551
g72
(dp552
sg81
g486
sg74
(lp553
g67
(g88
g69
NtRp554
(dp555
g72
(dp556
g92
g93
ssg81
g550
sg74
(lp557
g367
asbag67
(g88
g69
NtRp558
(dp559
g72
(dp560
g99
g100
ssg81
g550
sg74
(lp561
S':'
asbag67
(g88
g69
NtRp562
(dp563
g72
(dp564
sg81
g550
sg74
(lp565
g67
(g68
g69
NtRp566
(dp567
g72
(dp568
g80
I3
ssg81
g562
sg74
(lp569
S''
asbasbasbag67
(g83
g69
NtRp570
(dp571
g72
(dp572
sg81
g486
sg74
(lp573
g67
(g88
g69
NtRp574
(dp575
g72
(dp576
g92
g93
ssg81
g570
sg74
(lp577
g388
asbag67
(g88
g69
NtRp578
(dp579
g72
(dp580
g99
g100
ssg81
g570
sg74
(lp581
S':'
asbag67
(g88
g69
NtRp582
(dp583
g72
(dp584
sg81
g570
sg74
(lp585
g67
(g68
g69
NtRp586
(dp587
g72
(dp588
g80
I3
ssg81
g582
sg74
(lp589
S''
asbasbasbag67
(g83
g69
NtRp590
(dp591
g72
(dp592
sg81
g486
sg74
(lp593
g67
(g88
g69
NtRp594
(dp595
g72
(dp596
g92
g93
ssg81
g590
sg74
(lp597
g409
asbag67
(g88
g69
NtRp598
(dp599
g72
(dp600
g99
g100
ssg81
g590
sg74
(lp601
S':'
asbag67
(g88
g69
NtRp602
(dp603
g72
(dp604
sg81
g590
sg74
(lp605
g67
(g68
g69
NtRp606
(dp607
g72
(dp608
g80
I3
ssg81
g602
sg74
(lp609
S''
asbasbasbag67
(g83
g69
NtRp610
(dp611
g72
(dp612
sg81
g486
sg74
(lp613
g67
(g88
g69
NtRp614
(dp615
g72
(dp616
g92
g93
ssg81
g610
sg74
(lp617
g430
asbag67
(g88
g69
NtRp618
(dp619
g72
(dp620
g99
g100
ssg81
g610
sg74
(lp621
S':'
asbag67
(g88
g69
NtRp622
(dp623
g72
(dp624
sg81
g610
sg74
(lp625
g67
(g68
g69
NtRp626
(dp627
g72
(dp628
g80
I3
ssg81
g622
sg74
(lp629
S''
asbasbasbag67
(g83
g69
NtRp630
(dp631
g72
(dp632
sg81
g486
sg74
(lp633
g67
(g88
g69
NtRp634
(dp635
g72
(dp636
g92
g93
ssg81
g630
sg74
(lp637
g451
asbag67
(g88
g69
NtRp638
(dp639
g72
(dp640
g99
g100
ssg81
g630
sg74
(lp641
S':'
asbag67
(g88
g69
NtRp642
(dp643
g72
(dp644
sg81
g630
sg74
(lp645
g67
(g68
g69
NtRp646
(dp647
g72
(dp648
g80
I3
ssg81
g642
sg74
(lp649
S''
asbasbasbasbasbasbasbag67
(g83
g69
NtRp650
(dp651
g72
(dp652
sg81
g266
sg74
(lp653
g67
(g88
g69
NtRp654
(dp655
g72
(dp656
g92
g93
ssg81
g650
sg74
(lp657
S'session_id_welcome'
p658
asbag67
(g88
g69
NtRp659
(dp660
g72
(dp661
g99
g100
ssg81
g650
sg74
(lp662
S':'
asbag67
(g88
g69
NtRp663
(dp664
g72
(dp665
sg81
g650
sg74
(lp666
g67
(g68
g69
NtRp667
(dp668
g72
(dp669
g80
I4
ssg81
g663
sg74
(lp670
S'127.0.0.1-f0c2caf9-1c11-4929-be70-fabc207c9582'
p671
ag67
(g76
g69
NtRp672
(dp673
g72
(dp674
g80
I3
ssg81
Nsg74
(lp675
g67
(g83
g69
NtRp676
(dp677
g72
(dp678
sg81
g672
sg74
(lp679
g67
(g88
g69
NtRp680
(dp681
g72
(dp682
g92
g93
ssg81
g676
sg74
(lp683
g304
asbag67
(g88
g69
NtRp684
(dp685
g72
(dp686
g99
g100
ssg81
g676
sg74
(lp687
S':'
asbag67
(g88
g69
NtRp688
(dp689
g72
(dp690
sg81
g676
sg74
(lp691
g67
(g68
g69
NtRp692
(dp693
g72
(dp694
g80
I3
ssg81
g688
sg74
(lp695
S''
asbasbasbag67
(g83
g69
NtRp696
(dp697
g72
(dp698
sg81
g672
sg74
(lp699
g67
(g88
g69
NtRp700
(dp701
g72
(dp702
g92
g93
ssg81
g696
sg74
(lp703
g325
asbag67
(g88
g69
NtRp704
(dp705
g72
(dp706
g99
g100
ssg81
g696
sg74
(lp707
S':'
asbag67
(g88
g69
NtRp708
(dp709
g72
(dp710
sg81
g696
sg74
(lp711
g67
(g68
g69
NtRp712
(dp713
g72
(dp714
g80
I3
ssg81
g708
sg74
(lp715
S''
asbasbasbag67
(g83
g69
NtRp716
(dp717
g72
(dp718
sg81
g672
sg74
(lp719
g67
(g88
g69
NtRp720
(dp721
g72
(dp722
g92
g93
ssg81
g716
sg74
(lp723
g346
asbag67
(g88
g69
NtRp724
(dp725
g72
(dp726
g99
g100
ssg81
g716
sg74
(lp727
S':'
asbag67
(g88
g69
NtRp728
(dp729
g72
(dp730
sg81
g716
sg74
(lp731
g67
(g68
g69
NtRp732
(dp733
g72
(dp734
g80
I3
ssg81
g728
sg74
(lp735
S''
asbasbasbag67
(g83
g69
NtRp736
(dp737
g72
(dp738
sg81
g672
sg74
(lp739
g67
(g88
g69
NtRp740
(dp741
g72
(dp742
g92
g93
ssg81
g736
sg74
(lp743
g367
asbag67
(g88
g69
NtRp744
(dp745
g72
(dp746
g99
g100
ssg81
g736
sg74
(lp747
S':'
asbag67
(g88
g69
NtRp748
(dp749
g72
(dp750
sg81
g736
sg74
(lp751
g67
(g68
g69
NtRp752
(dp753
g72
(dp754
g80
I3
ssg81
g748
sg74
(lp755
S''
asbasbasbag67
(g83
g69
NtRp756
(dp757
g72
(dp758
sg81
g672
sg74
(lp759
g67
(g88
g69
NtRp760
(dp761
g72
(dp762
g92
g93
ssg81
g756
sg74
(lp763
g388
asbag67
(g88
g69
NtRp764
(dp765
g72
(dp766
g99
g100
ssg81
g756
sg74
(lp767
S':'
asbag67
(g88
g69
NtRp768
(dp769
g72
(dp770
sg81
g756
sg74
(lp771
g67
(g68
g69
NtRp772
(dp773
g72
(dp774
g80
I3
ssg81
g768
sg74
(lp775
S''
asbasbasbag67
(g83
g69
NtRp776
(dp777
g72
(dp778
sg81
g672
sg74
(lp779
g67
(g88
g69
NtRp780
(dp781
g72
(dp782
g92
g93
ssg81
g776
sg74
(lp783
g409
asbag67
(g88
g69
NtRp784
(dp785
g72
(dp786
g99
g100
ssg81
g776
sg74
(lp787
S':'
asbag67
(g88
g69
NtRp788
(dp789
g72
(dp790
sg81
g776
sg74
(lp791
g67
(g68
g69
NtRp792
(dp793
g72
(dp794
g80
I3
ssg81
g788
sg74
(lp795
S''
asbasbasbag67
(g83
g69
NtRp796
(dp797
g72
(dp798
sg81
g672
sg74
(lp799
g67
(g88
g69
NtRp800
(dp801
g72
(dp802
g92
g93
ssg81
g796
sg74
(lp803
g430
asbag67
(g88
g69
NtRp804
(dp805
g72
(dp806
g99
g100
ssg81
g796
sg74
(lp807
S':'
asbag67
(g88
g69
NtRp808
(dp809
g72
(dp810
sg81
g796
sg74
(lp811
g67
(g68
g69
NtRp812
(dp813
g72
(dp814
g80
I3
ssg81
g808
sg74
(lp815
S''
asbasbasbag67
(g83
g69
NtRp816
(dp817
g72
(dp818
sg81
g672
sg74
(lp819
g67
(g88
g69
NtRp820
(dp821
g72
(dp822
g92
g93
ssg81
g816
sg74
(lp823
g451
asbag67
(g88
g69
NtRp824
(dp825
g72
(dp826
g99
g100
ssg81
g816
sg74
(lp827
S':'
asbag67
(g88
g69
NtRp828
(dp829
g72
(dp830
sg81
g816
sg74
(lp831
g67
(g68
g69
NtRp832
(dp833
g72
(dp834
g80
I3
ssg81
g828
sg74
(lp835
S''
asbasbasbasbasbasbasbasbasbasbasbag67
(g83
g69
NtRp836
(dp837
g72
(dp838
sg81
g77
sg74
(lp839
g67
(g88
g69
NtRp840
(dp841
g72
(dp842
g92
g93
ssg81
g836
sg74
(lp843
S'env'
p844
asbag67
(g88
g69
NtRp845
(dp846
g72
(dp847
g99
g100
ssg81
g836
sg74
(lp848
S':'
asbag67
(g88
g69
NtRp849
(dp850
g72
(dp851
sg81
g836
sg74
(lp852
g67
(g68
g69
NtRp853
(dp854
g72
(dp855
g80
I5
ssg81
g849
sg74
(lp856
g67
(g76
g69
NtRp857
(dp858
g72
(dp859
g80
I4
ssg81
Nsg74
(lp860
g67
(g83
g69
NtRp861
(dp862
g72
(dp863
sg81
g857
sg74
(lp864
g67
(g88
g69
NtRp865
(dp866
g72
(dp867
g92
g93
ssg81
g861
sg74
(lp868
S'app_folders'
p869
asbag67
(g88
g69
NtRp870
(dp871
g72
(dp872
g99
g100
ssg81
g861
sg74
(lp873
S':'
asbag67
(g88
g69
NtRp874
(dp875
g72
(dp876
sg81
g861
sg74
(lp877
g67
(g68
g69
NtRp878
(dp879
g72
(dp880
g80
I4
ssg81
g874
sg74
(lp881
S"set(['/Users/keshav/Desktop/web2py/applications/MyApp/', '/Users/keshav/Desktop/web2py/applications/admin/', '/Users/keshav/Desktop/web2py/applications/welcome/'])"
p882
asbasbasbag67
(g83
g69
NtRp883
(dp884
g72
(dp885
sg81
g857
sg74
(lp886
g67
(g88
g69
NtRp887
(dp888
g72
(dp889
g92
g93
ssg81
g883
sg74
(lp890
S'applications_parent'
p891
asbag67
(g88
g69
NtRp892
(dp893
g72
(dp894
g99
g100
ssg81
g883
sg74
(lp895
S':'
asbag67
(g88
g69
NtRp896
(dp897
g72
(dp898
sg81
g883
sg74
(lp899
g67
(g68
g69
NtRp900
(dp901
g72
(dp902
g80
I4
ssg81
g896
sg74
(lp903
S'/Users/keshav/Desktop/web2py'
p904
asbasbasbag67
(g83
g69
NtRp905
(dp906
g72
(dp907
sg81
g857
sg74
(lp908
g67
(g88
g69
NtRp909
(dp910
g72
(dp911
g92
g93
ssg81
g905
sg74
(lp912
S'cmd_args'
p913
asbag67
(g88
g69
NtRp914
(dp915
g72
(dp916
g99
g100
ssg81
g905
sg74
(lp917
S':'
asbag67
(g88
g69
NtRp918
(dp919
g72
(dp920
sg81
g905
sg74
(lp921
g67
(g68
g69
NtRp922
(dp923
g72
(dp924
g80
I4
ssg81
g918
sg74
(lp925
g67
(g76
g69
NtRp926
(dp927
g72
(dp928
g80
I3
ssg81
Nsg74
(lp929
sbasbasbasbag67
(g83
g69
NtRp930
(dp931
g72
(dp932
sg81
g857
sg74
(lp933
g67
(g88
g69
NtRp934
(dp935
g72
(dp936
g92
g93
ssg81
g930
sg74
(lp937
S'cmd_options'
p938
asbag67
(g88
g69
NtRp939
(dp940
g72
(dp941
g99
g100
ssg81
g930
sg74
(lp942
S':'
asbag67
(g88
g69
NtRp943
(dp944
g72
(dp945
sg81
g930
sg74
(lp946
g67
(g68
g69
NtRp947
(dp948
g72
(dp949
g80
I4
ssg81
g943
sg74
(lp950
S"<Values at 0x10173c5a8: {'verbose': False, 'ip': '127.0.0.1', 'with_scheduler': False, 'ips': ['10.160.0.40'], 'shutdown_timeout': 5, 'taskbar': False, 'port': 8000, 'maxthreads': None, 'softcron': False, 'server_name': 'Keshav-Choudharys-MacBook.local', 'bpython': False, 'nogui': False, 'pid_filename': 'httpserver.pid', 'extcron': False, 'runcron': False, 'run_system_tests': False, 'test': None, 'folder': '/Users/keshav/Desktop/web2py', 'config': '', 'minthreads': None, 'winservice': '', 'shell': None, 'run': '', 'log_filename': 'httpserver.log', 'debuglevel': 30, 'args': [''], 'socket_timeout': 5, 'ssl_ca_certificate': None, 'scheduler': None, 'profiler_filename': None, 'ssl_private_key': '', 'scheduler_groups': None, 'password': '<ask>', 'request_queue_size': 5, 'ssl_certificate': '', 'cronjob': False, 'numthreads': None, 'quiet': False, 'interfaces': None, 'import_models': False, 'timeout': 10, 'plain': False, 'nobanner': False}>"
p951
asbasbasbag67
(g83
g69
NtRp952
(dp953
g72
(dp954
sg81
g857
sg74
(lp955
g67
(g88
g69
NtRp956
(dp957
g72
(dp958
g92
g93
ssg81
g952
sg74
(lp959
S'db_sessions'
p960
asbag67
(g88
g69
NtRp961
(dp962
g72
(dp963
g99
g100
ssg81
g952
sg74
(lp964
S':'
asbag67
(g88
g69
NtRp965
(dp966
g72
(dp967
sg81
g952
sg74
(lp968
g67
(g68
g69
NtRp969
(dp970
g72
(dp971
g80
I4
ssg81
g965
sg74
(lp972
S'set([])'
p973
asbasbasbag67
(g83
g69
NtRp974
(dp975
g72
(dp976
sg81
g857
sg74
(lp977
g67
(g88
g69
NtRp978
(dp979
g72
(dp980
g92
g93
ssg81
g974
sg74
(lp981
S'debugging'
p982
asbag67
(g88
g69
NtRp983
(dp984
g72
(dp985
g99
g100
ssg81
g974
sg74
(lp986
S':'
asbag67
(g88
g69
NtRp987
(dp988
g72
(dp989
sg81
g974
sg74
(lp990
g67
(g68
g69
NtRp991
(dp992
g72
(dp993
g80
I4
ssg81
g987
sg74
(lp994
g110
asbasbasbag67
(g83
g69
NtRp995
(dp996
g72
(dp997
sg81
g857
sg74
(lp998
g67
(g88
g69
NtRp999
(dp1000
g72
(dp1001
g92
g93
ssg81
g995
sg74
(lp1002
S'gluon_parent'
p1003
asbag67
(g88
g69
NtRp1004
(dp1005
g72
(dp1006
g99
g100
ssg81
g995
sg74
(lp1007
S':'
asbag67
(g88
g69
NtRp1008
(dp1009
g72
(dp1010
sg81
g995
sg74
(lp1011
g67
(g68
g69
NtRp1012
(dp1013
g72
(dp1014
g80
I4
ssg81
g1008
sg74
(lp1015
S'/Users/keshav/Desktop/web2py'
p1016
asbasbasbag67
(g83
g69
NtRp1017
(dp1018
g72
(dp1019
sg81
g857
sg74
(lp1020
g67
(g88
g69
NtRp1021
(dp1022
g72
(dp1023
g92
g93
ssg81
g1017
sg74
(lp1024
S'http_accept'
p1025
asbag67
(g88
g69
NtRp1026
(dp1027
g72
(dp1028
g99
g100
ssg81
g1017
sg74
(lp1029
S':'
asbag67
(g88
g69
NtRp1030
(dp1031
g72
(dp1032
sg81
g1017
sg74
(lp1033
g67
(g68
g69
NtRp1034
(dp1035
g72
(dp1036
g80
I4
ssg81
g1030
sg74
(lp1037
S'text/html,application/xhtml+xml,application/xml;q=0.9,*/*;q=0.8'
p1038
asbasbasbag67
(g83
g69
NtRp1039
(dp1040
g72
(dp1041
sg81
g857
sg74
(lp1042
g67
(g88
g69
NtRp1043
(dp1044
g72
(dp1045
g92
g93
ssg81
g1039
sg74
(lp1046
S'http_accept_encoding'
p1047
asbag67
(g88
g69
NtRp1048
(dp1049
g72
(dp1050
g99
g100
ssg81
g1039
sg74
(lp1051
S':'
asbag67
(g88
g69
NtRp1052
(dp1053
g72
(dp1054
sg81
g1039
sg74
(lp1055
g67
(g68
g69
NtRp1056
(dp1057
g72
(dp1058
g80
I4
ssg81
g1052
sg74
(lp1059
S'gzip, deflate'
p1060
asbasbasbag67
(g83
g69
NtRp1061
(dp1062
g72
(dp1063
sg81
g857
sg74
(lp1064
g67
(g88
g69
NtRp1065
(dp1066
g72
(dp1067
g92
g93
ssg81
g1061
sg74
(lp1068
S'http_accept_language'
p1069
asbag67
(g88
g69
NtRp1070
(dp1071
g72
(dp1072
g99
g100
ssg81
g1061
sg74
(lp1073
S':'
asbag67
(g88
g69
NtRp1074
(dp1075
g72
(dp1076
sg81
g1061
sg74
(lp1077
g67
(g68
g69
NtRp1078
(dp1079
g72
(dp1080
g80
I4
ssg81
g1074
sg74
(lp1081
S'en-us'
p1082
asbasbasbag67
(g83
g69
NtRp1083
(dp1084
g72
(dp1085
sg81
g857
sg74
(lp1086
g67
(g88
g69
NtRp1087
(dp1088
g72
(dp1089
g92
g93
ssg81
g1083
sg74
(lp1090
S'http_connection'
p1091
asbag67
(g88
g69
NtRp1092
(dp1093
g72
(dp1094
g99
g100
ssg81
g1083
sg74
(lp1095
S':'
asbag67
(g88
g69
NtRp1096
(dp1097
g72
(dp1098
sg81
g1083
sg74
(lp1099
g67
(g68
g69
NtRp1100
(dp1101
g72
(dp1102
g80
I4
ssg81
g1096
sg74
(lp1103
S'keep-alive'
p1104
asbasbasbag67
(g83
g69
NtRp1105
(dp1106
g72
(dp1107
sg81
g857
sg74
(lp1108
g67
(g88
g69
NtRp1109
(dp1110
g72
(dp1111
g92
g93
ssg81
g1105
sg74
(lp1112
S'http_cookie'
p1113
asbag67
(g88
g69
NtRp1114
(dp1115
g72
(dp1116
g99
g100
ssg81
g1105
sg74
(lp1117
S':'
asbag67
(g88
g69
NtRp1118
(dp1119
g72
(dp1120
sg81
g1105
sg74
(lp1121
g67
(g68
g69
NtRp1122
(dp1123
g72
(dp1124
g80
I4
ssg81
g1118
sg74
(lp1125
S'session_id_admin=127.0.0.1-2ac05282-256e-45c0-9927-a44c4ae81fa6; session_id_myapp=127.0.0.1-7f26db05-2ed8-4b13-830c-72020f55c914; session_id_welcome=127.0.0.1-f0c2caf9-1c11-4929-be70-fabc207c9582'
p1126
asbasbasbag67
(g83
g69
NtRp1127
(dp1128
g72
(dp1129
sg81
g857
sg74
(lp1130
g67
(g88
g69
NtRp1131
(dp1132
g72
(dp1133
g92
g93
ssg81
g1127
sg74
(lp1134
S'http_host'
p1135
asbag67
(g88
g69
NtRp1136
(dp1137
g72
(dp1138
g99
g100
ssg81
g1127
sg74
(lp1139
S':'
asbag67
(g88
g69
NtRp1140
(dp1141
g72
(dp1142
sg81
g1127
sg74
(lp1143
g67
(g68
g69
NtRp1144
(dp1145
g72
(dp1146
g80
I4
ssg81
g1140
sg74
(lp1147
S'127.0.0.1:8000'
p1148
asbasbasbag67
(g83
g69
NtRp1149
(dp1150
g72
(dp1151
sg81
g857
sg74
(lp1152
g67
(g88
g69
NtRp1153
(dp1154
g72
(dp1155
g92
g93
ssg81
g1149
sg74
(lp1156
S'http_user_agent'
p1157
asbag67
(g88
g69
NtRp1158
(dp1159
g72
(dp1160
g99
g100
ssg81
g1149
sg74
(lp1161
S':'
asbag67
(g88
g69
NtRp1162
(dp1163
g72
(dp1164
sg81
g1149
sg74
(lp1165
g67
(g68
g69
NtRp1166
(dp1167
g72
(dp1168
g80
I4
ssg81
g1162
sg74
(lp1169
S'Mozilla/5.0 (Macintosh; Intel Mac OS X 10_6_8) AppleWebKit/534.57.2 (KHTML, like Gecko) Version/5.1.7 Safari/534.57.2'
p1170
asbasbasbag67
(g83
g69
NtRp1171
(dp1172
g72
(dp1173
sg81
g857
sg74
(lp1174
g67
(g88
g69
NtRp1175
(dp1176
g72
(dp1177
g92
g93
ssg81
g1171
sg74
(lp1178
S'is_jython'
p1179
asbag67
(g88
g69
NtRp1180
(dp1181
g72
(dp1182
g99
g100
ssg81
g1171
sg74
(lp1183
S':'
asbag67
(g88
g69
NtRp1184
(dp1185
g72
(dp1186
sg81
g1171
sg74
(lp1187
g67
(g68
g69
NtRp1188
(dp1189
g72
(dp1190
g80
I4
ssg81
g1184
sg74
(lp1191
g110
asbasbasbag67
(g83
g69
NtRp1192
(dp1193
g72
(dp1194
sg81
g857
sg74
(lp1195
g67
(g88
g69
NtRp1196
(dp1197
g72
(dp1198
g92
g93
ssg81
g1192
sg74
(lp1199
S'is_pypy'
p1200
asbag67
(g88
g69
NtRp1201
(dp1202
g72
(dp1203
g99
g100
ssg81
g1192
sg74
(lp1204
S':'
asbag67
(g88
g69
NtRp1205
(dp1206
g72
(dp1207
sg81
g1192
sg74
(lp1208
g67
(g68
g69
NtRp1209
(dp1210
g72
(dp1211
g80
I4
ssg81
g1205
sg74
(lp1212
g110
asbasbasbag67
(g83
g69
NtRp1213
(dp1214
g72
(dp1215
sg81
g857
sg74
(lp1216
g67
(g88
g69
NtRp1217
(dp1218
g72
(dp1219
g92
g93
ssg81
g1213
sg74
(lp1220
S'local_hosts'
p1221
asbag67
(g88
g69
NtRp1222
(dp1223
g72
(dp1224
g99
g100
ssg81
g1213
sg74
(lp1225
S':'
asbag67
(g88
g69
NtRp1226
(dp1227
g72
(dp1228
sg81
g1213
sg74
(lp1229
g67
(g68
g69
NtRp1230
(dp1231
g72
(dp1232
g80
I4
ssg81
g1226
sg74
(lp1233
g67
(g76
g69
NtRp1234
(dp1235
g72
(dp1236
g80
I3
ssg81
Nsg74
(lp1237
g67
(g83
g69
NtRp1238
(dp1239
g72
(dp1240
sg81
g1234
sg74
(lp1241
g67
(g88
g69
NtRp1242
(dp1243
g72
(dp1244
sg81
g1238
sg74
(lp1245
g67
(g68
g69
NtRp1246
(dp1247
g72
(dp1248
g80
I3
ssg81
g1242
sg74
(lp1249
S'127.0.0.1'
p1250
asbasbasbag67
(g83
g69
NtRp1251
(dp1252
g72
(dp1253
sg81
g1234
sg74
(lp1254
g67
(g88
g69
NtRp1255
(dp1256
g72
(dp1257
sg81
g1251
sg74
(lp1258
g67
(g68
g69
NtRp1259
(dp1260
g72
(dp1261
g80
I3
ssg81
g1255
sg74
(lp1262
S'::ffff:127.0.0.1'
p1263
asbasbasbag67
(g83
g69
NtRp1264
(dp1265
g72
(dp1266
sg81
g1234
sg74
(lp1267
g67
(g88
g69
NtRp1268
(dp1269
g72
(dp1270
sg81
g1264
sg74
(lp1271
g67
(g68
g69
NtRp1272
(dp1273
g72
(dp1274
g80
I3
ssg81
g1268
sg74
(lp1275
S'Keshav-Choudharys-MacBook.local'
p1276
asbasbasbag67
(g83
g69
NtRp1277
(dp1278
g72
(dp1279
sg81
g1234
sg74
(lp1280
g67
(g88
g69
NtRp1281
(dp1282
g72
(dp1283
sg81
g1277
sg74
(lp1284
g67
(g68
g69
NtRp1285
(dp1286
g72
(dp1287
g80
I3
ssg81
g1281
sg74
(lp1288
S'Keshav-Choudharys-MacBook.local'
p1289
asbasbasbag67
(g83
g69
NtRp1290
(dp1291
g72
(dp1292
sg81
g1234
sg74
(lp1293
g67
(g88
g69
NtRp1294
(dp1295
g72
(dp1296
sg81
g1290
sg74
(lp1297
g67
(g68
g69
NtRp1298
(dp1299
g72
(dp1300
g80
I3
ssg81
g1294
sg74
(lp1301
S'10.160.0.40'
p1302
asbasbasbasbasbasbasbag67
(g83
g69
NtRp1303
(dp1304
g72
(dp1305
sg81
g857
sg74
(lp1306
g67
(g88
g69
NtRp1307
(dp1308
g72
(dp1309
g92
g93
ssg81
g1303
sg74
(lp1310
S'path_info'
p1311
asbag67
(g88
g69
NtRp1312
(dp1313
g72
(dp1314
g99
g100
ssg81
g1303
sg74
(lp1315
S':'
asbag67
(g88
g69
NtRp1316
(dp1317
g72
(dp1318
sg81
g1303
sg74
(lp1319
g67
(g68
g69
NtRp1320
(dp1321
g72
(dp1322
g80
I4
ssg81
g1316
sg74
(lp1323
S'/MyApp/default/index'
p1324
asbasbasbag67
(g83
g69
NtRp1325
(dp1326
g72
(dp1327
sg81
g857
sg74
(lp1328
g67
(g88
g69
NtRp1329
(dp1330
g72
(dp1331
g92
g93
ssg81
g1325
sg74
(lp1332
S'query_string'
p1333
asbag67
(g88
g69
NtRp1334
(dp1335
g72
(dp1336
g99
g100
ssg81
g1325
sg74
(lp1337
S':'
asbag67
(g88
g69
NtRp1338
(dp1339
g72
(dp1340
sg81
g1325
sg74
(lp1341
g67
(g68
g69
NtRp1342
(dp1343
g72
(dp1344
g80
I4
ssg81
g1338
sg74
(lp1345
S''
asbasbasbag67
(g83
g69
NtRp1346
(dp1347
g72
(dp1348
sg81
g857
sg74
(lp1349
g67
(g88
g69
NtRp1350
(dp1351
g72
(dp1352
g92
g93
ssg81
g1346
sg74
(lp1353
S'remote_addr'
p1354
asbag67
(g88
g69
NtRp1355
(dp1356
g72
(dp1357
g99
g100
ssg81
g1346
sg74
(lp1358
S':'
asbag67
(g88
g69
NtRp1359
(dp1360
g72
(dp1361
sg81
g1346
sg74
(lp1362
g67
(g68
g69
NtRp1363
(dp1364
g72
(dp1365
g80
I4
ssg81
g1359
sg74
(lp1366
g222
asbasbasbag67
(g83
g69
NtRp1367
(dp1368
g72
(dp1369
sg81
g857
sg74
(lp1370
g67
(g88
g69
NtRp1371
(dp1372
g72
(dp1373
g92
g93
ssg81
g1367
sg74
(lp1374
S'remote_port'
p1375
asbag67
(g88
g69
NtRp1376
(dp1377
g72
(dp1378
g99
g100
ssg81
g1367
sg74
(lp1379
S':'
asbag67
(g88
g69
NtRp1380
(dp1381
g72
(dp1382
sg81
g1367
sg74
(lp1383
g67
(g68
g69
NtRp1384
(dp1385
g72
(dp1386
g80
I4
ssg81
g1380
sg74
(lp1387
S'51569'
p1388
asbasbasbag67
(g83
g69
NtRp1389
(dp1390
g72
(dp1391
sg81
g857
sg74
(lp1392
g67
(g88
g69
NtRp1393
(dp1394
g72
(dp1395
g92
g93
ssg81
g1389
sg74
(lp1396
S'request_method'
p1397
asbag67
(g88
g69
NtRp1398
(dp1399
g72
(dp1400
g99
g100
ssg81
g1389
sg74
(lp1401
S':'
asbag67
(g88
g69
NtRp1402
(dp1403
g72
(dp1404
sg81
g1389
sg74
(lp1405
g67
(g68
g69
NtRp1406
(dp1407
g72
(dp1408
g80
I4
ssg81
g1402
sg74
(lp1409
S'GET'
p1410
asbasbasbag67
(g83
g69
NtRp1411
(dp1412
g72
(dp1413
sg81
g857
sg74
(lp1414
g67
(g88
g69
NtRp1415
(dp1416
g72
(dp1417
g92
g93
ssg81
g1411
sg74
(lp1418
S'request_uri'
p1419
asbag67
(g88
g69
NtRp1420
(dp1421
g72
(dp1422
g99
g100
ssg81
g1411
sg74
(lp1423
S':'
asbag67
(g88
g69
NtRp1424
(dp1425
g72
(dp1426
sg81
g1411
sg74
(lp1427
g67
(g68
g69
NtRp1428
(dp1429
g72
(dp1430
g80
I4
ssg81
g1424
sg74
(lp1431
g1324
asbasbasbag67
(g83
g69
NtRp1432
(dp1433
g72
(dp1434
sg81
g857
sg74
(lp1435
g67
(g88
g69
NtRp1436
(dp1437
g72
(dp1438
g92
g93
ssg81
g1432
sg74
(lp1439
S'script_name'
p1440
asbag67
(g88
g69
NtRp1441
(dp1442
g72
(dp1443
g99
g100
ssg81
g1432
sg74
(lp1444
S':'
asbag67
(g88
g69
NtRp1445
(dp1446
g72
(dp1447
sg81
g1432
sg74
(lp1448
g67
(g68
g69
NtRp1449
(dp1450
g72
(dp1451
g80
I4
ssg81
g1445
sg74
(lp1452
S''
asbasbasbag67
(g83
g69
NtRp1453
(dp1454
g72
(dp1455
sg81
g857
sg74
(lp1456
g67
(g88
g69
NtRp1457
(dp1458
g72
(dp1459
g92
g93
ssg81
g1453
sg74
(lp1460
S'server_name'
p1461
asbag67
(g88
g69
NtRp1462
(dp1463
g72
(dp1464
g99
g100
ssg81
g1453
sg74
(lp1465
S':'
asbag67
(g88
g69
NtRp1466
(dp1467
g72
(dp1468
sg81
g1453
sg74
(lp1469
g67
(g68
g69
NtRp1470
(dp1471
g72
(dp1472
g80
I4
ssg81
g1466
sg74
(lp1473
g1289
asbasbasbag67
(g83
g69
NtRp1474
(dp1475
g72
(dp1476
sg81
g857
sg74
(lp1477
g67
(g88
g69
NtRp1478
(dp1479
g72
(dp1480
g92
g93
ssg81
g1474
sg74
(lp1481
S'server_port'
p1482
asbag67
(g88
g69
NtRp1483
(dp1484
g72
(dp1485
g99
g100
ssg81
g1474
sg74
(lp1486
S':'
asbag67
(g88
g69
NtRp1487
(dp1488
g72
(dp1489
sg81
g1474
sg74
(lp1490
g67
(g68
g69
NtRp1491
(dp1492
g72
(dp1493
g80
I4
ssg81
g1487
sg74
(lp1494
S'8000'
p1495
asbasbasbag67
(g83
g69
NtRp1496
(dp1497
g72
(dp1498
sg81
g857
sg74
(lp1499
g67
(g88
g69
NtRp1500
(dp1501
g72
(dp1502
g92
g93
ssg81
g1496
sg74
(lp1503
S'server_protocol'
p1504
asbag67
(g88
g69
NtRp1505
(dp1506
g72
(dp1507
g99
g100
ssg81
g1496
sg74
(lp1508
S':'
asbag67
(g88
g69
NtRp1509
(dp1510
g72
(dp1511
sg81
g1496
sg74
(lp1512
g67
(g68
g69
NtRp1513
(dp1514
g72
(dp1515
g80
I4
ssg81
g1509
sg74
(lp1516
S'HTTP/1.1'
p1517
asbasbasbag67
(g83
g69
NtRp1518
(dp1519
g72
(dp1520
sg81
g857
sg74
(lp1521
g67
(g88
g69
NtRp1522
(dp1523
g72
(dp1524
g92
g93
ssg81
g1518
sg74
(lp1525
S'server_software'
p1526
asbag67
(g88
g69
NtRp1527
(dp1528
g72
(dp1529
g99
g100
ssg81
g1518
sg74
(lp1530
S':'
asbag67
(g88
g69
NtRp1531
(dp1532
g72
(dp1533
sg81
g1518
sg74
(lp1534
g67
(g68
g69
NtRp1535
(dp1536
g72
(dp1537
g80
I4
ssg81
g1531
sg74
(lp1538
S'Rocket 1.2.5'
p1539
asbasbasbag67
(g83
g69
NtRp1540
(dp1541
g72
(dp1542
sg81
g857
sg74
(lp1543
g67
(g88
g69
NtRp1544
(dp1545
g72
(dp1546
g92
g93
ssg81
g1540
sg74
(lp1547
S'web2py_path'
p1548
asbag67
(g88
g69
NtRp1549
(dp1550
g72
(dp1551
g99
g100
ssg81
g1540
sg74
(lp1552
S':'
asbag67
(g88
g69
NtRp1553
(dp1554
g72
(dp1555
sg81
g1540
sg74
(lp1556
g67
(g68
g69
NtRp1557
(dp1558
g72
(dp1559
g80
I4
ssg81
g1553
sg74
(lp1560
g904
asbasbasbag67
(g83
g69
NtRp1561
(dp1562
g72
(dp1563
sg81
g857
sg74
(lp1564
g67
(g88
g69
NtRp1565
(dp1566
g72
(dp1567
g92
g93
ssg81
g1561
sg74
(lp1568
S'web2py_version'
p1569
asbag67
(g88
g69
NtRp1570
(dp1571
g72
(dp1572
g99
g100
ssg81
g1561
sg74
(lp1573
S':'
asbag67
(g88
g69
NtRp1574
(dp1575
g72
(dp1576
sg81
g1561
sg74
(lp1577
g67
(g68
g69
NtRp1578
(dp1579
g72
(dp1580
g80
I4
ssg81
g1574
sg74
(lp1581
g67
(g76
g69
NtRp1582
(dp1583
g72
(dp1584
g80
I3
ssg81
Nsg74
(lp1585
g67
(g83
g69
NtRp1586
(dp1587
g72
(dp1588
sg81
g1582
sg74
(lp1589
g67
(g88
g69
NtRp1590
(dp1591
g72
(dp1592
sg81
g1586
sg74
(lp1593
g67
(g68
g69
NtRp1594
(dp1595
g72
(dp1596
g80
I3
ssg81
g1590
sg74
(lp1597
S'2'
asbasbasbag67
(g83
g69
NtRp1598
(dp1599
g72
(dp1600
sg81
g1582
sg74
(lp1601
g67
(g88
g69
NtRp1602
(dp1603
g72
(dp1604
sg81
g1598
sg74
(lp1605
g67
(g68
g69
NtRp1606
(dp1607
g72
(dp1608
g80
I3
ssg81
g1602
sg74
(lp1609
S'2'
asbasbasbag67
(g83
g69
NtRp1610
(dp1611
g72
(dp1612
sg81
g1582
sg74
(lp1613
g67
(g88
g69
NtRp1614
(dp1615
g72
(dp1616
sg81
g1610
sg74
(lp1617
g67
(g68
g69
NtRp1618
(dp1619
g72
(dp1620
g80
I3
ssg81
g1614
sg74
(lp1621
S'1'
asbasbasbag67
(g83
g69
NtRp1622
(dp1623
g72
(dp1624
sg81
g1582
sg74
(lp1625
g67
(g88
g69
NtRp1626
(dp1627
g72
(dp1628
sg81
g1622
sg74
(lp1629
g67
(g68
g69
NtRp1630
(dp1631
g72
(dp1632
g80
I3
ssg81
g1626
sg74
(lp1633
S'datetime.datetime(2012, 10, 21, 16, 57, 4)'
p1634
asbasbasbag67
(g83
g69
NtRp1635
(dp1636
g72
(dp1637
sg81
g1582
sg74
(lp1638
g67
(g88
g69
NtRp1639
(dp1640
g72
(dp1641
sg81
g1635
sg74
(lp1642
g67
(g68
g69
NtRp1643
(dp1644
g72
(dp1645
g80
I3
ssg81
g1639
sg74
(lp1646
S'stable'
p1647
asbasbasbasbasbasbasbag67
(g83
g69
NtRp1648
(dp1649
g72
(dp1650
sg81
g857
sg74
(lp1651
g67
(g88
g69
NtRp1652
(dp1653
g72
(dp1654
g92
g93
ssg81
g1648
sg74
(lp1655
S'wsgi_errors'
p1656
asbag67
(g88
g69
NtRp1657
(dp1658
g72
(dp1659
g99
g100
ssg81
g1648
sg74
(lp1660
S':'
asbag67
(g88
g69
NtRp1661
(dp1662
g72
(dp1663
sg81
g1648
sg74
(lp1664
g67
(g68
g69
NtRp1665
(dp1666
g72
(dp1667
g80
I4
ssg81
g1661
sg74
(lp1668
S"<open file '<stderr>', mode 'w' at 0x100416140>"
p1669
asbasbasbag67
(g83
g69
NtRp1670
(dp1671
g72
(dp1672
sg81
g857
sg74
(lp1673
g67
(g88
g69
NtRp1674
(dp1675
g72
(dp1676
g92
g93
ssg81
g1670
sg74
(lp1677
S'wsgi_file_wrapper'
p1678
asbag67
(g88
g69
NtRp1679
(dp1680
g72
(dp1681
g99
g100
ssg81
g1670
sg74
(lp1682
S':'
asbag67
(g88
g69
NtRp1683
(dp1684
g72
(dp1685
sg81
g1670
sg74
(lp1686
g67
(g68
g69
NtRp1687
(dp1688
g72
(dp1689
g80
I4
ssg81
g1683
sg74
(lp1690
S'<class wsgiref.util.FileWrapper at 0x101c2bad0>'
p1691
asbasbasbag67
(g83
g69
NtRp1692
(dp1693
g72
(dp1694
sg81
g857
sg74
(lp1695
g67
(g88
g69
NtRp1696
(dp1697
g72
(dp1698
g92
g93
ssg81
g1692
sg74
(lp1699
S'wsgi_input'
p1700
asbag67
(g88
g69
NtRp1701
(dp1702
g72
(dp1703
g99
g100
ssg81
g1692
sg74
(lp1704
S':'
asbag67
(g88
g69
NtRp1705
(dp1706
g72
(dp1707
sg81
g1692
sg74
(lp1708
g67
(g68
g69
NtRp1709
(dp1710
g72
(dp1711
g80
I4
ssg81
g1705
sg74
(lp1712
S'<socket._fileobject object at 0x1027d19b0>'
p1713
asbasbasbag67
(g83
g69
NtRp1714
(dp1715
g72
(dp1716
sg81
g857
sg74
(lp1717
g67
(g88
g69
NtRp1718
(dp1719
g72
(dp1720
g92
g93
ssg81
g1714
sg74
(lp1721
S'wsgi_multiprocess'
p1722
asbag67
(g88
g69
NtRp1723
(dp1724
g72
(dp1725
g99
g100
ssg81
g1714
sg74
(lp1726
S':'
asbag67
(g88
g69
NtRp1727
(dp1728
g72
(dp1729
sg81
g1714
sg74
(lp1730
g67
(g68
g69
NtRp1731
(dp1732
g72
(dp1733
g80
I4
ssg81
g1727
sg74
(lp1734
g110
asbasbasbag67
(g83
g69
NtRp1735
(dp1736
g72
(dp1737
sg81
g857
sg74
(lp1738
g67
(g88
g69
NtRp1739
(dp1740
g72
(dp1741
g92
g93
ssg81
g1735
sg74
(lp1742
S'wsgi_multithread'
p1743
asbag67
(g88
g69
NtRp1744
(dp1745
g72
(dp1746
g99
g100
ssg81
g1735
sg74
(lp1747
S':'
asbag67
(g88
g69
NtRp1748
(dp1749
g72
(dp1750
sg81
g1735
sg74
(lp1751
g67
(g68
g69
NtRp1752
(dp1753
g72
(dp1754
g80
I4
ssg81
g1748
sg74
(lp1755
S'True'
p1756
asbasbasbag67
(g83
g69
NtRp1757
(dp1758
g72
(dp1759
sg81
g857
sg74
(lp1760
g67
(g88
g69
NtRp1761
(dp1762
g72
(dp1763
g92
g93
ssg81
g1757
sg74
(lp1764
S'wsgi_run_once'
p1765
asbag67
(g88
g69
NtRp1766
(dp1767
g72
(dp1768
g99
g100
ssg81
g1757
sg74
(lp1769
S':'
asbag67
(g88
g69
NtRp1770
(dp1771
g72
(dp1772
sg81
g1757
sg74
(lp1773
g67
(g68
g69
NtRp1774
(dp1775
g72
(dp1776
g80
I4
ssg81
g1770
sg74
(lp1777
g110
asbasbasbag67
(g83
g69
NtRp1778
(dp1779
g72
(dp1780
sg81
g857
sg74
(lp1781
g67
(g88
g69
NtRp1782
(dp1783
g72
(dp1784
g92
g93
ssg81
g1778
sg74
(lp1785
S'wsgi_url_scheme'
p1786
asbag67
(g88
g69
NtRp1787
(dp1788
g72
(dp1789
g99
g100
ssg81
g1778
sg74
(lp1790
S':'
asbag67
(g88
g69
NtRp1791
(dp1792
g72
(dp1793
sg81
g1778
sg74
(lp1794
g67
(g68
g69
NtRp1795
(dp1796
g72
(dp1797
g80
I4
ssg81
g1791
sg74
(lp1798
S'http'
p1799
asbasbasbag67
(g83
g69
NtRp1800
(dp1801
g72
(dp1802
sg81
g857
sg74
(lp1803
g67
(g88
g69
NtRp1804
(dp1805
g72
(dp1806
g92
g93
ssg81
g1800
sg74
(lp1807
S'wsgi_version'
p1808
asbag67
(g88
g69
NtRp1809
(dp1810
g72
(dp1811
g99
g100
ssg81
g1800
sg74
(lp1812
S':'
asbag67
(g88
g69
NtRp1813
(dp1814
g72
(dp1815
sg81
g1800
sg74
(lp1816
g67
(g68
g69
NtRp1817
(dp1818
g72
(dp1819
g80
I4
ssg81
g1813
sg74
(lp1820
g67
(g76
g69
NtRp1821
(dp1822
g72
(dp1823
g80
I3
ssg81
Nsg74
(lp1824
g67
(g83
g69
NtRp1825
(dp1826
g72
(dp1827
sg81
g1821
sg74
(lp1828
g67
(g88
g69
NtRp1829
(dp1830
g72
(dp1831
sg81
g1825
sg74
(lp1832
g67
(g68
g69
NtRp1833
(dp1834
g72
(dp1835
g80
I3
ssg81
g1829
sg74
(lp1836
S'1'
asbasbasbag67
(g83
g69
NtRp1837
(dp1838
g72
(dp1839
sg81
g1821
sg74
(lp1840
g67
(g88
g69
NtRp1841
(dp1842
g72
(dp1843
sg81
g1837
sg74
(lp1844
g67
(g68
g69
NtRp1845
(dp1846
g72
(dp1847
g80
I3
ssg81
g1841
sg74
(lp1848
S'0'
asbasbasbasbasbasbasbasbasbasbasbag67
(g83
g69
NtRp1849
(dp1850
g72
(dp1851
sg81
g77
sg74
(lp1852
g67
(g88
g69
NtRp1853
(dp1854
g72
(dp1855
g92
g93
ssg81
g1849
sg74
(lp1856
S'extension'
p1857
asbag67
(g88
g69
NtRp1858
(dp1859
g72
(dp1860
g99
g100
ssg81
g1849
sg74
(lp1861
S':'
asbag67
(g88
g69
NtRp1862
(dp1863
g72
(dp1864
sg81
g1849
sg74
(lp1865
g67
(g68
g69
NtRp1866
(dp1867
g72
(dp1868
g80
I5
ssg81
g1862
sg74
(lp1869
S'html'
p1870
asbasbasbag67
(g83
g69
NtRp1871
(dp1872
g72
(dp1873
sg81
g77
sg74
(lp1874
g67
(g88
g69
NtRp1875
(dp1876
g72
(dp1877
g92
g93
ssg81
g1871
sg74
(lp1878
S'folder'
p1879
asbag67
(g88
g69
NtRp1880
(dp1881
g72
(dp1882
g99
g100
ssg81
g1871
sg74
(lp1883
S':'
asbag67
(g88
g69
NtRp1884
(dp1885
g72
(dp1886
sg81
g1871
sg74
(lp1887
g67
(g68
g69
NtRp1888
(dp1889
g72
(dp1890
g80
I5
ssg81
g1884
sg74
(lp1891
S'/Users/keshav/Desktop/web2py/applications/MyApp/'
p1892
asbasbasbag67
(g83
g69
NtRp1893
(dp1894
g72
(dp1895
sg81
g77
sg74
(lp1896
g67
(g88
g69
NtRp1897
(dp1898
g72
(dp1899
g92
g93
ssg81
g1893
sg74
(lp1900
S'function'
p1901
asbag67
(g88
g69
NtRp1902
(dp1903
g72
(dp1904
g99
g100
ssg81
g1893
sg74
(lp1905
S':'
asbag67
(g88
g69
NtRp1906
(dp1907
g72
(dp1908
sg81
g1893
sg74
(lp1909
g67
(g68
g69
NtRp1910
(dp1911
g72
(dp1912
g80
I5
ssg81
g1906
sg74
(lp1913
S'index'
p1914
asbasbasbag67
(g83
g69
NtRp1915
(dp1916
g72
(dp1917
sg81
g77
sg74
(lp1918
g67
(g88
g69
NtRp1919
(dp1920
g72
(dp1921
g92
g93
ssg81
g1915
sg74
(lp1922
S'get_vars'
p1923
asbag67
(g88
g69
NtRp1924
(dp1925
g72
(dp1926
g99
g100
ssg81
g1915
sg74
(lp1927
S':'
asbag67
(g88
g69
NtRp1928
(dp1929
g72
(dp1930
sg81
g1915
sg74
(lp1931
g67
(g68
g69
NtRp1932
(dp1933
g72
(dp1934
g80
I5
ssg81
g1928
sg74
(lp1935
g67
(g76
g69
NtRp1936
(dp1937
g72
(dp1938
g80
I4
ssg81
Nsg74
(lp1939
sbasbasbasbag67
(g83
g69
NtRp1940
(dp1941
g72
(dp1942
sg81
g77
sg74
(lp1943
g67
(g88
g69
NtRp1944
(dp1945
g72
(dp1946
g92
g93
ssg81
g1940
sg74
(lp1947
S'global_settings'
p1948
asbag67
(g88
g69
NtRp1949
(dp1950
g72
(dp1951
g99
g100
ssg81
g1940
sg74
(lp1952
S':'
asbag67
(g88
g69
NtRp1953
(dp1954
g72
(dp1955
sg81
g1940
sg74
(lp1956
g67
(g68
g69
NtRp1957
(dp1958
g72
(dp1959
g80
I5
ssg81
g1953
sg74
(lp1960
g67
(g76
g69
NtRp1961
(dp1962
g72
(dp1963
g80
I4
ssg81
Nsg74
(lp1964
g67
(g83
g69
NtRp1965
(dp1966
g72
(dp1967
sg81
g1961
sg74
(lp1968
g67
(g88
g69
NtRp1969
(dp1970
g72
(dp1971
g92
g93
ssg81
g1965
sg74
(lp1972
g869
asbag67
(g88
g69
NtRp1973
(dp1974
g72
(dp1975
g99
g100
ssg81
g1965
sg74
(lp1976
S':'
asbag67
(g88
g69
NtRp1977
(dp1978
g72
(dp1979
sg81
g1965
sg74
(lp1980
g67
(g68
g69
NtRp1981
(dp1982
g72
(dp1983
g80
I4
ssg81
g1977
sg74
(lp1984
S"set(['/Users/keshav/Desktop/web2py/applications/MyApp/', '/Users/keshav/Desktop/web2py/applications/admin/', '/Users/keshav/Desktop/web2py/applications/welcome/'])"
p1985
asbasbasbag67
(g83
g69
NtRp1986
(dp1987
g72
(dp1988
sg81
g1961
sg74
(lp1989
g67
(g88
g69
NtRp1990
(dp1991
g72
(dp1992
g92
g93
ssg81
g1986
sg74
(lp1993
g891
asbag67
(g88
g69
NtRp1994
(dp1995
g72
(dp1996
g99
g100
ssg81
g1986
sg74
(lp1997
S':'
asbag67
(g88
g69
NtRp1998
(dp1999
g72
(dp2000
sg81
g1986
sg74
(lp2001
g67
(g68
g69
NtRp2002
(dp2003
g72
(dp2004
g80
I4
ssg81
g1998
sg74
(lp2005
g904
asbasbasbag67
(g83
g69
NtRp2006
(dp2007
g72
(dp2008
sg81
g1961
sg74
(lp2009
g67
(g88
g69
NtRp2010
(dp2011
g72
(dp2012
g92
g93
ssg81
g2006
sg74
(lp2013
g913
asbag67
(g88
g69
NtRp2014
(dp2015
g72
(dp2016
g99
g100
ssg81
g2006
sg74
(lp2017
S':'
asbag67
(g88
g69
NtRp2018
(dp2019
g72
(dp2020
sg81
g2006
sg74
(lp2021
g67
(g68
g69
NtRp2022
(dp2023
g72
(dp2024
g80
I4
ssg81
g2018
sg74
(lp2025
g67
(g76
g69
NtRp2026
(dp2027
g72
(dp2028
g80
I3
ssg81
Nsg74
(lp2029
sbasbasbasbag67
(g83
g69
NtRp2030
(dp2031
g72
(dp2032
sg81
g1961
sg74
(lp2033
g67
(g88
g69
NtRp2034
(dp2035
g72
(dp2036
g92
g93
ssg81
g2030
sg74
(lp2037
g938
asbag67
(g88
g69
NtRp2038
(dp2039
g72
(dp2040
g99
g100
ssg81
g2030
sg74
(lp2041
S':'
asbag67
(g88
g69
NtRp2042
(dp2043
g72
(dp2044
sg81
g2030
sg74
(lp2045
g67
(g68
g69
NtRp2046
(dp2047
g72
(dp2048
g80
I4
ssg81
g2042
sg74
(lp2049
S"<Values at 0x10173c5a8: {'verbose': False, 'ip': '127.0.0.1', 'with_scheduler': False, 'ips': ['10.160.0.40'], 'shutdown_timeout': 5, 'taskbar': False, 'port': 8000, 'maxthreads': None, 'softcron': False, 'server_name': 'Keshav-Choudharys-MacBook.local', 'bpython': False, 'nogui': False, 'pid_filename': 'httpserver.pid', 'extcron': False, 'runcron': False, 'run_system_tests': False, 'test': None, 'folder': '/Users/keshav/Desktop/web2py', 'config': '', 'minthreads': None, 'winservice': '', 'shell': None, 'run': '', 'log_filename': 'httpserver.log', 'debuglevel': 30, 'args': [''], 'socket_timeout': 5, 'ssl_ca_certificate': None, 'scheduler': None, 'profiler_filename': None, 'ssl_private_key': '', 'scheduler_groups': None, 'password': '<ask>', 'request_queue_size': 5, 'ssl_certificate': '', 'cronjob': False, 'numthreads': None, 'quiet': False, 'interfaces': None, 'import_models': False, 'timeout': 10, 'plain': False, 'nobanner': False}>"
p2050
asbasbasbag67
(g83
g69
NtRp2051
(dp2052
g72
(dp2053
sg81
g1961
sg74
(lp2054
g67
(g88
g69
NtRp2055
(dp2056
g72
(dp2057
g92
g93
ssg81
g2051
sg74
(lp2058
g960
asbag67
(g88
g69
NtRp2059
(dp2060
g72
(dp2061
g99
g100
ssg81
g2051
sg74
(lp2062
S':'
asbag67
(g88
g69
NtRp2063
(dp2064
g72
(dp2065
sg81
g2051
sg74
(lp2066
g67
(g68
g69
NtRp2067
(dp2068
g72
(dp2069
g80
I4
ssg81
g2063
sg74
(lp2070
S'set([])'
p2071
asbasbasbag67
(g83
g69
NtRp2072
(dp2073
g72
(dp2074
sg81
g1961
sg74
(lp2075
g67
(g88
g69
NtRp2076
(dp2077
g72
(dp2078
g92
g93
ssg81
g2072
sg74
(lp2079
g982
asbag67
(g88
g69
NtRp2080
(dp2081
g72
(dp2082
g99
g100
ssg81
g2072
sg74
(lp2083
S':'
asbag67
(g88
g69
NtRp2084
(dp2085
g72
(dp2086
sg81
g2072
sg74
(lp2087
g67
(g68
g69
NtRp2088
(dp2089
g72
(dp2090
g80
I4
ssg81
g2084
sg74
(lp2091
g110
asbasbasbag67
(g83
g69
NtRp2092
(dp2093
g72
(dp2094
sg81
g1961
sg74
(lp2095
g67
(g88
g69
NtRp2096
(dp2097
g72
(dp2098
g92
g93
ssg81
g2092
sg74
(lp2099
g1003
asbag67
(g88
g69
NtRp2100
(dp2101
g72
(dp2102
g99
g100
ssg81
g2092
sg74
(lp2103
S':'
asbag67
(g88
g69
NtRp2104
(dp2105
g72
(dp2106
sg81
g2092
sg74
(lp2107
g67
(g68
g69
NtRp2108
(dp2109
g72
(dp2110
g80
I4
ssg81
g2104
sg74
(lp2111
g1016
asbasbasbag67
(g83
g69
NtRp2112
(dp2113
g72
(dp2114
sg81
g1961
sg74
(lp2115
g67
(g88
g69
NtRp2116
(dp2117
g72
(dp2118
g92
g93
ssg81
g2112
sg74
(lp2119
g1179
asbag67
(g88
g69
NtRp2120
(dp2121
g72
(dp2122
g99
g100
ssg81
g2112
sg74
(lp2123
S':'
asbag67
(g88
g69
NtRp2124
(dp2125
g72
(dp2126
sg81
g2112
sg74
(lp2127
g67
(g68
g69
NtRp2128
(dp2129
g72
(dp2130
g80
I4
ssg81
g2124
sg74
(lp2131
g110
asbasbasbag67
(g83
g69
NtRp2132
(dp2133
g72
(dp2134
sg81
g1961
sg74
(lp2135
g67
(g88
g69
NtRp2136
(dp2137
g72
(dp2138
g92
g93
ssg81
g2132
sg74
(lp2139
g1200
asbag67
(g88
g69
NtRp2140
(dp2141
g72
(dp2142
g99
g100
ssg81
g2132
sg74
(lp2143
S':'
asbag67
(g88
g69
NtRp2144
(dp2145
g72
(dp2146
sg81
g2132
sg74
(lp2147
g67
(g68
g69
NtRp2148
(dp2149
g72
(dp2150
g80
I4
ssg81
g2144
sg74
(lp2151
g110
asbasbasbag67
(g83
g69
NtRp2152
(dp2153
g72
(dp2154
sg81
g1961
sg74
(lp2155
g67
(g88
g69
NtRp2156
(dp2157
g72
(dp2158
g92
g93
ssg81
g2152
sg74
(lp2159
g1221
asbag67
(g88
g69
NtRp2160
(dp2161
g72
(dp2162
g99
g100
ssg81
g2152
sg74
(lp2163
S':'
asbag67
(g88
g69
NtRp2164
(dp2165
g72
(dp2166
sg81
g2152
sg74
(lp2167
g67
(g68
g69
NtRp2168
(dp2169
g72
(dp2170
g80
I4
ssg81
g2164
sg74
(lp2171
g67
(g76
g69
NtRp2172
(dp2173
g72
(dp2174
g80
I3
ssg81
Nsg74
(lp2175
g67
(g83
g69
NtRp2176
(dp2177
g72
(dp2178
sg81
g2172
sg74
(lp2179
g67
(g88
g69
NtRp2180
(dp2181
g72
(dp2182
sg81
g2176
sg74
(lp2183
g67
(g68
g69
NtRp2184
(dp2185
g72
(dp2186
g80
I3
ssg81
g2180
sg74
(lp2187
g1250
asbasbasbag67
(g83
g69
NtRp2188
(dp2189
g72
(dp2190
sg81
g2172
sg74
(lp2191
g67
(g88
g69
NtRp2192
(dp2193
g72
(dp2194
sg81
g2188
sg74
(lp2195
g67
(g68
g69
NtRp2196
(dp2197
g72
(dp2198
g80
I3
ssg81
g2192
sg74
(lp2199
g1263
asbasbasbag67
(g83
g69
NtRp2200
(dp2201
g72
(dp2202
sg81
g2172
sg74
(lp2203
g67
(g88
g69
NtRp2204
(dp2205
g72
(dp2206
sg81
g2200
sg74
(lp2207
g67
(g68
g69
NtRp2208
(dp2209
g72
(dp2210
g80
I3
ssg81
g2204
sg74
(lp2211
g1276
asbasbasbag67
(g83
g69
NtRp2212
(dp2213
g72
(dp2214
sg81
g2172
sg74
(lp2215
g67
(g88
g69
NtRp2216
(dp2217
g72
(dp2218
sg81
g2212
sg74
(lp2219
g67
(g68
g69
NtRp2220
(dp2221
g72
(dp2222
g80
I3
ssg81
g2216
sg74
(lp2223
g1289
asbasbasbag67
(g83
g69
NtRp2224
(dp2225
g72
(dp2226
sg81
g2172
sg74
(lp2227
g67
(g88
g69
NtRp2228
(dp2229
g72
(dp2230
sg81
g2224
sg74
(lp2231
g67
(g68
g69
NtRp2232
(dp2233
g72
(dp2234
g80
I3
ssg81
g2228
sg74
(lp2235
g1302
asbasbasbasbasbasbasbag67
(g83
g69
NtRp2236
(dp2237
g72
(dp2238
sg81
g1961
sg74
(lp2239
g67
(g88
g69
NtRp2240
(dp2241
g72
(dp2242
g92
g93
ssg81
g2236
sg74
(lp2243
g1569
asbag67
(g88
g69
NtRp2244
(dp2245
g72
(dp2246
g99
g100
ssg81
g2236
sg74
(lp2247
S':'
asbag67
(g88
g69
NtRp2248
(dp2249
g72
(dp2250
sg81
g2236
sg74
(lp2251
g67
(g68
g69
NtRp2252
(dp2253
g72
(dp2254
g80
I4
ssg81
g2248
sg74
(lp2255
g67
(g76
g69
NtRp2256
(dp2257
g72
(dp2258
g80
I3
ssg81
Nsg74
(lp2259
g67
(g83
g69
NtRp2260
(dp2261
g72
(dp2262
sg81
g2256
sg74
(lp2263
g67
(g88
g69
NtRp2264
(dp2265
g72
(dp2266
sg81
g2260
sg74
(lp2267
g67
(g68
g69
NtRp2268
(dp2269
g72
(dp2270
g80
I3
ssg81
g2264
sg74
(lp2271
S'2'
asbasbasbag67
(g83
g69
NtRp2272
(dp2273
g72
(dp2274
sg81
g2256
sg74
(lp2275
g67
(g88
g69
NtRp2276
(dp2277
g72
(dp2278
sg81
g2272
sg74
(lp2279
g67
(g68
g69
NtRp2280
(dp2281
g72
(dp2282
g80
I3
ssg81
g2276
sg74
(lp2283
S'2'
asbasbasbag67
(g83
g69
NtRp2284
(dp2285
g72
(dp2286
sg81
g2256
sg74
(lp2287
g67
(g88
g69
NtRp2288
(dp2289
g72
(dp2290
sg81
g2284
sg74
(lp2291
g67
(g68
g69
NtRp2292
(dp2293
g72
(dp2294
g80
I3
ssg81
g2288
sg74
(lp2295
S'1'
asbasbasbag67
(g83
g69
NtRp2296
(dp2297
g72
(dp2298
sg81
g2256
sg74
(lp2299
g67
(g88
g69
NtRp2300
(dp2301
g72
(dp2302
sg81
g2296
sg74
(lp2303
g67
(g68
g69
NtRp2304
(dp2305
g72
(dp2306
g80
I3
ssg81
g2300
sg74
(lp2307
S'datetime.datetime(2012, 10, 21, 16, 57, 4)'
p2308
asbasbasbag67
(g83
g69
NtRp2309
(dp2310
g72
(dp2311
sg81
g2256
sg74
(lp2312
g67
(g88
g69
NtRp2313
(dp2314
g72
(dp2315
sg81
g2309
sg74
(lp2316
g67
(g68
g69
NtRp2317
(dp2318
g72
(dp2319
g80
I3
ssg81
g2313
sg74
(lp2320
g1647
asbasbasbasbasbasbasbasbasbasbasbag67
(g83
g69
NtRp2321
(dp2322
g72
(dp2323
sg81
g77
sg74
(lp2324
g67
(g88
g69
NtRp2325
(dp2326
g72
(dp2327
g92
g93
ssg81
g2321
sg74
(lp2328
S'is_https'
p2329
asbag67
(g88
g69
NtRp2330
(dp2331
g72
(dp2332
g99
g100
ssg81
g2321
sg74
(lp2333
S':'
asbag67
(g88
g69
NtRp2334
(dp2335
g72
(dp2336
sg81
g2321
sg74
(lp2337
g67
(g68
g69
NtRp2338
(dp2339
g72
(dp2340
g80
I5
ssg81
g2334
sg74
(lp2341
g110
asbasbasbag67
(g83
g69
NtRp2342
(dp2343
g72
(dp2344
sg81
g77
sg74
(lp2345
g67
(g88
g69
NtRp2346
(dp2347
g72
(dp2348
g92
g93
ssg81
g2342
sg74
(lp2349
S'is_local'
p2350
asbag67
(g88
g69
NtRp2351
(dp2352
g72
(dp2353
g99
g100
ssg81
g2342
sg74
(lp2354
S':'
asbag67
(g88
g69
NtRp2355
(dp2356
g72
(dp2357
sg81
g2342
sg74
(lp2358
g67
(g68
g69
NtRp2359
(dp2360
g72
(dp2361
g80
I5
ssg81
g2355
sg74
(lp2362
g1756
asbasbasbag67
(g83
g69
NtRp2363
(dp2364
g72
(dp2365
sg81
g77
sg74
(lp2366
g67
(g88
g69
NtRp2367
(dp2368
g72
(dp2369
g92
g93
ssg81
g2363
sg74
(lp2370
S'is_restful'
p2371
asbag67
(g88
g69
NtRp2372
(dp2373
g72
(dp2374
g99
g100
ssg81
g2363
sg74
(lp2375
S':'
asbag67
(g88
g69
NtRp2376
(dp2377
g72
(dp2378
sg81
g2363
sg74
(lp2379
g67
(g68
g69
NtRp2380
(dp2381
g72
(dp2382
g80
I5
ssg81
g2376
sg74
(lp2383
g110
asbasbasbag67
(g83
g69
NtRp2384
(dp2385
g72
(dp2386
sg81
g77
sg74
(lp2387
g67
(g88
g69
NtRp2388
(dp2389
g72
(dp2390
g92
g93
ssg81
g2384
sg74
(lp2391
S'now'
p2392
asbag67
(g88
g69
NtRp2393
(dp2394
g72
(dp2395
g99
g100
ssg81
g2384
sg74
(lp2396
S':'
asbag67
(g88
g69
NtRp2397
(dp2398
g72
(dp2399
sg81
g2384
sg74
(lp2400
g67
(g68
g69
NtRp2401
(dp2402
g72
(dp2403
g80
I5
ssg81
g2397
sg74
(lp2404
S'datetime.datetime(2012, 11, 5, 18, 0, 51, 627838)'
p2405
asbasbasbag67
(g83
g69
NtRp2406
(dp2407
g72
(dp2408
sg81
g77
sg74
(lp2409
g67
(g88
g69
NtRp2410
(dp2411
g72
(dp2412
g92
g93
ssg81
g2406
sg74
(lp2413
S'post_vars'
p2414
asbag67
(g88
g69
NtRp2415
(dp2416
g72
(dp2417
g99
g100
ssg81
g2406
sg74
(lp2418
S':'
asbag67
(g88
g69
NtRp2419
(dp2420
g72
(dp2421
sg81
g2406
sg74
(lp2422
g67
(g68
g69
NtRp2423
(dp2424
g72
(dp2425
g80
I5
ssg81
g2419
sg74
(lp2426
g67
(g76
g69
NtRp2427
(dp2428
g72
(dp2429
g80
I4
ssg81
Nsg74
(lp2430
sbasbasbasbag67
(g83
g69
NtRp2431
(dp2432
g72
(dp2433
sg81
g77
sg74
(lp2434
g67
(g88
g69
NtRp2435
(dp2436
g72
(dp2437
g92
g93
ssg81
g2431
sg74
(lp2438
S'raw_args'
p2439
asbag67
(g88
g69
NtRp2440
(dp2441
g72
(dp2442
g99
g100
ssg81
g2431
sg74
(lp2443
S':'
asbag67
(g88
g69
NtRp2444
(dp2445
g72
(dp2446
sg81
g2431
sg74
(lp2447
g67
(g68
g69
NtRp2448
(dp2449
g72
(dp2450
g80
I5
ssg81
g2444
sg74
(lp2451
S''
asbasbasbag67
(g83
g69
NtRp2452
(dp2453
g72
(dp2454
sg81
g77
sg74
(lp2455
g67
(g88
g69
NtRp2456
(dp2457
g72
(dp2458
g92
g93
ssg81
g2452
sg74
(lp2459
S'raw_extension'
p2460
asbag67
(g88
g69
NtRp2461
(dp2462
g72
(dp2463
g99
g100
ssg81
g2452
sg74
(lp2464
S':'
asbag67
(g88
g69
NtRp2465
(dp2466
g72
(dp2467
sg81
g2452
sg74
(lp2468
g67
(g68
g69
NtRp2469
(dp2470
g72
(dp2471
g80
I5
ssg81
g2465
sg74
(lp2472
S'None'
p2473
asbasbasbag67
(g83
g69
NtRp2474
(dp2475
g72
(dp2476
sg81
g77
sg74
(lp2477
g67
(g88
g69
NtRp2478
(dp2479
g72
(dp2480
g92
g93
ssg81
g2474
sg74
(lp2481
S'url'
p2482
asbag67
(g88
g69
NtRp2483
(dp2484
g72
(dp2485
g99
g100
ssg81
g2474
sg74
(lp2486
S':'
asbag67
(g88
g69
NtRp2487
(dp2488
g72
(dp2489
sg81
g2474
sg74
(lp2490
g67
(g68
g69
NtRp2491
(dp2492
g72
(dp2493
g80
I5
ssg81
g2487
sg74
(lp2494
g1324
asbasbasbag67
(g83
g69
NtRp2495
(dp2496
g72
(dp2497
sg81
g77
sg74
(lp2498
g67
(g88
g69
NtRp2499
(dp2500
g72
(dp2501
g92
g93
ssg81
g2495
sg74
(lp2502
S'utcnow'
p2503
asbag67
(g88
g69
NtRp2504
(dp2505
g72
(dp2506
g99
g100
ssg81
g2495
sg74
(lp2507
S':'
asbag67
(g88
g69
NtRp2508
(dp2509
g72
(dp2510
sg81
g2495
sg74
(lp2511
g67
(g68
g69
NtRp2512
(dp2513
g72
(dp2514
g80
I5
ssg81
g2508
sg74
(lp2515
S'datetime.datetime(2012, 11, 5, 12, 30, 51, 627849)'
p2516
asbasbasbag67
(g83
g69
NtRp2517
(dp2518
g72
(dp2519
sg81
g77
sg74
(lp2520
g67
(g88
g69
NtRp2521
(dp2522
g72
(dp2523
g92
g93
ssg81
g2517
sg74
(lp2524
S'uuid'
p2525
asbag67
(g88
g69
NtRp2526
(dp2527
g72
(dp2528
g99
g100
ssg81
g2517
sg74
(lp2529
S':'
asbag67
(g88
g69
NtRp2530
(dp2531
g72
(dp2532
sg81
g2517
sg74
(lp2533
g67
(g68
g69
NtRp2534
(dp2535
g72
(dp2536
g80
I5
ssg81
g2530
sg74
(lp2537
S'MyApp/127.0.0.1.2012-11-05.18-00-51.a6271753-ec62-41aa-b665-9c60b18147a1'
p2538
asbasbasbag67
(g83
g69
NtRp2539
(dp2540
g72
(dp2541
sg81
g77
sg74
(lp2542
g67
(g88
g69
NtRp2543
(dp2544
g72
(dp2545
g92
g93
ssg81
g2539
sg74
(lp2546
S'vars'
p2547
asbag67
(g88
g69
NtRp2548
(dp2549
g72
(dp2550
g99
g100
ssg81
g2539
sg74
(lp2551
S':'
asbag67
(g88
g69
NtRp2552
(dp2553
g72
(dp2554
sg81
g2539
sg74
(lp2555
g67
(g68
g69
NtRp2556
(dp2557
g72
(dp2558
g80
I5
ssg81
g2552
sg74
(lp2559
g67
(g76
g69
NtRp2560
(dp2561
g72
(dp2562
g80
I4
ssg81
Nsg74
(lp2563
sbasbasbasbag67
(g83
g69
NtRp2564
(dp2565
g72
(dp2566
sg81
g77
sg74
(lp2567
g67
(g88
g69
NtRp2568
(dp2569
g72
(dp2570
g92
g93
ssg81
g2564
sg74
(lp2571
S'wsgi'
p2572
asbag67
(g88
g69
NtRp2573
(dp2574
g72
(dp2575
g99
g100
ssg81
g2564
sg74
(lp2576
S':'
asbag67
(g88
g69
NtRp2577
(dp2578
g72
(dp2579
sg81
g2564
sg74
(lp2580
g67
(g68
g69
NtRp2581
(dp2582
g72
(dp2583
g80
I5
ssg81
g2577
sg74
(lp2584
g67
(g76
g69
NtRp2585
(dp2586
g72
(dp2587
g80
I4
ssg81
Nsg74
(lp2588
g67
(g83
g69
NtRp2589
(dp2590
g72
(dp2591
sg81
g2585
sg74
(lp2592
g67
(g88
g69
NtRp2593
(dp2594
g72
(dp2595
g92
g93
ssg81
g2589
sg74
(lp2596
S'environ'
p2597
asbag67
(g88
g69
NtRp2598
(dp2599
g72
(dp2600
g99
g100
ssg81
g2589
sg74
(lp2601
S':'
asbag67
(g88
g69
NtRp2602
(dp2603
g72
(dp2604
sg81
g2589
sg74
(lp2605
g67
(g68
g69
NtRp2606
(dp2607
g72
(dp2608
g80
I4
ssg81
g2602
sg74
(lp2609
g67
(g76
g69
NtRp2610
(dp2611
g72
(dp2612
g80
I3
ssg81
Nsg74
(lp2613
g67
(g83
g69
NtRp2614
(dp2615
g72
(dp2616
sg81
g2610
sg74
(lp2617
g67
(g88
g69
NtRp2618
(dp2619
g72
(dp2620
g92
g93
ssg81
g2614
sg74
(lp2621
S'HTTP_ACCEPT'
p2622
asbag67
(g88
g69
NtRp2623
(dp2624
g72
(dp2625
g99
g100
ssg81
g2614
sg74
(lp2626
S':'
asbag67
(g88
g69
NtRp2627
(dp2628
g72
(dp2629
sg81
g2614
sg74
(lp2630
g67
(g68
g69
NtRp2631
(dp2632
g72
(dp2633
g80
I3
ssg81
g2627
sg74
(lp2634
g1038
asbasbasbag67
(g83
g69
NtRp2635
(dp2636
g72
(dp2637
sg81
g2610
sg74
(lp2638
g67
(g88
g69
NtRp2639
(dp2640
g72
(dp2641
g92
g93
ssg81
g2635
sg74
(lp2642
S'HTTP_ACCEPT_ENCODING'
p2643
asbag67
(g88
g69
NtRp2644
(dp2645
g72
(dp2646
g99
g100
ssg81
g2635
sg74
(lp2647
S':'
asbag67
(g88
g69
NtRp2648
(dp2649
g72
(dp2650
sg81
g2635
sg74
(lp2651
g67
(g68
g69
NtRp2652
(dp2653
g72
(dp2654
g80
I3
ssg81
g2648
sg74
(lp2655
g1060
asbasbasbag67
(g83
g69
NtRp2656
(dp2657
g72
(dp2658
sg81
g2610
sg74
(lp2659
g67
(g88
g69
NtRp2660
(dp2661
g72
(dp2662
g92
g93
ssg81
g2656
sg74
(lp2663
S'HTTP_ACCEPT_LANGUAGE'
p2664
asbag67
(g88
g69
NtRp2665
(dp2666
g72
(dp2667
g99
g100
ssg81
g2656
sg74
(lp2668
S':'
asbag67
(g88
g69
NtRp2669
(dp2670
g72
(dp2671
sg81
g2656
sg74
(lp2672
g67
(g68
g69
NtRp2673
(dp2674
g72
(dp2675
g80
I3
ssg81
g2669
sg74
(lp2676
g1082
asbasbasbag67
(g83
g69
NtRp2677
(dp2678
g72
(dp2679
sg81
g2610
sg74
(lp2680
g67
(g88
g69
NtRp2681
(dp2682
g72
(dp2683
g92
g93
ssg81
g2677
sg74
(lp2684
S'HTTP_CONNECTION'
p2685
asbag67
(g88
g69
NtRp2686
(dp2687
g72
(dp2688
g99
g100
ssg81
g2677
sg74
(lp2689
S':'
asbag67
(g88
g69
NtRp2690
(dp2691
g72
(dp2692
sg81
g2677
sg74
(lp2693
g67
(g68
g69
NtRp2694
(dp2695
g72
(dp2696
g80
I3
ssg81
g2690
sg74
(lp2697
g1104
asbasbasbag67
(g83
g69
NtRp2698
(dp2699
g72
(dp2700
sg81
g2610
sg74
(lp2701
g67
(g88
g69
NtRp2702
(dp2703
g72
(dp2704
g92
g93
ssg81
g2698
sg74
(lp2705
S'HTTP_COOKIE'
p2706
asbag67
(g88
g69
NtRp2707
(dp2708
g72
(dp2709
g99
g100
ssg81
g2698
sg74
(lp2710
S':'
asbag67
(g88
g69
NtRp2711
(dp2712
g72
(dp2713
sg81
g2698
sg74
(lp2714
g67
(g68
g69
NtRp2715
(dp2716
g72
(dp2717
g80
I3
ssg81
g2711
sg74
(lp2718
g1126
asbasbasbag67
(g83
g69
NtRp2719
(dp2720
g72
(dp2721
sg81
g2610
sg74
(lp2722
g67
(g88
g69
NtRp2723
(dp2724
g72
(dp2725
g92
g93
ssg81
g2719
sg74
(lp2726
S'HTTP_HOST'
p2727
asbag67
(g88
g69
NtRp2728
(dp2729
g72
(dp2730
g99
g100
ssg81
g2719
sg74
(lp2731
S':'
asbag67
(g88
g69
NtRp2732
(dp2733
g72
(dp2734
sg81
g2719
sg74
(lp2735
g67
(g68
g69
NtRp2736
(dp2737
g72
(dp2738
g80
I3
ssg81
g2732
sg74
(lp2739
g1148
asbasbasbag67
(g83
g69
NtRp2740
(dp2741
g72
(dp2742
sg81
g2610
sg74
(lp2743
g67
(g88
g69
NtRp2744
(dp2745
g72
(dp2746
g92
g93
ssg81
g2740
sg74
(lp2747
S'HTTP_USER_AGENT'
p2748
asbag67
(g88
g69
NtRp2749
(dp2750
g72
(dp2751
g99
g100
ssg81
g2740
sg74
(lp2752
S':'
asbag67
(g88
g69
NtRp2753
(dp2754
g72
(dp2755
sg81
g2740
sg74
(lp2756
g67
(g68
g69
NtRp2757
(dp2758
g72
(dp2759
g80
I3
ssg81
g2753
sg74
(lp2760
g1170
asbasbasbag67
(g83
g69
NtRp2761
(dp2762
g72
(dp2763
sg81
g2610
sg74
(lp2764
g67
(g88
g69
NtRp2765
(dp2766
g72
(dp2767
g92
g93
ssg81
g2761
sg74
(lp2768
S'PATH_INFO'
p2769
asbag67
(g88
g69
NtRp2770
(dp2771
g72
(dp2772
g99
g100
ssg81
g2761
sg74
(lp2773
S':'
asbag67
(g88
g69
NtRp2774
(dp2775
g72
(dp2776
sg81
g2761
sg74
(lp2777
g67
(g68
g69
NtRp2778
(dp2779
g72
(dp2780
g80
I3
ssg81
g2774
sg74
(lp2781
g1324
asbasbasbag67
(g83
g69
NtRp2782
(dp2783
g72
(dp2784
sg81
g2610
sg74
(lp2785
g67
(g88
g69
NtRp2786
(dp2787
g72
(dp2788
g92
g93
ssg81
g2782
sg74
(lp2789
S'QUERY_STRING'
p2790
asbag67
(g88
g69
NtRp2791
(dp2792
g72
(dp2793
g99
g100
ssg81
g2782
sg74
(lp2794
S':'
asbag67
(g88
g69
NtRp2795
(dp2796
g72
(dp2797
sg81
g2782
sg74
(lp2798
g67
(g68
g69
NtRp2799
(dp2800
g72
(dp2801
g80
I3
ssg81
g2795
sg74
(lp2802
S''
asbasbasbag67
(g83
g69
NtRp2803
(dp2804
g72
(dp2805
sg81
g2610
sg74
(lp2806
g67
(g88
g69
NtRp2807
(dp2808
g72
(dp2809
g92
g93
ssg81
g2803
sg74
(lp2810
S'REMOTE_ADDR'
p2811
asbag67
(g88
g69
NtRp2812
(dp2813
g72
(dp2814
g99
g100
ssg81
g2803
sg74
(lp2815
S':'
asbag67
(g88
g69
NtRp2816
(dp2817
g72
(dp2818
sg81
g2803
sg74
(lp2819
g67
(g68
g69
NtRp2820
(dp2821
g72
(dp2822
g80
I3
ssg81
g2816
sg74
(lp2823
g222
asbasbasbag67
(g83
g69
NtRp2824
(dp2825
g72
(dp2826
sg81
g2610
sg74
(lp2827
g67
(g88
g69
NtRp2828
(dp2829
g72
(dp2830
g92
g93
ssg81
g2824
sg74
(lp2831
S'REMOTE_PORT'
p2832
asbag67
(g88
g69
NtRp2833
(dp2834
g72
(dp2835
g99
g100
ssg81
g2824
sg74
(lp2836
S':'
asbag67
(g88
g69
NtRp2837
(dp2838
g72
(dp2839
sg81
g2824
sg74
(lp2840
g67
(g68
g69
NtRp2841
(dp2842
g72
(dp2843
g80
I3
ssg81
g2837
sg74
(lp2844
g1388
asbasbasbag67
(g83
g69
NtRp2845
(dp2846
g72
(dp2847
sg81
g2610
sg74
(lp2848
g67
(g88
g69
NtRp2849
(dp2850
g72
(dp2851
g92
g93
ssg81
g2845
sg74
(lp2852
S'REQUEST_METHOD'
p2853
asbag67
(g88
g69
NtRp2854
(dp2855
g72
(dp2856
g99
g100
ssg81
g2845
sg74
(lp2857
S':'
asbag67
(g88
g69
NtRp2858
(dp2859
g72
(dp2860
sg81
g2845
sg74
(lp2861
g67
(g68
g69
NtRp2862
(dp2863
g72
(dp2864
g80
I3
ssg81
g2858
sg74
(lp2865
g1410
asbasbasbag67
(g83
g69
NtRp2866
(dp2867
g72
(dp2868
sg81
g2610
sg74
(lp2869
g67
(g88
g69
NtRp2870
(dp2871
g72
(dp2872
g92
g93
ssg81
g2866
sg74
(lp2873
S'REQUEST_URI'
p2874
asbag67
(g88
g69
NtRp2875
(dp2876
g72
(dp2877
g99
g100
ssg81
g2866
sg74
(lp2878
S':'
asbag67
(g88
g69
NtRp2879
(dp2880
g72
(dp2881
sg81
g2866
sg74
(lp2882
g67
(g68
g69
NtRp2883
(dp2884
g72
(dp2885
g80
I3
ssg81
g2879
sg74
(lp2886
g1324
asbasbasbag67
(g83
g69
NtRp2887
(dp2888
g72
(dp2889
sg81
g2610
sg74
(lp2890
g67
(g88
g69
NtRp2891
(dp2892
g72
(dp2893
g92
g93
ssg81
g2887
sg74
(lp2894
S'SCRIPT_NAME'
p2895
asbag67
(g88
g69
NtRp2896
(dp2897
g72
(dp2898
g99
g100
ssg81
g2887
sg74
(lp2899
S':'
asbag67
(g88
g69
NtRp2900
(dp2901
g72
(dp2902
sg81
g2887
sg74
(lp2903
g67
(g68
g69
NtRp2904
(dp2905
g72
(dp2906
g80
I3
ssg81
g2900
sg74
(lp2907
S''
asbasbasbag67
(g83
g69
NtRp2908
(dp2909
g72
(dp2910
sg81
g2610
sg74
(lp2911
g67
(g88
g69
NtRp2912
(dp2913
g72
(dp2914
g92
g93
ssg81
g2908
sg74
(lp2915
S'SERVER_NAME'
p2916
asbag67
(g88
g69
NtRp2917
(dp2918
g72
(dp2919
g99
g100
ssg81
g2908
sg74
(lp2920
S':'
asbag67
(g88
g69
NtRp2921
(dp2922
g72
(dp2923
sg81
g2908
sg74
(lp2924
g67
(g68
g69
NtRp2925
(dp2926
g72
(dp2927
g80
I3
ssg81
g2921
sg74
(lp2928
g1289
asbasbasbag67
(g83
g69
NtRp2929
(dp2930
g72
(dp2931
sg81
g2610
sg74
(lp2932
g67
(g88
g69
NtRp2933
(dp2934
g72
(dp2935
g92
g93
ssg81
g2929
sg74
(lp2936
S'SERVER_PORT'
p2937
asbag67
(g88
g69
NtRp2938
(dp2939
g72
(dp2940
g99
g100
ssg81
g2929
sg74
(lp2941
S':'
asbag67
(g88
g69
NtRp2942
(dp2943
g72
(dp2944
sg81
g2929
sg74
(lp2945
g67
(g68
g69
NtRp2946
(dp2947
g72
(dp2948
g80
I3
ssg81
g2942
sg74
(lp2949
g1495
asbasbasbag67
(g83
g69
NtRp2950
(dp2951
g72
(dp2952
sg81
g2610
sg74
(lp2953
g67
(g88
g69
NtRp2954
(dp2955
g72
(dp2956
g92
g93
ssg81
g2950
sg74
(lp2957
S'SERVER_PROTOCOL'
p2958
asbag67
(g88
g69
NtRp2959
(dp2960
g72
(dp2961
g99
g100
ssg81
g2950
sg74
(lp2962
S':'
asbag67
(g88
g69
NtRp2963
(dp2964
g72
(dp2965
sg81
g2950
sg74
(lp2966
g67
(g68
g69
NtRp2967
(dp2968
g72
(dp2969
g80
I3
ssg81
g2963
sg74
(lp2970
g1517
asbasbasbag67
(g83
g69
NtRp2971
(dp2972
g72
(dp2973
sg81
g2610
sg74
(lp2974
g67
(g88
g69
NtRp2975
(dp2976
g72
(dp2977
g92
g93
ssg81
g2971
sg74
(lp2978
S'SERVER_SOFTWARE'
p2979
asbag67
(g88
g69
NtRp2980
(dp2981
g72
(dp2982
g99
g100
ssg81
g2971
sg74
(lp2983
S':'
asbag67
(g88
g69
NtRp2984
(dp2985
g72
(dp2986
sg81
g2971
sg74
(lp2987
g67
(g68
g69
NtRp2988
(dp2989
g72
(dp2990
g80
I3
ssg81
g2984
sg74
(lp2991
g1539
asbasbasbag67
(g83
g69
NtRp2992
(dp2993
g72
(dp2994
sg81
g2610
sg74
(lp2995
g67
(g88
g69
NtRp2996
(dp2997
g72
(dp2998
g92
g93
ssg81
g2992
sg74
(lp2999
S'wsgi.errors'
p3000
asbag67
(g88
g69
NtRp3001
(dp3002
g72
(dp3003
g99
g100
ssg81
g2992
sg74
(lp3004
S':'
asbag67
(g88
g69
NtRp3005
(dp3006
g72
(dp3007
sg81
g2992
sg74
(lp3008
g67
(g68
g69
NtRp3009
(dp3010
g72
(dp3011
g80
I3
ssg81
g3005
sg74
(lp3012
S"<open file '<stderr>', mode 'w' at 0x100416140>"
p3013
asbasbasbag67
(g83
g69
NtRp3014
(dp3015
g72
(dp3016
sg81
g2610
sg74
(lp3017
g67
(g88
g69
NtRp3018
(dp3019
g72
(dp3020
g92
g93
ssg81
g3014
sg74
(lp3021
S'wsgi.file_wrapper'
p3022
asbag67
(g88
g69
NtRp3023
(dp3024
g72
(dp3025
g99
g100
ssg81
g3014
sg74
(lp3026
S':'
asbag67
(g88
g69
NtRp3027
(dp3028
g72
(dp3029
sg81
g3014
sg74
(lp3030
g67
(g68
g69
NtRp3031
(dp3032
g72
(dp3033
g80
I3
ssg81
g3027
sg74
(lp3034
S'<class wsgiref.util.FileWrapper at 0x101c2bad0>'
p3035
asbasbasbag67
(g83
g69
NtRp3036
(dp3037
g72
(dp3038
sg81
g2610
sg74
(lp3039
g67
(g88
g69
NtRp3040
(dp3041
g72
(dp3042
g92
g93
ssg81
g3036
sg74
(lp3043
S'wsgi.input'
p3044
asbag67
(g88
g69
NtRp3045
(dp3046
g72
(dp3047
g99
g100
ssg81
g3036
sg74
(lp3048
S':'
asbag67
(g88
g69
NtRp3049
(dp3050
g72
(dp3051
sg81
g3036
sg74
(lp3052
g67
(g68
g69
NtRp3053
(dp3054
g72
(dp3055
g80
I3
ssg81
g3049
sg74
(lp3056
S'<cStringIO.StringO object at 0x1186230a0>'
p3057
asbasbasbag67
(g83
g69
NtRp3058
(dp3059
g72
(dp3060
sg81
g2610
sg74
(lp3061
g67
(g88
g69
NtRp3062
(dp3063
g72
(dp3064
g92
g93
ssg81
g3058
sg74
(lp3065
S'wsgi.multiprocess'
p3066
asbag67
(g88
g69
NtRp3067
(dp3068
g72
(dp3069
g99
g100
ssg81
g3058
sg74
(lp3070
S':'
asbag67
(g88
g69
NtRp3071
(dp3072
g72
(dp3073
sg81
g3058
sg74
(lp3074
g67
(g68
g69
NtRp3075
(dp3076
g72
(dp3077
g80
I3
ssg81
g3071
sg74
(lp3078
g110
asbasbasbag67
(g83
g69
NtRp3079
(dp3080
g72
(dp3081
sg81
g2610
sg74
(lp3082
g67
(g88
g69
NtRp3083
(dp3084
g72
(dp3085
g92
g93
ssg81
g3079
sg74
(lp3086
S'wsgi.multithread'
p3087
asbag67
(g88
g69
NtRp3088
(dp3089
g72
(dp3090
g99
g100
ssg81
g3079
sg74
(lp3091
S':'
asbag67
(g88
g69
NtRp3092
(dp3093
g72
(dp3094
sg81
g3079
sg74
(lp3095
g67
(g68
g69
NtRp3096
(dp3097
g72
(dp3098
g80
I3
ssg81
g3092
sg74
(lp3099
g1756
asbasbasbag67
(g83
g69
NtRp3100
(dp3101
g72
(dp3102
sg81
g2610
sg74
(lp3103
g67
(g88
g69
NtRp3104
(dp3105
g72
(dp3106
g92
g93
ssg81
g3100
sg74
(lp3107
S'wsgi.run_once'
p3108
asbag67
(g88
g69
NtRp3109
(dp3110
g72
(dp3111
g99
g100
ssg81
g3100
sg74
(lp3112
S':'
asbag67
(g88
g69
NtRp3113
(dp3114
g72
(dp3115
sg81
g3100
sg74
(lp3116
g67
(g68
g69
NtRp3117
(dp3118
g72
(dp3119
g80
I3
ssg81
g3113
sg74
(lp3120
g110
asbasbasbag67
(g83
g69
NtRp3121
(dp3122
g72
(dp3123
sg81
g2610
sg74
(lp3124
g67
(g88
g69
NtRp3125
(dp3126
g72
(dp3127
g92
g93
ssg81
g3121
sg74
(lp3128
S'wsgi.url_scheme'
p3129
asbag67
(g88
g69
NtRp3130
(dp3131
g72
(dp3132
g99
g100
ssg81
g3121
sg74
(lp3133
S':'
asbag67
(g88
g69
NtRp3134
(dp3135
g72
(dp3136
sg81
g3121
sg74
(lp3137
g67
(g68
g69
NtRp3138
(dp3139
g72
(dp3140
g80
I3
ssg81
g3134
sg74
(lp3141
g1799
asbasbasbag67
(g83
g69
NtRp3142
(dp3143
g72
(dp3144
sg81
g2610
sg74
(lp3145
g67
(g88
g69
NtRp3146
(dp3147
g72
(dp3148
g92
g93
ssg81
g3142
sg74
(lp3149
S'wsgi.version'
p3150
asbag67
(g88
g69
NtRp3151
(dp3152
g72
(dp3153
g99
g100
ssg81
g3142
sg74
(lp3154
S':'
asbag67
(g88
g69
NtRp3155
(dp3156
g72
(dp3157
sg81
g3142
sg74
(lp3158
g67
(g68
g69
NtRp3159
(dp3160
g72
(dp3161
g80
I3
ssg81
g3155
sg74
(lp3162
S'1'
asbasbasbasbasbasbasbasbasbasbasbasbasbsS'frames'
p3163
(lp3164
(dp3165
S'file'
p3166
S'/Users/keshav/Desktop/web2py/gluon/restricted.py'
p3167
sS'dump'
p3168
(dp3169
S'code'
p3170
S'"response.write(\'<html>\\\\n   <head></head>\\\\n   <bo...>\\\\n       <h2>\', escape=False)\\nh2>\\n</body>\\n</html"'
p3171
sS'layer'
p3172
S"'/Users/keshav/Desktop/web2py/applications/MyApp/views/default/index.html'"
p3173
sS'global compile2'
p3174
S'<function compile2 at 0x101740050>'
p3175
sS'ccode'
p3176
S'undefined'
p3177
ssS'lnum'
p3178
I211
sS'lines'
p3179
(dp3180
I206
S"    environment['__name__'] = '__restricted__'"
p3181
sI207
S'    try:'
p3182
sI208
S'        if isinstance(code, types.CodeType):'
p3183
sI209
S'            ccode = code'
p3184
sI210
S'        else:'
p3185
sI211
S'            ccode = compile2(code, layer)'
p3186
sI212
S'        exec ccode in environment'
p3187
sI213
S'    except HTTP:'
p3188
sI214
S'        raise'
p3189
sI215
S'    except RestrictedError:'
p3190
ssS'call'
p3191
S'(code="response.write(\'<html>\\\\n   <head></head>\\\\n   <bo...>\\\\n       <h2>\', escape=False)\\nh2>\\n</body>\\n</html", environment={\'A\': <class \'gluon.html.A\'>, \'Auth\': <class \'gluon.tools.Auth\'>, \'B\': <class \'gluon.html.B\'>, \'BEAUTIFY\': <class \'gluon.html.BEAUTIFY\'>, \'BODY\': <class \'gluon.html.BODY\'>, \'BR\': <class \'gluon.html.BR\'>, \'BUTTON\': <class \'gluon.html.BUTTON\'>, \'CAT\': <class \'gluon.html.CAT\'>, \'CENTER\': <class \'gluon.html.CENTER\'>, \'CLEANUP\': <class \'gluon.validators.CLEANUP\'>, ...}, layer=\'/Users/keshav/Desktop/web2py/applications/MyApp/views/default/index.html\')'
p3192
sS'func'
p3193
S'restricted'
p3194
sa(dp3195
g3166
S'/Users/keshav/Desktop/web2py/gluon/restricted.py'
p3196
sg3168
(dp3197
S'builtincompile'
p3198
S'<built-in function compile>'
p3199
sS'code'
p3200
S'"response.write(\'<html>\\\\n   <head></head>\\\\n   <bo...>\\\\n       <h2>\', escape=False)\\nh2>\\n</body>\\n</html"'
p3201
sS'code.rstrip'
p3202
S'<built-in method rstrip of str object at 0x115390978>'
p3203
sS').replace'
p3204
g3177
sS'layer'
p3205
S"'/Users/keshav/Desktop/web2py/applications/MyApp/views/default/index.html'"
p3206
ssg3178
I194
sg3179
(dp3207
I192
S"    The +'\\n' is necessary else compile fails when code ends in a comment."
p3208
sI193
S'    """'
p3209
sI194
S"    return compile(code.rstrip().replace('\\r\\n', '\\n') + '\\n', layer, 'exec')"
p3210
sI195
S''
sI196
S''
sI197
S"def restricted(code, environment=None, layer='Unknown'):"
p3211
sI198
S'    """'
p3212
sI189
S''
sI190
S'def compile2(code, layer):'
p3213
sI191
S'    """'
p3214
ssg3191
S'(code="response.write(\'<html>\\\\n   <head></head>\\\\n   <bo...>\\\\n       <h2>\', escape=False)\\nh2>\\n</body>\\n</html", layer=\'/Users/keshav/Desktop/web2py/applications/MyApp/views/default/index.html\')'
p3215
sg3193
S'compile2'
p3216
sasS'pyver'
p3217
S'Python 2.6.1: /usr/bin/python'
p3218
sS'session'
p3219
g67
(g68
g69
NtRp3220
(dp3221
g72
(dp3222
sg74
(lp3223
g67
(g76
g69
NtRp3224
(dp3225
g72
(dp3226
g80
I5
ssg81
Nsg74
(lp3227
sbasbsS'etype'
p3228
S"<type 'exceptions.SyntaxError'>"
p3229
sS'date'
p3230
S'Mon Nov  5 18:00:51 2012'
p3231
sS'response'
p3232
g67
(g68
g69
NtRp3233
(dp3234
g72
(dp3235
sg74
(lp3236
g67
(g76
g69
NtRp3237
(dp3238
g72
(dp3239
g80
I5
ssg81
Nsg74
(lp3240
g67
(g83
g69
NtRp3241
(dp3242
g72
(dp3243
sg81
g3237
sg74
(lp3244
g67
(g88
g69
NtRp3245
(dp3246
g72
(dp3247
g92
g93
ssg81
g3241
sg74
(lp3248
g165
asbag67
(g88
g69
NtRp3249
(dp3250
g72
(dp3251
g99
g100
ssg81
g3241
sg74
(lp3252
S':'
asbag67
(g88
g69
NtRp3253
(dp3254
g72
(dp3255
sg81
g3241
sg74
(lp3256
g67
(g68
g69
NtRp3257
(dp3258
g72
(dp3259
g80
I5
ssg81
g3253
sg74
(lp3260
S'<cStringIO.StringO object at 0x1185b9420>'
p3261
asbasbasbag67
(g83
g69
NtRp3262
(dp3263
g72
(dp3264
sg81
g3237
sg74
(lp3265
g67
(g88
g69
NtRp3266
(dp3267
g72
(dp3268
g92
g93
ssg81
g3262
sg74
(lp3269
g253
asbag67
(g88
g69
NtRp3270
(dp3271
g72
(dp3272
g99
g100
ssg81
g3262
sg74
(lp3273
S':'
asbag67
(g88
g69
NtRp3274
(dp3275
g72
(dp3276
sg81
g3262
sg74
(lp3277
g67
(g68
g69
NtRp3278
(dp3279
g72
(dp3280
g80
I5
ssg81
g3274
sg74
(lp3281
g67
(g76
g69
NtRp3282
(dp3283
g72
(dp3284
g80
I4
ssg81
Nsg74
(lp3285
g67
(g83
g69
NtRp3286
(dp3287
g72
(dp3288
sg81
g3282
sg74
(lp3289
g67
(g88
g69
NtRp3290
(dp3291
g72
(dp3292
g92
g93
ssg81
g3286
sg74
(lp3293
S'session_id_myapp'
p3294
asbag67
(g88
g69
NtRp3295
(dp3296
g72
(dp3297
g99
g100
ssg81
g3286
sg74
(lp3298
S':'
asbag67
(g88
g69
NtRp3299
(dp3300
g72
(dp3301
sg81
g3286
sg74
(lp3302
g67
(g68
g69
NtRp3303
(dp3304
g72
(dp3305
g80
I4
ssg81
g3299
sg74
(lp3306
S'127.0.0.1-b23cbbdf-b3a5-42d2-b35d-e6ce202a798c'
p3307
ag67
(g76
g69
NtRp3308
(dp3309
g72
(dp3310
g80
I3
ssg81
Nsg74
(lp3311
g67
(g83
g69
NtRp3312
(dp3313
g72
(dp3314
sg81
g3308
sg74
(lp3315
g67
(g88
g69
NtRp3316
(dp3317
g72
(dp3318
g92
g93
ssg81
g3312
sg74
(lp3319
g304
asbag67
(g88
g69
NtRp3320
(dp3321
g72
(dp3322
g99
g100
ssg81
g3312
sg74
(lp3323
S':'
asbag67
(g88
g69
NtRp3324
(dp3325
g72
(dp3326
sg81
g3312
sg74
(lp3327
g67
(g68
g69
NtRp3328
(dp3329
g72
(dp3330
g80
I3
ssg81
g3324
sg74
(lp3331
S''
asbasbasbag67
(g83
g69
NtRp3332
(dp3333
g72
(dp3334
sg81
g3308
sg74
(lp3335
g67
(g88
g69
NtRp3336
(dp3337
g72
(dp3338
g92
g93
ssg81
g3332
sg74
(lp3339
g325
asbag67
(g88
g69
NtRp3340
(dp3341
g72
(dp3342
g99
g100
ssg81
g3332
sg74
(lp3343
S':'
asbag67
(g88
g69
NtRp3344
(dp3345
g72
(dp3346
sg81
g3332
sg74
(lp3347
g67
(g68
g69
NtRp3348
(dp3349
g72
(dp3350
g80
I3
ssg81
g3344
sg74
(lp3351
S''
asbasbasbag67
(g83
g69
NtRp3352
(dp3353
g72
(dp3354
sg81
g3308
sg74
(lp3355
g67
(g88
g69
NtRp3356
(dp3357
g72
(dp3358
g92
g93
ssg81
g3352
sg74
(lp3359
g346
asbag67
(g88
g69
NtRp3360
(dp3361
g72
(dp3362
g99
g100
ssg81
g3352
sg74
(lp3363
S':'
asbag67
(g88
g69
NtRp3364
(dp3365
g72
(dp3366
sg81
g3352
sg74
(lp3367
g67
(g68
g69
NtRp3368
(dp3369
g72
(dp3370
g80
I3
ssg81
g3364
sg74
(lp3371
S''
asbasbasbag67
(g83
g69
NtRp3372
(dp3373
g72
(dp3374
sg81
g3308
sg74
(lp3375
g67
(g88
g69
NtRp3376
(dp3377
g72
(dp3378
g92
g93
ssg81
g3372
sg74
(lp3379
g367
asbag67
(g88
g69
NtRp3380
(dp3381
g72
(dp3382
g99
g100
ssg81
g3372
sg74
(lp3383
S':'
asbag67
(g88
g69
NtRp3384
(dp3385
g72
(dp3386
sg81
g3372
sg74
(lp3387
g67
(g68
g69
NtRp3388
(dp3389
g72
(dp3390
g80
I3
ssg81
g3384
sg74
(lp3391
S''
asbasbasbag67
(g83
g69
NtRp3392
(dp3393
g72
(dp3394
sg81
g3308
sg74
(lp3395
g67
(g88
g69
NtRp3396
(dp3397
g72
(dp3398
g92
g93
ssg81
g3392
sg74
(lp3399
g388
asbag67
(g88
g69
NtRp3400
(dp3401
g72
(dp3402
g99
g100
ssg81
g3392
sg74
(lp3403
S':'
asbag67
(g88
g69
NtRp3404
(dp3405
g72
(dp3406
sg81
g3392
sg74
(lp3407
g67
(g68
g69
NtRp3408
(dp3409
g72
(dp3410
g80
I3
ssg81
g3404
sg74
(lp3411
S''
asbasbasbag67
(g83
g69
NtRp3412
(dp3413
g72
(dp3414
sg81
g3308
sg74
(lp3415
g67
(g88
g69
NtRp3416
(dp3417
g72
(dp3418
g92
g93
ssg81
g3412
sg74
(lp3419
g409
asbag67
(g88
g69
NtRp3420
(dp3421
g72
(dp3422
g99
g100
ssg81
g3412
sg74
(lp3423
S':'
asbag67
(g88
g69
NtRp3424
(dp3425
g72
(dp3426
sg81
g3412
sg74
(lp3427
g67
(g68
g69
NtRp3428
(dp3429
g72
(dp3430
g80
I3
ssg81
g3424
sg74
(lp3431
S'/'
asbasbasbag67
(g83
g69
NtRp3432
(dp3433
g72
(dp3434
sg81
g3308
sg74
(lp3435
g67
(g88
g69
NtRp3436
(dp3437
g72
(dp3438
g92
g93
ssg81
g3432
sg74
(lp3439
g430
asbag67
(g88
g69
NtRp3440
(dp3441
g72
(dp3442
g99
g100
ssg81
g3432
sg74
(lp3443
S':'
asbag67
(g88
g69
NtRp3444
(dp3445
g72
(dp3446
sg81
g3432
sg74
(lp3447
g67
(g68
g69
NtRp3448
(dp3449
g72
(dp3450
g80
I3
ssg81
g3444
sg74
(lp3451
S''
asbasbasbag67
(g83
g69
NtRp3452
(dp3453
g72
(dp3454
sg81
g3308
sg74
(lp3455
g67
(g88
g69
NtRp3456
(dp3457
g72
(dp3458
g92
g93
ssg81
g3452
sg74
(lp3459
g451
asbag67
(g88
g69
NtRp3460
(dp3461
g72
(dp3462
g99
g100
ssg81
g3452
sg74
(lp3463
S':'
asbag67
(g88
g69
NtRp3464
(dp3465
g72
(dp3466
sg81
g3452
sg74
(lp3467
g67
(g68
g69
NtRp3468
(dp3469
g72
(dp3470
g80
I3
ssg81
g3464
sg74
(lp3471
S''
asbasbasbasbasbasbasbasbasbasbasbag67
(g83
g69
NtRp3472
(dp3473
g72
(dp3474
sg81
g3237
sg74
(lp3475
g67
(g88
g69
NtRp3476
(dp3477
g72
(dp3478
g92
g93
ssg81
g3472
sg74
(lp3479
S'delimiters'
p3480
asbag67
(g88
g69
NtRp3481
(dp3482
g72
(dp3483
g99
g100
ssg81
g3472
sg74
(lp3484
S':'
asbag67
(g88
g69
NtRp3485
(dp3486
g72
(dp3487
sg81
g3472
sg74
(lp3488
g67
(g68
g69
NtRp3489
(dp3490
g72
(dp3491
g80
I5
ssg81
g3485
sg74
(lp3492
g67
(g76
g69
NtRp3493
(dp3494
g72
(dp3495
g80
I4
ssg81
Nsg74
(lp3496
g67
(g83
g69
NtRp3497
(dp3498
g72
(dp3499
sg81
g3493
sg74
(lp3500
g67
(g88
g69
NtRp3501
(dp3502
g72
(dp3503
sg81
g3497
sg74
(lp3504
g67
(g68
g69
NtRp3505
(dp3506
g72
(dp3507
g80
I4
ssg81
g3501
sg74
(lp3508
S'{{'
p3509
asbasbasbag67
(g83
g69
NtRp3510
(dp3511
g72
(dp3512
sg81
g3493
sg74
(lp3513
g67
(g88
g69
NtRp3514
(dp3515
g72
(dp3516
sg81
g3510
sg74
(lp3517
g67
(g68
g69
NtRp3518
(dp3519
g72
(dp3520
g80
I4
ssg81
g3514
sg74
(lp3521
S'}}'
p3522
asbasbasbasbasbasbasbag67
(g83
g69
NtRp3523
(dp3524
g72
(dp3525
sg81
g3237
sg74
(lp3526
g67
(g88
g69
NtRp3527
(dp3528
g72
(dp3529
g92
g93
ssg81
g3523
sg74
(lp3530
S'files'
p3531
asbag67
(g88
g69
NtRp3532
(dp3533
g72
(dp3534
g99
g100
ssg81
g3523
sg74
(lp3535
S':'
asbag67
(g88
g69
NtRp3536
(dp3537
g72
(dp3538
sg81
g3523
sg74
(lp3539
g67
(g68
g69
NtRp3540
(dp3541
g72
(dp3542
g80
I5
ssg81
g3536
sg74
(lp3543
g67
(g76
g69
NtRp3544
(dp3545
g72
(dp3546
g80
I4
ssg81
Nsg74
(lp3547
sbasbasbasbag67
(g83
g69
NtRp3548
(dp3549
g72
(dp3550
sg81
g3237
sg74
(lp3551
g67
(g88
g69
NtRp3552
(dp3553
g72
(dp3554
g92
g93
ssg81
g3548
sg74
(lp3555
S'flash'
p3556
asbag67
(g88
g69
NtRp3557
(dp3558
g72
(dp3559
g99
g100
ssg81
g3548
sg74
(lp3560
S':'
asbag67
(g88
g69
NtRp3561
(dp3562
g72
(dp3563
sg81
g3548
sg74
(lp3564
g67
(g68
g69
NtRp3565
(dp3566
g72
(dp3567
g80
I5
ssg81
g3561
sg74
(lp3568
S''
asbasbasbag67
(g83
g69
NtRp3569
(dp3570
g72
(dp3571
sg81
g3237
sg74
(lp3572
g67
(g88
g69
NtRp3573
(dp3574
g72
(dp3575
g92
g93
ssg81
g3569
sg74
(lp3576
S'generic_patterns'
p3577
asbag67
(g88
g69
NtRp3578
(dp3579
g72
(dp3580
g99
g100
ssg81
g3569
sg74
(lp3581
S':'
asbag67
(g88
g69
NtRp3582
(dp3583
g72
(dp3584
sg81
g3569
sg74
(lp3585
g67
(g68
g69
NtRp3586
(dp3587
g72
(dp3588
g80
I5
ssg81
g3582
sg74
(lp3589
g67
(g76
g69
NtRp3590
(dp3591
g72
(dp3592
g80
I4
ssg81
Nsg74
(lp3593
g67
(g83
g69
NtRp3594
(dp3595
g72
(dp3596
sg81
g3590
sg74
(lp3597
g67
(g88
g69
NtRp3598
(dp3599
g72
(dp3600
sg81
g3594
sg74
(lp3601
g67
(g68
g69
NtRp3602
(dp3603
g72
(dp3604
g80
I4
ssg81
g3598
sg74
(lp3605
S'*'
asbasbasbasbasbasbasbag67
(g83
g69
NtRp3606
(dp3607
g72
(dp3608
sg81
g3237
sg74
(lp3609
g67
(g88
g69
NtRp3610
(dp3611
g72
(dp3612
g92
g93
ssg81
g3606
sg74
(lp3613
S'google_analytics_id'
p3614
asbag67
(g88
g69
NtRp3615
(dp3616
g72
(dp3617
g99
g100
ssg81
g3606
sg74
(lp3618
S':'
asbag67
(g88
g69
NtRp3619
(dp3620
g72
(dp3621
sg81
g3606
sg74
(lp3622
g67
(g68
g69
NtRp3623
(dp3624
g72
(dp3625
g80
I5
ssg81
g3619
sg74
(lp3626
S'None'
p3627
asbasbasbag67
(g83
g69
NtRp3628
(dp3629
g72
(dp3630
sg81
g3237
sg74
(lp3631
g67
(g88
g69
NtRp3632
(dp3633
g72
(dp3634
g92
g93
ssg81
g3628
sg74
(lp3635
S'headers'
p3636
asbag67
(g88
g69
NtRp3637
(dp3638
g72
(dp3639
g99
g100
ssg81
g3628
sg74
(lp3640
S':'
asbag67
(g88
g69
NtRp3641
(dp3642
g72
(dp3643
sg81
g3628
sg74
(lp3644
g67
(g68
g69
NtRp3645
(dp3646
g72
(dp3647
g80
I5
ssg81
g3641
sg74
(lp3648
g67
(g76
g69
NtRp3649
(dp3650
g72
(dp3651
g80
I4
ssg81
Nsg74
(lp3652
g67
(g83
g69
NtRp3653
(dp3654
g72
(dp3655
sg81
g3649
sg74
(lp3656
g67
(g88
g69
NtRp3657
(dp3658
g72
(dp3659
g92
g93
ssg81
g3653
sg74
(lp3660
S'X-Powered-By'
p3661
asbag67
(g88
g69
NtRp3662
(dp3663
g72
(dp3664
g99
g100
ssg81
g3653
sg74
(lp3665
S':'
asbag67
(g88
g69
NtRp3666
(dp3667
g72
(dp3668
sg81
g3653
sg74
(lp3669
g67
(g68
g69
NtRp3670
(dp3671
g72
(dp3672
g80
I4
ssg81
g3666
sg74
(lp3673
S'web2py'
p3674
asbasbasbasbasbasbasbag67
(g83
g69
NtRp3675
(dp3676
g72
(dp3677
sg81
g3237
sg74
(lp3678
g67
(g88
g69
NtRp3679
(dp3680
g72
(dp3681
g92
g93
ssg81
g3675
sg74
(lp3682
S'menu'
p3683
asbag67
(g88
g69
NtRp3684
(dp3685
g72
(dp3686
g99
g100
ssg81
g3675
sg74
(lp3687
S':'
asbag67
(g88
g69
NtRp3688
(dp3689
g72
(dp3690
sg81
g3675
sg74
(lp3691
g67
(g68
g69
NtRp3692
(dp3693
g72
(dp3694
g80
I5
ssg81
g3688
sg74
(lp3695
g67
(g76
g69
NtRp3696
(dp3697
g72
(dp3698
g80
I4
ssg81
Nsg74
(lp3699
g67
(g83
g69
NtRp3700
(dp3701
g72
(dp3702
sg81
g3696
sg74
(lp3703
g67
(g88
g69
NtRp3704
(dp3705
g72
(dp3706
sg81
g3700
sg74
(lp3707
g67
(g68
g69
NtRp3708
(dp3709
g72
(dp3710
g80
I4
ssg81
g3704
sg74
(lp3711
g67
(g76
g69
NtRp3712
(dp3713
g72
(dp3714
g80
I3
ssg81
Nsg74
(lp3715
g67
(g83
g69
NtRp3716
(dp3717
g72
(dp3718
sg81
g3712
sg74
(lp3719
g67
(g88
g69
NtRp3720
(dp3721
g72
(dp3722
sg81
g3716
sg74
(lp3723
g67
(g68
g69
NtRp3724
(dp3725
g72
(dp3726
g80
I3
ssg81
g3720
sg74
(lp3727
cgluon.languages
lazyT_unpickle
p3728
(S's\x04\x00\x00\x00Home'
tRp3729
asbasbasbag67
(g83
g69
NtRp3730
(dp3731
g72
(dp3732
sg81
g3712
sg74
(lp3733
g67
(g88
g69
NtRp3734
(dp3735
g72
(dp3736
sg81
g3730
sg74
(lp3737
g67
(g68
g69
NtRp3738
(dp3739
g72
(dp3740
g80
I3
ssg81
g3734
sg74
(lp3741
g110
asbasbasbag67
(g83
g69
NtRp3742
(dp3743
g72
(dp3744
sg81
g3712
sg74
(lp3745
g67
(g88
g69
NtRp3746
(dp3747
g72
(dp3748
sg81
g3742
sg74
(lp3749
g67
(g68
g69
NtRp3750
(dp3751
g72
(dp3752
g80
I3
ssg81
g3746
sg74
(lp3753
S'/MyApp/default/index'
p3754
asbasbasbag67
(g83
g69
NtRp3755
(dp3756
g72
(dp3757
sg81
g3712
sg74
(lp3758
g67
(g88
g69
NtRp3759
(dp3760
g72
(dp3761
sg81
g3755
sg74
(lp3762
g67
(g68
g69
NtRp3763
(dp3764
g72
(dp3765
g80
I3
ssg81
g3759
sg74
(lp3766
g67
(g76
g69
NtRp3767
(dp3768
g72
(dp3769
g80
I2
ssg81
Nsg74
(lp3770
sbasbasbasbasbasbasbasbag67
(g83
g69
NtRp3771
(dp3772
g72
(dp3773
sg81
g3696
sg74
(lp3774
g67
(g88
g69
NtRp3775
(dp3776
g72
(dp3777
sg81
g3771
sg74
(lp3778
g67
(g68
g69
NtRp3779
(dp3780
g72
(dp3781
g80
I4
ssg81
g3775
sg74
(lp3782
g67
(g76
g69
NtRp3783
(dp3784
g72
(dp3785
g80
I3
ssg81
Nsg74
(lp3786
g67
(g83
g69
NtRp3787
(dp3788
g72
(dp3789
sg81
g3783
sg74
(lp3790
g67
(g88
g69
NtRp3791
(dp3792
g72
(dp3793
sg81
g3787
sg74
(lp3794
g67
(g68
g69
NtRp3795
(dp3796
g72
(dp3797
g80
I3
ssg81
g3791
sg74
(lp3798
g67
(cgluon.html
SPAN
p3799
g69
NtRp3800
(dp3801
g72
(dp3802
S'_class'
p3803
S'highlighted'
p3804
ssg81
Nsg74
(lp3805
g3674
asbasbasbasbag67
(g83
g69
NtRp3806
(dp3807
g72
(dp3808
sg81
g3783
sg74
(lp3809
g67
(g88
g69
NtRp3810
(dp3811
g72
(dp3812
sg81
g3806
sg74
(lp3813
g67
(g68
g69
NtRp3814
(dp3815
g72
(dp3816
g80
I3
ssg81
g3810
sg74
(lp3817
g110
asbasbasbag67
(g83
g69
NtRp3818
(dp3819
g72
(dp3820
sg81
g3783
sg74
(lp3821
g67
(g88
g69
NtRp3822
(dp3823
g72
(dp3824
sg81
g3818
sg74
(lp3825
g67
(g68
g69
NtRp3826
(dp3827
g72
(dp3828
g80
I3
ssg81
g3822
sg74
(lp3829
S'http://web2py.com'
p3830
asbasbasbag67
(g83
g69
NtRp3831
(dp3832
g72
(dp3833
sg81
g3783
sg74
(lp3834
g67
(g88
g69
NtRp3835
(dp3836
g72
(dp3837
sg81
g3831
sg74
(lp3838
g67
(g68
g69
NtRp3839
(dp3840
g72
(dp3841
g80
I3
ssg81
g3835
sg74
(lp3842
g67
(g76
g69
NtRp3843
(dp3844
g72
(dp3845
g80
I2
ssg81
Nsg74
(lp3846
g67
(g83
g69
NtRp3847
(dp3848
g72
(dp3849
sg81
g3843
sg74
(lp3850
g67
(g88
g69
NtRp3851
(dp3852
g72
(dp3853
sg81
g3847
sg74
(lp3854
g67
(g68
g69
NtRp3855
(dp3856
g72
(dp3857
g80
I2
ssg81
g3851
sg74
(lp3858
g67
(g76
g69
NtRp3859
(dp3860
g72
(dp3861
g80
I1
ssg81
Nsg74
(lp3862
g67
(g83
g69
NtRp3863
(dp3864
g72
(dp3865
sg81
g3859
sg74
(lp3866
g67
(g88
g69
NtRp3867
(dp3868
g72
(dp3869
sg81
g3863
sg74
(lp3870
g67
(g68
g69
NtRp3871
(dp3872
g72
(dp3873
g80
I1
ssg81
g3867
sg74
(lp3874
g3728
(S's\x08\x00\x00\x00My Sites'
tRp3875
asbasbasbag67
(g83
g69
NtRp3876
(dp3877
g72
(dp3878
sg81
g3859
sg74
(lp3879
g67
(g88
g69
NtRp3880
(dp3881
g72
(dp3882
sg81
g3876
sg74
(lp3883
g67
(g68
g69
NtRp3884
(dp3885
g72
(dp3886
g80
I1
ssg81
g3880
sg74
(lp3887
I00
asbasbasbag67
(g83
g69
NtRp3888
(dp3889
g72
(dp3890
sg81
g3859
sg74
(lp3891
g67
(g88
g69
NtRp3892
(dp3893
g72
(dp3894
sg81
g3888
sg74
(lp3895
g67
(g68
g69
NtRp3896
(dp3897
g72
(dp3898
g80
I1
ssg81
g3892
sg74
(lp3899
S'/admin/default/site'
p3900
asbasbasbasbasbasbasbag67
(g83
g69
NtRp3901
(dp3902
g72
(dp3903
sg81
g3843
sg74
(lp3904
g67
(g88
g69
NtRp3905
(dp3906
g72
(dp3907
sg81
g3901
sg74
(lp3908
g67
(g68
g69
NtRp3909
(dp3910
g72
(dp3911
g80
I2
ssg81
g3905
sg74
(lp3912
g67
(g76
g69
NtRp3913
(dp3914
g72
(dp3915
g80
I1
ssg81
Nsg74
(lp3916
g67
(g83
g69
NtRp3917
(dp3918
g72
(dp3919
sg81
g3913
sg74
(lp3920
g67
(g88
g69
NtRp3921
(dp3922
g72
(dp3923
sg81
g3917
sg74
(lp3924
g67
(g68
g69
NtRp3925
(dp3926
g72
(dp3927
g80
I1
ssg81
g3921
sg74
(lp3928
g3728
(S's\x08\x00\x00\x00This App'
tRp3929
asbasbasbag67
(g83
g69
NtRp3930
(dp3931
g72
(dp3932
sg81
g3913
sg74
(lp3933
g67
(g88
g69
NtRp3934
(dp3935
g72
(dp3936
sg81
g3930
sg74
(lp3937
g67
(g68
g69
NtRp3938
(dp3939
g72
(dp3940
g80
I1
ssg81
g3934
sg74
(lp3941
I00
asbasbasbag67
(g83
g69
NtRp3942
(dp3943
g72
(dp3944
sg81
g3913
sg74
(lp3945
g67
(g88
g69
NtRp3946
(dp3947
g72
(dp3948
sg81
g3942
sg74
(lp3949
g67
(g68
g69
NtRp3950
(dp3951
g72
(dp3952
g80
I1
ssg81
g3946
sg74
(lp3953
S'/admin/default/design/MyApp'
p3954
asbasbasbag67
(g83
g69
NtRp3955
(dp3956
g72
(dp3957
sg81
g3913
sg74
(lp3958
g67
(g88
g69
NtRp3959
(dp3960
g72
(dp3961
sg81
g3955
sg74
(lp3962
g67
(g68
g69
NtRp3963
(dp3964
g72
(dp3965
g80
I1
ssg81
g3959
sg74
(lp3966
(lp3967
(g3728
(S's\n\x00\x00\x00Controller'
tRp3968
I00
S'/admin/default/edit/MyApp/controllers/default.py'
tp3969
a(g3728
(S's\x04\x00\x00\x00View'
tRp3970
I00
S'/admin/default/edit/MyApp/views/default/index.html'
tp3971
a(g3728
(S's\x06\x00\x00\x00Layout'
tRp3972
I00
S'/admin/default/edit/MyApp/views/layout.html'
tp3973
a(g3728
(S's\n\x00\x00\x00Stylesheet'
tRp3974
I00
S'/admin/default/edit/MyApp/static/css/web2py.css'
tp3975
a(g3728
(S's\x08\x00\x00\x00DB Model'
tRp3976
I00
S'/admin/default/edit/MyApp/models/db.py'
tp3977
a(g3728
(S's\n\x00\x00\x00Menu Model'
tRp3978
I00
S'/admin/default/edit/MyApp/models/menu.py'
tp3979
a(g3728
(S's\x08\x00\x00\x00Database'
tRp3980
I00
S'/MyApp/appadmin/index'
tp3981
a(g3728
(S's\x06\x00\x00\x00Errors'
tRp3982
I00
S'/admin/default/errors/MyApp'
tp3983
a(g3728
(S's\x05\x00\x00\x00About'
tRp3984
I00
S'/admin/default/about/MyApp'
tp3985
aasbasbasbasbasbasbasbag67
(g83
g69
NtRp3986
(dp3987
g72
(dp3988
sg81
g3843
sg74
(lp3989
g67
(g88
g69
NtRp3990
(dp3991
g72
(dp3992
sg81
g3986
sg74
(lp3993
g67
(g68
g69
NtRp3994
(dp3995
g72
(dp3996
g80
I2
ssg81
g3990
sg74
(lp3997
g67
(g76
g69
NtRp3998
(dp3999
g72
(dp4000
g80
I1
ssg81
Nsg74
(lp4001
g67
(g83
g69
NtRp4002
(dp4003
g72
(dp4004
sg81
g3998
sg74
(lp4005
g67
(g88
g69
NtRp4006
(dp4007
g72
(dp4008
sg81
g4002
sg74
(lp4009
g67
(g68
g69
NtRp4010
(dp4011
g72
(dp4012
g80
I1
ssg81
g4006
sg74
(lp4013
S'web2py.com'
p4014
asbasbasbag67
(g83
g69
NtRp4015
(dp4016
g72
(dp4017
sg81
g3998
sg74
(lp4018
g67
(g88
g69
NtRp4019
(dp4020
g72
(dp4021
sg81
g4015
sg74
(lp4022
g67
(g68
g69
NtRp4023
(dp4024
g72
(dp4025
g80
I1
ssg81
g4019
sg74
(lp4026
I00
asbasbasbag67
(g83
g69
NtRp4027
(dp4028
g72
(dp4029
sg81
g3998
sg74
(lp4030
g67
(g88
g69
NtRp4031
(dp4032
g72
(dp4033
sg81
g4027
sg74
(lp4034
g67
(g68
g69
NtRp4035
(dp4036
g72
(dp4037
g80
I1
ssg81
g4031
sg74
(lp4038
S'http://www.web2py.com'
p4039
asbasbasbag67
(g83
g69
NtRp4040
(dp4041
g72
(dp4042
sg81
g3998
sg74
(lp4043
g67
(g88
g69
NtRp4044
(dp4045
g72
(dp4046
sg81
g4040
sg74
(lp4047
g67
(g68
g69
NtRp4048
(dp4049
g72
(dp4050
g80
I1
ssg81
g4044
sg74
(lp4051
(lp4052
(g3728
(S's\x08\x00\x00\x00Download'
tRp4053
I00
S'http://www.web2py.com/examples/default/download'
p4054
tp4055
a(g3728
(S's\x07\x00\x00\x00Support'
tRp4056
I00
S'http://www.web2py.com/examples/default/support'
p4057
tp4058
a(g3728
(S's\x04\x00\x00\x00Demo'
tRp4059
I00
S'http://web2py.com/demo_admin'
p4060
tp4061
a(g3728
(S's\x0e\x00\x00\x00Quick Examples'
tRp4062
I00
S'http://web2py.com/examples/default/examples'
p4063
tp4064
a(g3728
(S's\x03\x00\x00\x00FAQ'
tRp4065
I00
S'http://web2py.com/AlterEgo'
p4066
tp4067
a(g3728
(S's\x06\x00\x00\x00Videos'
tRp4068
I00
S'http://www.web2py.com/examples/default/videos/'
p4069
tp4070
a(g3728
(S's\x11\x00\x00\x00Free Applications'
tRp4071
I00
S'http://web2py.com/appliances'
p4072
tp4073
a(g3728
(S's\x07\x00\x00\x00Plugins'
tRp4074
I00
S'http://web2py.com/plugins'
p4075
tp4076
a(g3728
(S's\x07\x00\x00\x00Layouts'
tRp4077
I00
S'http://web2py.com/layouts'
p4078
tp4079
a(g3728
(S's\x07\x00\x00\x00Recipes'
tRp4080
I00
S'http://web2pyslices.com/'
p4081
tp4082
a(g3728
(S's\x08\x00\x00\x00Semantic'
tRp4083
I00
S'http://web2py.com/semantic'
p4084
tp4085
aasbasbasbasbasbasbasbag67
(g83
g69
NtRp4086
(dp4087
g72
(dp4088
sg81
g3843
sg74
(lp4089
g67
(g88
g69
NtRp4090
(dp4091
g72
(dp4092
sg81
g4086
sg74
(lp4093
g67
(g68
g69
NtRp4094
(dp4095
g72
(dp4096
g80
I2
ssg81
g4090
sg74
(lp4097
g67
(g76
g69
NtRp4098
(dp4099
g72
(dp4100
g80
I1
ssg81
Nsg74
(lp4101
g67
(g83
g69
NtRp4102
(dp4103
g72
(dp4104
sg81
g4098
sg74
(lp4105
g67
(g88
g69
NtRp4106
(dp4107
g72
(dp4108
sg81
g4102
sg74
(lp4109
g67
(g68
g69
NtRp4110
(dp4111
g72
(dp4112
g80
I1
ssg81
g4106
sg74
(lp4113
g3728
(S's\r\x00\x00\x00Documentation'
tRp4114
asbasbasbag67
(g83
g69
NtRp4115
(dp4116
g72
(dp4117
sg81
g4098
sg74
(lp4118
g67
(g88
g69
NtRp4119
(dp4120
g72
(dp4121
sg81
g4115
sg74
(lp4122
g67
(g68
g69
NtRp4123
(dp4124
g72
(dp4125
g80
I1
ssg81
g4119
sg74
(lp4126
I00
asbasbasbag67
(g83
g69
NtRp4127
(dp4128
g72
(dp4129
sg81
g4098
sg74
(lp4130
g67
(g88
g69
NtRp4131
(dp4132
g72
(dp4133
sg81
g4127
sg74
(lp4134
g67
(g68
g69
NtRp4135
(dp4136
g72
(dp4137
g80
I1
ssg81
g4131
sg74
(lp4138
S'http://www.web2py.com/book'
p4139
asbasbasbag67
(g83
g69
NtRp4140
(dp4141
g72
(dp4142
sg81
g4098
sg74
(lp4143
g67
(g88
g69
NtRp4144
(dp4145
g72
(dp4146
sg81
g4140
sg74
(lp4147
g67
(g68
g69
NtRp4148
(dp4149
g72
(dp4150
g80
I1
ssg81
g4144
sg74
(lp4151
(lp4152
(g3728
(S's\x07\x00\x00\x00Preface'
tRp4153
I00
S'http://www.web2py.com/book/default/chapter/00'
p4154
tp4155
a(g3728
(S's\x0c\x00\x00\x00Introduction'
tRp4156
I00
S'http://www.web2py.com/book/default/chapter/01'
p4157
tp4158
a(g3728
(S's\x06\x00\x00\x00Python'
tRp4159
I00
S'http://www.web2py.com/book/default/chapter/02'
p4160
tp4161
a(g3728
(S's\x08\x00\x00\x00Overview'
tRp4162
I00
S'http://www.web2py.com/book/default/chapter/03'
p4163
tp4164
a(g3728
(S's\x08\x00\x00\x00The Core'
tRp4165
I00
S'http://www.web2py.com/book/default/chapter/04'
p4166
tp4167
a(g3728
(S's\t\x00\x00\x00The Views'
tRp4168
I00
S'http://www.web2py.com/book/default/chapter/05'
p4169
tp4170
a(g3728
(S's\x08\x00\x00\x00Database'
tRp4171
I00
S'http://www.web2py.com/book/default/chapter/06'
p4172
tp4173
a(g3728
(S's\x14\x00\x00\x00Forms and Validators'
tRp4174
I00
S'http://www.web2py.com/book/default/chapter/07'
p4175
tp4176
a(g3728
(S's\r\x00\x00\x00Email and SMS'
tRp4177
I00
S'http://www.web2py.com/book/default/chapter/08'
p4178
tp4179
a(g3728
(S's\x0e\x00\x00\x00Access Control'
tRp4180
I00
S'http://www.web2py.com/book/default/chapter/09'
p4181
tp4182
a(g3728
(S's\x08\x00\x00\x00Services'
tRp4183
I00
S'http://www.web2py.com/book/default/chapter/10'
p4184
tp4185
a(g3728
(S's\x0c\x00\x00\x00Ajax Recipes'
tRp4186
I00
S'http://www.web2py.com/book/default/chapter/11'
p4187
tp4188
a(g3728
(S's\x16\x00\x00\x00Components and Plugins'
tRp4189
I00
S'http://www.web2py.com/book/default/chapter/12'
p4190
tp4191
a(g3728
(S's\x12\x00\x00\x00Deployment Recipes'
tRp4192
I00
S'http://www.web2py.com/book/default/chapter/13'
p4193
tp4194
a(g3728
(S's\r\x00\x00\x00Other Recipes'
tRp4195
I00
S'http://www.web2py.com/book/default/chapter/14'
p4196
tp4197
a(g3728
(S's\r\x00\x00\x00Buy this book'
tRp4198
I00
S'http://stores.lulu.com/web2py'
p4199
tp4200
aasbasbasbasbasbasbasbag67
(g83
g69
NtRp4201
(dp4202
g72
(dp4203
sg81
g3843
sg74
(lp4204
g67
(g88
g69
NtRp4205
(dp4206
g72
(dp4207
sg81
g4201
sg74
(lp4208
g67
(g68
g69
NtRp4209
(dp4210
g72
(dp4211
g80
I2
ssg81
g4205
sg74
(lp4212
g67
(g76
g69
NtRp4213
(dp4214
g72
(dp4215
g80
I1
ssg81
Nsg74
(lp4216
g67
(g83
g69
NtRp4217
(dp4218
g72
(dp4219
sg81
g4213
sg74
(lp4220
g67
(g88
g69
NtRp4221
(dp4222
g72
(dp4223
sg81
g4217
sg74
(lp4224
g67
(g68
g69
NtRp4225
(dp4226
g72
(dp4227
g80
I1
ssg81
g4221
sg74
(lp4228
g3728
(S's\t\x00\x00\x00Community'
tRp4229
asbasbasbag67
(g83
g69
NtRp4230
(dp4231
g72
(dp4232
sg81
g4213
sg74
(lp4233
g67
(g88
g69
NtRp4234
(dp4235
g72
(dp4236
sg81
g4230
sg74
(lp4237
g67
(g68
g69
NtRp4238
(dp4239
g72
(dp4240
g80
I1
ssg81
g4234
sg74
(lp4241
I00
asbasbasbag67
(g83
g69
NtRp4242
(dp4243
g72
(dp4244
sg81
g4213
sg74
(lp4245
g67
(g88
g69
NtRp4246
(dp4247
g72
(dp4248
sg81
g4242
sg74
(lp4249
g67
(g68
g69
NtRp4250
(dp4251
g72
(dp4252
g80
I1
ssg81
g4246
sg74
(lp4253
Nasbasbasbag67
(g83
g69
NtRp4254
(dp4255
g72
(dp4256
sg81
g4213
sg74
(lp4257
g67
(g88
g69
NtRp4258
(dp4259
g72
(dp4260
sg81
g4254
sg74
(lp4261
g67
(g68
g69
NtRp4262
(dp4263
g72
(dp4264
g80
I1
ssg81
g4258
sg74
(lp4265
(lp4266
(g3728
(S's\x06\x00\x00\x00Groups'
tRp4267
I00
S'http://www.web2py.com/examples/default/usergroups'
p4268
tp4269
a(g3728
(S's\x07\x00\x00\x00Twitter'
tRp4270
I00
S'http://twitter.com/web2py'
p4271
tp4272
a(g3728
(S's\t\x00\x00\x00Live Chat'
tRp4273
I00
S'http://webchat.freenode.net/?channels=web2py'
p4274
tp4275
aasbasbasbasbasbasbasbag67
(g83
g69
NtRp4276
(dp4277
g72
(dp4278
sg81
g3843
sg74
(lp4279
g67
(g88
g69
NtRp4280
(dp4281
g72
(dp4282
sg81
g4276
sg74
(lp4283
g67
(g68
g69
NtRp4284
(dp4285
g72
(dp4286
g80
I2
ssg81
g4280
sg74
(lp4287
g67
(g76
g69
NtRp4288
(dp4289
g72
(dp4290
g80
I1
ssg81
Nsg74
(lp4291
g67
(g83
g69
NtRp4292
(dp4293
g72
(dp4294
sg81
g4288
sg74
(lp4295
g67
(g88
g69
NtRp4296
(dp4297
g72
(dp4298
sg81
g4292
sg74
(lp4299
g67
(g68
g69
NtRp4300
(dp4301
g72
(dp4302
g80
I1
ssg81
g4296
sg74
(lp4303
g3728
(S's\x07\x00\x00\x00Plugins'
tRp4304
asbasbasbag67
(g83
g69
NtRp4305
(dp4306
g72
(dp4307
sg81
g4288
sg74
(lp4308
g67
(g88
g69
NtRp4309
(dp4310
g72
(dp4311
sg81
g4305
sg74
(lp4312
g67
(g68
g69
NtRp4313
(dp4314
g72
(dp4315
g80
I1
ssg81
g4309
sg74
(lp4316
I00
asbasbasbag67
(g83
g69
NtRp4317
(dp4318
g72
(dp4319
sg81
g4288
sg74
(lp4320
g67
(g88
g69
NtRp4321
(dp4322
g72
(dp4323
sg81
g4317
sg74
(lp4324
g67
(g68
g69
NtRp4325
(dp4326
g72
(dp4327
g80
I1
ssg81
g4321
sg74
(lp4328
Nasbasbasbag67
(g83
g69
NtRp4329
(dp4330
g72
(dp4331
sg81
g4288
sg74
(lp4332
g67
(g88
g69
NtRp4333
(dp4334
g72
(dp4335
sg81
g4329
sg74
(lp4336
g67
(g68
g69
NtRp4337
(dp4338
g72
(dp4339
g80
I1
ssg81
g4333
sg74
(lp4340
(lp4341
(S'plugin_wiki'
p4342
I00
S'http://web2py.com/examples/default/download'
p4343
tp4344
a(g3728
(S's\r\x00\x00\x00Other Plugins'
tRp4345
I00
g4075
tp4346
a(g3728
(S's\x0e\x00\x00\x00Layout Plugins'
tRp4347
I00
g4078
tp4348
aasbasbasbasbasbasbasbasbasbasbasbasbasbasbasbasbasbasbasbag67
(g83
g69
NtRp4349
(dp4350
g72
(dp4351
sg81
g3237
sg74
(lp4352
g67
(g88
g69
NtRp4353
(dp4354
g72
(dp4355
g92
g93
ssg81
g4349
sg74
(lp4356
S'meta'
p4357
asbag67
(g88
g69
NtRp4358
(dp4359
g72
(dp4360
g99
g100
ssg81
g4349
sg74
(lp4361
S':'
asbag67
(g88
g69
NtRp4362
(dp4363
g72
(dp4364
sg81
g4349
sg74
(lp4365
g67
(g68
g69
NtRp4366
(dp4367
g72
(dp4368
g80
I5
ssg81
g4362
sg74
(lp4369
g67
(g76
g69
NtRp4370
(dp4371
g72
(dp4372
g80
I4
ssg81
Nsg74
(lp4373
g67
(g83
g69
NtRp4374
(dp4375
g72
(dp4376
sg81
g4370
sg74
(lp4377
g67
(g88
g69
NtRp4378
(dp4379
g72
(dp4380
g92
g93
ssg81
g4374
sg74
(lp4381
S'author'
p4382
asbag67
(g88
g69
NtRp4383
(dp4384
g72
(dp4385
g99
g100
ssg81
g4374
sg74
(lp4386
S':'
asbag67
(g88
g69
NtRp4387
(dp4388
g72
(dp4389
sg81
g4374
sg74
(lp4390
g67
(g68
g69
NtRp4391
(dp4392
g72
(dp4393
g80
I4
ssg81
g4387
sg74
(lp4394
S'Your Name <you@example.com>'
p4395
asbasbasbag67
(g83
g69
NtRp4396
(dp4397
g72
(dp4398
sg81
g4370
sg74
(lp4399
g67
(g88
g69
NtRp4400
(dp4401
g72
(dp4402
g92
g93
ssg81
g4396
sg74
(lp4403
S'description'
p4404
asbag67
(g88
g69
NtRp4405
(dp4406
g72
(dp4407
g99
g100
ssg81
g4396
sg74
(lp4408
S':'
asbag67
(g88
g69
NtRp4409
(dp4410
g72
(dp4411
sg81
g4396
sg74
(lp4412
g67
(g68
g69
NtRp4413
(dp4414
g72
(dp4415
g80
I4
ssg81
g4409
sg74
(lp4416
S'a cool new app'
p4417
asbasbasbag67
(g83
g69
NtRp4418
(dp4419
g72
(dp4420
sg81
g4370
sg74
(lp4421
g67
(g88
g69
NtRp4422
(dp4423
g72
(dp4424
g92
g93
ssg81
g4418
sg74
(lp4425
S'generator'
p4426
asbag67
(g88
g69
NtRp4427
(dp4428
g72
(dp4429
g99
g100
ssg81
g4418
sg74
(lp4430
S':'
asbag67
(g88
g69
NtRp4431
(dp4432
g72
(dp4433
sg81
g4418
sg74
(lp4434
g67
(g68
g69
NtRp4435
(dp4436
g72
(dp4437
g80
I4
ssg81
g4431
sg74
(lp4438
S'Web2py Web Framework'
p4439
asbasbasbag67
(g83
g69
NtRp4440
(dp4441
g72
(dp4442
sg81
g4370
sg74
(lp4443
g67
(g88
g69
NtRp4444
(dp4445
g72
(dp4446
g92
g93
ssg81
g4440
sg74
(lp4447
S'keywords'
p4448
asbag67
(g88
g69
NtRp4449
(dp4450
g72
(dp4451
g99
g100
ssg81
g4440
sg74
(lp4452
S':'
asbag67
(g88
g69
NtRp4453
(dp4454
g72
(dp4455
sg81
g4440
sg74
(lp4456
g67
(g68
g69
NtRp4457
(dp4458
g72
(dp4459
g80
I4
ssg81
g4453
sg74
(lp4460
S'web2py, python, framework'
p4461
asbasbasbasbasbasbasbag67
(g83
g69
NtRp4462
(dp4463
g72
(dp4464
sg81
g3237
sg74
(lp4465
g67
(g88
g69
NtRp4466
(dp4467
g72
(dp4468
g92
g93
ssg81
g4462
sg74
(lp4469
S'models_to_run'
p4470
asbag67
(g88
g69
NtRp4471
(dp4472
g72
(dp4473
g99
g100
ssg81
g4462
sg74
(lp4474
S':'
asbag67
(g88
g69
NtRp4475
(dp4476
g72
(dp4477
sg81
g4462
sg74
(lp4478
g67
(g68
g69
NtRp4479
(dp4480
g72
(dp4481
g80
I5
ssg81
g4475
sg74
(lp4482
g67
(g76
g69
NtRp4483
(dp4484
g72
(dp4485
g80
I4
ssg81
Nsg74
(lp4486
g67
(g83
g69
NtRp4487
(dp4488
g72
(dp4489
sg81
g4483
sg74
(lp4490
g67
(g88
g69
NtRp4491
(dp4492
g72
(dp4493
sg81
g4487
sg74
(lp4494
g67
(g68
g69
NtRp4495
(dp4496
g72
(dp4497
g80
I4
ssg81
g4491
sg74
(lp4498
S'^\\w+\\.py$'
p4499
asbasbasbag67
(g83
g69
NtRp4500
(dp4501
g72
(dp4502
sg81
g4483
sg74
(lp4503
g67
(g88
g69
NtRp4504
(dp4505
g72
(dp4506
sg81
g4500
sg74
(lp4507
g67
(g68
g69
NtRp4508
(dp4509
g72
(dp4510
g80
I4
ssg81
g4504
sg74
(lp4511
S'^default/\\w+\\.py$'
p4512
asbasbasbag67
(g83
g69
NtRp4513
(dp4514
g72
(dp4515
sg81
g4483
sg74
(lp4516
g67
(g88
g69
NtRp4517
(dp4518
g72
(dp4519
sg81
g4513
sg74
(lp4520
g67
(g68
g69
NtRp4521
(dp4522
g72
(dp4523
g80
I4
ssg81
g4517
sg74
(lp4524
S'^default/index/\\w+\\.py$'
p4525
asbasbasbasbasbasbasbag67
(g83
g69
NtRp4526
(dp4527
g72
(dp4528
sg81
g3237
sg74
(lp4529
g67
(g88
g69
NtRp4530
(dp4531
g72
(dp4532
g92
g93
ssg81
g4526
sg74
(lp4533
S'postprocessing'
p4534
asbag67
(g88
g69
NtRp4535
(dp4536
g72
(dp4537
g99
g100
ssg81
g4526
sg74
(lp4538
S':'
asbag67
(g88
g69
NtRp4539
(dp4540
g72
(dp4541
sg81
g4526
sg74
(lp4542
g67
(g68
g69
NtRp4543
(dp4544
g72
(dp4545
g80
I5
ssg81
g4539
sg74
(lp4546
g67
(g76
g69
NtRp4547
(dp4548
g72
(dp4549
g80
I4
ssg81
Nsg74
(lp4550
sbasbasbasbag67
(g83
g69
NtRp4551
(dp4552
g72
(dp4553
sg81
g3237
sg74
(lp4554
g67
(g88
g69
NtRp4555
(dp4556
g72
(dp4557
g92
g93
ssg81
g4551
sg74
(lp4558
S'session_cookie_expires'
p4559
asbag67
(g88
g69
NtRp4560
(dp4561
g72
(dp4562
g99
g100
ssg81
g4551
sg74
(lp4563
S':'
asbag67
(g88
g69
NtRp4564
(dp4565
g72
(dp4566
sg81
g4551
sg74
(lp4567
g67
(g68
g69
NtRp4568
(dp4569
g72
(dp4570
g80
I5
ssg81
g4564
sg74
(lp4571
S'None'
p4572
asbasbasbag67
(g83
g69
NtRp4573
(dp4574
g72
(dp4575
sg81
g3237
sg74
(lp4576
g67
(g88
g69
NtRp4577
(dp4578
g72
(dp4579
g92
g93
ssg81
g4573
sg74
(lp4580
S'session_data_name'
p4581
asbag67
(g88
g69
NtRp4582
(dp4583
g72
(dp4584
g99
g100
ssg81
g4573
sg74
(lp4585
S':'
asbag67
(g88
g69
NtRp4586
(dp4587
g72
(dp4588
sg81
g4573
sg74
(lp4589
g67
(g68
g69
NtRp4590
(dp4591
g72
(dp4592
g80
I5
ssg81
g4586
sg74
(lp4593
S'session_data_myapp'
p4594
asbasbasbag67
(g83
g69
NtRp4595
(dp4596
g72
(dp4597
sg81
g3237
sg74
(lp4598
g67
(g88
g69
NtRp4599
(dp4600
g72
(dp4601
g92
g93
ssg81
g4595
sg74
(lp4602
S'session_filename'
p4603
asbag67
(g88
g69
NtRp4604
(dp4605
g72
(dp4606
g99
g100
ssg81
g4595
sg74
(lp4607
S':'
asbag67
(g88
g69
NtRp4608
(dp4609
g72
(dp4610
sg81
g4595
sg74
(lp4611
g67
(g68
g69
NtRp4612
(dp4613
g72
(dp4614
g80
I5
ssg81
g4608
sg74
(lp4615
S'/Users/keshav/Desktop/web2py/applications/MyApp/sessions/127.0.0.1-b23cbbdf-b3a5-42d2-b35d-e6ce202a798c'
p4616
asbasbasbag67
(g83
g69
NtRp4617
(dp4618
g72
(dp4619
sg81
g3237
sg74
(lp4620
g67
(g88
g69
NtRp4621
(dp4622
g72
(dp4623
g92
g93
ssg81
g4617
sg74
(lp4624
S'session_id'
p4625
asbag67
(g88
g69
NtRp4626
(dp4627
g72
(dp4628
g99
g100
ssg81
g4617
sg74
(lp4629
S':'
asbag67
(g88
g69
NtRp4630
(dp4631
g72
(dp4632
sg81
g4617
sg74
(lp4633
g67
(g68
g69
NtRp4634
(dp4635
g72
(dp4636
g80
I5
ssg81
g4630
sg74
(lp4637
g3307
asbasbasbag67
(g83
g69
NtRp4638
(dp4639
g72
(dp4640
sg81
g3237
sg74
(lp4641
g67
(g88
g69
NtRp4642
(dp4643
g72
(dp4644
g92
g93
ssg81
g4638
sg74
(lp4645
S'session_id_name'
p4646
asbag67
(g88
g69
NtRp4647
(dp4648
g72
(dp4649
g99
g100
ssg81
g4638
sg74
(lp4650
S':'
asbag67
(g88
g69
NtRp4651
(dp4652
g72
(dp4653
sg81
g4638
sg74
(lp4654
g67
(g68
g69
NtRp4655
(dp4656
g72
(dp4657
g80
I5
ssg81
g4651
sg74
(lp4658
g3294
asbasbasbag67
(g83
g69
NtRp4659
(dp4660
g72
(dp4661
sg81
g3237
sg74
(lp4662
g67
(g88
g69
NtRp4663
(dp4664
g72
(dp4665
g92
g93
ssg81
g4659
sg74
(lp4666
S'session_new'
p4667
asbag67
(g88
g69
NtRp4668
(dp4669
g72
(dp4670
g99
g100
ssg81
g4659
sg74
(lp4671
S':'
asbag67
(g88
g69
NtRp4672
(dp4673
g72
(dp4674
sg81
g4659
sg74
(lp4675
g67
(g68
g69
NtRp4676
(dp4677
g72
(dp4678
g80
I5
ssg81
g4672
sg74
(lp4679
g1756
asbasbasbag67
(g83
g69
NtRp4680
(dp4681
g72
(dp4682
sg81
g3237
sg74
(lp4683
g67
(g88
g69
NtRp4684
(dp4685
g72
(dp4686
g92
g93
ssg81
g4680
sg74
(lp4687
S'session_storage_type'
p4688
asbag67
(g88
g69
NtRp4689
(dp4690
g72
(dp4691
g99
g100
ssg81
g4680
sg74
(lp4692
S':'
asbag67
(g88
g69
NtRp4693
(dp4694
g72
(dp4695
sg81
g4680
sg74
(lp4696
g67
(g68
g69
NtRp4697
(dp4698
g72
(dp4699
g80
I5
ssg81
g4693
sg74
(lp4700
g3166
asbasbasbag67
(g83
g69
NtRp4701
(dp4702
g72
(dp4703
sg81
g3237
sg74
(lp4704
g67
(g88
g69
NtRp4705
(dp4706
g72
(dp4707
g92
g93
ssg81
g4701
sg74
(lp4708
S'status'
p4709
asbag67
(g88
g69
NtRp4710
(dp4711
g72
(dp4712
g99
g100
ssg81
g4701
sg74
(lp4713
S':'
asbag67
(g88
g69
NtRp4714
(dp4715
g72
(dp4716
sg81
g4701
sg74
(lp4717
g67
(g68
g69
NtRp4718
(dp4719
g72
(dp4720
g80
I5
ssg81
g4714
sg74
(lp4721
S'200'
p4722
asbasbasbag67
(g83
g69
NtRp4723
(dp4724
g72
(dp4725
sg81
g3237
sg74
(lp4726
g67
(g88
g69
NtRp4727
(dp4728
g72
(dp4729
g92
g93
ssg81
g4723
sg74
(lp4730
S'subtitle'
p4731
asbag67
(g88
g69
NtRp4732
(dp4733
g72
(dp4734
g99
g100
ssg81
g4723
sg74
(lp4735
S':'
asbag67
(g88
g69
NtRp4736
(dp4737
g72
(dp4738
sg81
g4723
sg74
(lp4739
g67
(g68
g69
NtRp4740
(dp4741
g72
(dp4742
g80
I5
ssg81
g4736
sg74
(lp4743
g3728
(S's\r\x00\x00\x00customize me!'
tRp4744
asbasbasbag67
(g83
g69
NtRp4745
(dp4746
g72
(dp4747
sg81
g3237
sg74
(lp4748
g67
(g88
g69
NtRp4749
(dp4750
g72
(dp4751
g92
g93
ssg81
g4745
sg74
(lp4752
S'title'
p4753
asbag67
(g88
g69
NtRp4754
(dp4755
g72
(dp4756
g99
g100
ssg81
g4745
sg74
(lp4757
S':'
asbag67
(g88
g69
NtRp4758
(dp4759
g72
(dp4760
sg81
g4745
sg74
(lp4761
g67
(g68
g69
NtRp4762
(dp4763
g72
(dp4764
g80
I5
ssg81
g4758
sg74
(lp4765
S'Myapp'
p4766
asbasbasbag67
(g83
g69
NtRp4767
(dp4768
g72
(dp4769
sg81
g3237
sg74
(lp4770
g67
(g88
g69
NtRp4771
(dp4772
g72
(dp4773
g92
g93
ssg81
g4767
sg74
(lp4774
S'view'
p4775
asbag67
(g88
g69
NtRp4776
(dp4777
g72
(dp4778
g99
g100
ssg81
g4767
sg74
(lp4779
S':'
asbag67
(g88
g69
NtRp4780
(dp4781
g72
(dp4782
sg81
g4767
sg74
(lp4783
g67
(g68
g69
NtRp4784
(dp4785
g72
(dp4786
g80
I5
ssg81
g4780
sg74
(lp4787
S'default/index.html'
p4788
asbasbasbasbasbsS'locals'
p4789
(dp4790
g4
S"'/Users/keshav/Desktop/web2py/applications/MyApp/views/default/index.html'"
p4791
sg6
S'"response.write(\'<html>\\\\n   <head></head>\\\\n   <bo...>\\\\n       <h2>\', escape=False)\\nh2>\\n</body>\\n</html"'
p4792
sssS'traceback'
p4793
S'Traceback (most recent call last):\n  File "/Users/keshav/Desktop/web2py/gluon/restricted.py", line 211, in restricted\n    ccode = compile2(code, layer)\n  File "/Users/keshav/Desktop/web2py/gluon/restricted.py", line 194, in compile2\n    return compile(code.rstrip().replace(\'\\r\\n\', \'\\n\') + \'\\n\', layer, \'exec\')\n  File "/Users/keshav/Desktop/web2py/applications/MyApp/views/default/index.html", line 4\n    h2>\n      \n^\nSyntaxError: invalid syntax\n'
p4794
s.