(dp1
S'output'
p2
S"<type 'exceptions.SyntaxError'> Field level does not belong to the table"
p3
sS'layer'
p4
S'/Users/keshav/Desktop/web2py/applications/MyApp/controllers/default.py'
p5
sS'code'
p6
S'# -*- coding: utf-8 -*-\n# this file is released under public domain and you can use without limitations\n\n#########################################################################\n## This is a samples controller\n## - index is the default action of any application\n## - user is required for authentication and authorization\n## - download is for downloading files uploaded in the db (does streaming)\n## - call exposes all registered services (none by default)\n#########################################################################\nimport StringIO, sys\nfrom contextlib import contextmanager\nfrom code import InteractiveConsole\n\n\n\n\ndef index():\n    """\n    example action using the internationalization operator T and flash\n    rendered by views/default/index.html or views/generic.html\n\n    if you need a simple wiki simple replace the two lines below with:\n    return auth.wiki()\n    """\n    #response.flash = T("Welcome to web2py!")\n    return dict(message=T(\'Hello World\'))\n    #return "Hello World"\n    #return dict(message=\'Hello World\',message1=\'Hello World again!!\')\n\n\ndef user():\n    """\n    exposes:\n    http://..../[app]/default/user/login\n    http://..../[app]/default/user/logout\n    http://..../[app]/default/user/register\n    http://..../[app]/default/user/profile\n    http://..../[app]/default/user/retrieve_password\n    http://..../[app]/default/user/change_password\n    use @auth.requires_login()\n        @auth.requires_membership(\'group name\')\n        @auth.requires_permission(\'read\',\'table name\',record_id)\n    to decorate functions that need access control\n    """\n    return dict(form=auth())\n\n\ndef download():\n    """\n    allows downloading of uploaded files\n    http://..../[app]/default/download/[filename]\n    """\n    return response.download(request, db)\n\n\ndef call():\n    """\n    exposes services. for example:\n    http://..../[app]/default/call/jsonrpc\n    decorate with @services.jsonrpc the functions to expose\n    supports xml, json, xmlrpc, jsonrpc, amfrpc, rss, csv\n    """\n    return service()\n\n\n@auth.requires_signature()\ndef data():\n    """\n    http://..../[app]/default/data/tables\n    http://..../[app]/default/data/create/[table]\n    http://..../[app]/default/data/read/[table]/[id]\n    http://..../[app]/default/data/update/[table]/[id]\n    http://..../[app]/default/data/delete/[table]/[id]\n    http://..../[app]/default/data/select/[table]\n    http://..../[app]/default/data/search/[table]\n    but URLs must be signed, i.e. linked with\n      A(\'table\',_href=URL(\'data/tables\',user_signature=True))\n    or with the signed load operator\n      LOAD(\'default\',\'data.load\',args=\'tables\',ajax=True,user_signature=True)\n    """\n    return dict(form=crud())\n\n\ndef echo():\n    return request.vars[\'name\']\n\n@contextmanager\ndef redirected(out=sys.stdout, err=sys.stderr):\n\t    saved = sys.stdout, sys.stderr\n\t    sys.stdout, sys.stderr = out, err\n\t    try:\n\t        yield\n\t    finally:\n\t        sys.stdout, sys.stderr = saved\n\nrunner = InteractiveConsole()\ndef fun():\t\t\n\t   \n\t    out = StringIO.StringIO()\n\t    err = StringIO.StringIO()\n\t    with redirected(out=out, err=err):\n\t            code = request.vars[\'name\']\n\t            code.rstrip(\'\\n\')\n\t            runner.push(code)\n\t            output = out.getvalue()\n\t            error = err.getvalue()\n\t            return output+error\n\n\t\t\ndef update_tut():\n    if(auth.is_logged_in()):\n        db.auth_user.insert(id=2,level=5)\n        row = db(db.auth_user.id==auth.user_id).select().first()\n        row.level = 1\n        row.update_record()\n        return auth.user_id\n    else:\n        return 99\n\nresponse._vars=response._caller(update_tut)\n'
p7
sS'snapshot'
p8
(dp9
S'exception'
p10
(dp11
S'__getslice__'
p12
S"<method-wrapper '__getslice__' of exceptions.SyntaxError object at 0x11ac16230>"
p13
sS'text'
p14
S'None'
p15
sS'__str__'
p16
S"<method-wrapper '__str__' of exceptions.SyntaxError object at 0x11ac16230>"
p17
sS'__reduce__'
p18
S'<built-in method __reduce__ of exceptions.SyntaxError object at 0x11ac16230>'
p19
sS'__dict__'
p20
S'{}'
p21
sS'__sizeof__'
p22
S'<built-in method __sizeof__ of exceptions.SyntaxError object at 0x11ac16230>'
p23
sS'__init__'
p24
S"<method-wrapper '__init__' of exceptions.SyntaxError object at 0x11ac16230>"
p25
sS'__setattr__'
p26
S"<method-wrapper '__setattr__' of exceptions.SyntaxError object at 0x11ac16230>"
p27
sS'__reduce_ex__'
p28
S'<built-in method __reduce_ex__ of exceptions.SyntaxError object at 0x11ac16230>'
p29
sS'__new__'
p30
S'<built-in method __new__ of type object at 0x10011bb20>'
p31
sS'__format__'
p32
S'<built-in method __format__ of exceptions.SyntaxError object at 0x11ac16230>'
p33
sS'__class__'
p34
S"<type 'exceptions.SyntaxError'>"
p35
sS'filename'
p36
S'None'
p37
sS'lineno'
p38
S'None'
p39
sS'msg'
p40
S"'Field level does not belong to the table'"
p41
sS'__doc__'
p42
S"'Invalid syntax.'"
p43
sS'__getitem__'
p44
S"<method-wrapper '__getitem__' of exceptions.SyntaxError object at 0x11ac16230>"
p45
sS'__setstate__'
p46
S'<built-in method __setstate__ of exceptions.SyntaxError object at 0x11ac16230>'
p47
sS'__getattribute__'
p48
S"<method-wrapper '__getattribute__' of exceptions.SyntaxError object at 0x11ac16230>"
p49
sS'print_file_and_line'
p50
S'None'
p51
sS'args'
p52
S"('Field level does not belong to the table',)"
p53
sS'__subclasshook__'
p54
S'<built-in method __subclasshook__ of type object at 0x10011bb20>'
p55
sS'offset'
p56
S'None'
p57
sS'__unicode__'
p58
S'<built-in method __unicode__ of exceptions.SyntaxError object at 0x11ac16230>'
p59
sS'__delattr__'
p60
S"<method-wrapper '__delattr__' of exceptions.SyntaxError object at 0x11ac16230>"
p61
sS'__repr__'
p62
S"<method-wrapper '__repr__' of exceptions.SyntaxError object at 0x11ac16230>"
p63
sS'__hash__'
p64
S"<method-wrapper '__hash__' of exceptions.SyntaxError object at 0x11ac16230>"
p65
ssS'evalue'
p66
S'Field level does not belong to the table'
p67
sS'request'
p68
ccopy_reg
_reconstructor
p69
(cgluon.html
BEAUTIFY
p70
c__builtin__
object
p71
NtRp72
(dp73
S'attributes'
p74
(dp75
sS'components'
p76
(lp77
g69
(cgluon.html
TABLE
p78
g71
NtRp79
(dp80
g74
(dp81
S'level'
p82
I5
ssS'parent'
p83
Nsg76
(lp84
g69
(cgluon.html
TR
p85
g71
NtRp86
(dp87
g74
(dp88
sg83
g79
sg76
(lp89
g69
(cgluon.html
TD
p90
g71
NtRp91
(dp92
g74
(dp93
S'_style'
p94
S'font-weight:bold;vertical-align:top'
p95
ssg83
g86
sg76
(lp96
S'ajax'
p97
asbag69
(g90
g71
NtRp98
(dp99
g74
(dp100
S'_valign'
p101
S'top'
p102
ssg83
g86
sg76
(lp103
S':'
asbag69
(g90
g71
NtRp104
(dp105
g74
(dp106
sg83
g86
sg76
(lp107
g69
(g70
g71
NtRp108
(dp109
g74
(dp110
g82
I5
ssg83
g104
sg76
(lp111
S'False'
p112
asbasbasbag69
(g85
g71
NtRp113
(dp114
g74
(dp115
sg83
g79
sg76
(lp116
g69
(g90
g71
NtRp117
(dp118
g74
(dp119
g94
g95
ssg83
g113
sg76
(lp120
S'application'
p121
asbag69
(g90
g71
NtRp122
(dp123
g74
(dp124
g101
g102
ssg83
g113
sg76
(lp125
S':'
asbag69
(g90
g71
NtRp126
(dp127
g74
(dp128
sg83
g113
sg76
(lp129
g69
(g70
g71
NtRp130
(dp131
g74
(dp132
g82
I5
ssg83
g126
sg76
(lp133
S'MyApp'
p134
asbasbasbag69
(g85
g71
NtRp135
(dp136
g74
(dp137
sg83
g79
sg76
(lp138
g69
(g90
g71
NtRp139
(dp140
g74
(dp141
g94
g95
ssg83
g135
sg76
(lp142
g52
asbag69
(g90
g71
NtRp143
(dp144
g74
(dp145
g101
g102
ssg83
g135
sg76
(lp146
S':'
asbag69
(g90
g71
NtRp147
(dp148
g74
(dp149
sg83
g135
sg76
(lp150
g69
(g70
g71
NtRp151
(dp152
g74
(dp153
g82
I5
ssg83
g147
sg76
(lp154
g69
(g78
g71
NtRp155
(dp156
g74
(dp157
g82
I4
ssg83
Nsg76
(lp158
sbasbasbasbag69
(g85
g71
NtRp159
(dp160
g74
(dp161
sg83
g79
sg76
(lp162
g69
(g90
g71
NtRp163
(dp164
g74
(dp165
g94
g95
ssg83
g159
sg76
(lp166
S'body'
p167
asbag69
(g90
g71
NtRp168
(dp169
g74
(dp170
g101
g102
ssg83
g159
sg76
(lp171
S':'
asbag69
(g90
g71
NtRp172
(dp173
g74
(dp174
sg83
g159
sg76
(lp175
g69
(g70
g71
NtRp176
(dp177
g74
(dp178
g82
I5
ssg83
g172
sg76
(lp179
S"<open file '<fdopen>', mode 'w+b' at 0x11861d470>"
p180
asbasbasbag69
(g85
g71
NtRp181
(dp182
g74
(dp183
sg83
g79
sg76
(lp184
g69
(g90
g71
NtRp185
(dp186
g74
(dp187
g94
g95
ssg83
g181
sg76
(lp188
S'cid'
p189
asbag69
(g90
g71
NtRp190
(dp191
g74
(dp192
g101
g102
ssg83
g181
sg76
(lp193
S':'
asbag69
(g90
g71
NtRp194
(dp195
g74
(dp196
sg83
g181
sg76
(lp197
g69
(g70
g71
NtRp198
(dp199
g74
(dp200
g82
I5
ssg83
g194
sg76
(lp201
S'None'
p202
asbasbasbag69
(g85
g71
NtRp203
(dp204
g74
(dp205
sg83
g79
sg76
(lp206
g69
(g90
g71
NtRp207
(dp208
g74
(dp209
g94
g95
ssg83
g203
sg76
(lp210
S'client'
p211
asbag69
(g90
g71
NtRp212
(dp213
g74
(dp214
g101
g102
ssg83
g203
sg76
(lp215
S':'
asbag69
(g90
g71
NtRp216
(dp217
g74
(dp218
sg83
g203
sg76
(lp219
g69
(g70
g71
NtRp220
(dp221
g74
(dp222
g82
I5
ssg83
g216
sg76
(lp223
S'127.0.0.1'
p224
asbasbasbag69
(g85
g71
NtRp225
(dp226
g74
(dp227
sg83
g79
sg76
(lp228
g69
(g90
g71
NtRp229
(dp230
g74
(dp231
g94
g95
ssg83
g225
sg76
(lp232
S'controller'
p233
asbag69
(g90
g71
NtRp234
(dp235
g74
(dp236
g101
g102
ssg83
g225
sg76
(lp237
S':'
asbag69
(g90
g71
NtRp238
(dp239
g74
(dp240
sg83
g225
sg76
(lp241
g69
(g70
g71
NtRp242
(dp243
g74
(dp244
g82
I5
ssg83
g238
sg76
(lp245
S'default'
p246
asbasbasbag69
(g85
g71
NtRp247
(dp248
g74
(dp249
sg83
g79
sg76
(lp250
g69
(g90
g71
NtRp251
(dp252
g74
(dp253
g94
g95
ssg83
g247
sg76
(lp254
S'cookies'
p255
asbag69
(g90
g71
NtRp256
(dp257
g74
(dp258
g101
g102
ssg83
g247
sg76
(lp259
S':'
asbag69
(g90
g71
NtRp260
(dp261
g74
(dp262
sg83
g247
sg76
(lp263
g69
(g70
g71
NtRp264
(dp265
g74
(dp266
g82
I5
ssg83
g260
sg76
(lp267
g69
(g78
g71
NtRp268
(dp269
g74
(dp270
g82
I4
ssg83
Nsg76
(lp271
g69
(g85
g71
NtRp272
(dp273
g74
(dp274
sg83
g268
sg76
(lp275
g69
(g90
g71
NtRp276
(dp277
g74
(dp278
g94
g95
ssg83
g272
sg76
(lp279
S'session_id_admin'
p280
asbag69
(g90
g71
NtRp281
(dp282
g74
(dp283
g101
g102
ssg83
g272
sg76
(lp284
S':'
asbag69
(g90
g71
NtRp285
(dp286
g74
(dp287
sg83
g272
sg76
(lp288
g69
(g70
g71
NtRp289
(dp290
g74
(dp291
g82
I4
ssg83
g285
sg76
(lp292
S'127.0.0.1-51e419b9-a703-41ed-88da-b440e5ce8e79'
p293
ag69
(g78
g71
NtRp294
(dp295
g74
(dp296
g82
I3
ssg83
Nsg76
(lp297
g69
(g85
g71
NtRp298
(dp299
g74
(dp300
sg83
g294
sg76
(lp301
g69
(g90
g71
NtRp302
(dp303
g74
(dp304
g94
g95
ssg83
g298
sg76
(lp305
S'comment'
p306
asbag69
(g90
g71
NtRp307
(dp308
g74
(dp309
g101
g102
ssg83
g298
sg76
(lp310
S':'
asbag69
(g90
g71
NtRp311
(dp312
g74
(dp313
sg83
g298
sg76
(lp314
g69
(g70
g71
NtRp315
(dp316
g74
(dp317
g82
I3
ssg83
g311
sg76
(lp318
S''
asbasbasbag69
(g85
g71
NtRp319
(dp320
g74
(dp321
sg83
g294
sg76
(lp322
g69
(g90
g71
NtRp323
(dp324
g74
(dp325
g94
g95
ssg83
g319
sg76
(lp326
S'domain'
p327
asbag69
(g90
g71
NtRp328
(dp329
g74
(dp330
g101
g102
ssg83
g319
sg76
(lp331
S':'
asbag69
(g90
g71
NtRp332
(dp333
g74
(dp334
sg83
g319
sg76
(lp335
g69
(g70
g71
NtRp336
(dp337
g74
(dp338
g82
I3
ssg83
g332
sg76
(lp339
S''
asbasbasbag69
(g85
g71
NtRp340
(dp341
g74
(dp342
sg83
g294
sg76
(lp343
g69
(g90
g71
NtRp344
(dp345
g74
(dp346
g94
g95
ssg83
g340
sg76
(lp347
S'expires'
p348
asbag69
(g90
g71
NtRp349
(dp350
g74
(dp351
g101
g102
ssg83
g340
sg76
(lp352
S':'
asbag69
(g90
g71
NtRp353
(dp354
g74
(dp355
sg83
g340
sg76
(lp356
g69
(g70
g71
NtRp357
(dp358
g74
(dp359
g82
I3
ssg83
g353
sg76
(lp360
S''
asbasbasbag69
(g85
g71
NtRp361
(dp362
g74
(dp363
sg83
g294
sg76
(lp364
g69
(g90
g71
NtRp365
(dp366
g74
(dp367
g94
g95
ssg83
g361
sg76
(lp368
S'httponly'
p369
asbag69
(g90
g71
NtRp370
(dp371
g74
(dp372
g101
g102
ssg83
g361
sg76
(lp373
S':'
asbag69
(g90
g71
NtRp374
(dp375
g74
(dp376
sg83
g361
sg76
(lp377
g69
(g70
g71
NtRp378
(dp379
g74
(dp380
g82
I3
ssg83
g374
sg76
(lp381
S''
asbasbasbag69
(g85
g71
NtRp382
(dp383
g74
(dp384
sg83
g294
sg76
(lp385
g69
(g90
g71
NtRp386
(dp387
g74
(dp388
g94
g95
ssg83
g382
sg76
(lp389
S'max-age'
p390
asbag69
(g90
g71
NtRp391
(dp392
g74
(dp393
g101
g102
ssg83
g382
sg76
(lp394
S':'
asbag69
(g90
g71
NtRp395
(dp396
g74
(dp397
sg83
g382
sg76
(lp398
g69
(g70
g71
NtRp399
(dp400
g74
(dp401
g82
I3
ssg83
g395
sg76
(lp402
S''
asbasbasbag69
(g85
g71
NtRp403
(dp404
g74
(dp405
sg83
g294
sg76
(lp406
g69
(g90
g71
NtRp407
(dp408
g74
(dp409
g94
g95
ssg83
g403
sg76
(lp410
S'path'
p411
asbag69
(g90
g71
NtRp412
(dp413
g74
(dp414
g101
g102
ssg83
g403
sg76
(lp415
S':'
asbag69
(g90
g71
NtRp416
(dp417
g74
(dp418
sg83
g403
sg76
(lp419
g69
(g70
g71
NtRp420
(dp421
g74
(dp422
g82
I3
ssg83
g416
sg76
(lp423
S''
asbasbasbag69
(g85
g71
NtRp424
(dp425
g74
(dp426
sg83
g294
sg76
(lp427
g69
(g90
g71
NtRp428
(dp429
g74
(dp430
g94
g95
ssg83
g424
sg76
(lp431
S'secure'
p432
asbag69
(g90
g71
NtRp433
(dp434
g74
(dp435
g101
g102
ssg83
g424
sg76
(lp436
S':'
asbag69
(g90
g71
NtRp437
(dp438
g74
(dp439
sg83
g424
sg76
(lp440
g69
(g70
g71
NtRp441
(dp442
g74
(dp443
g82
I3
ssg83
g437
sg76
(lp444
S''
asbasbasbag69
(g85
g71
NtRp445
(dp446
g74
(dp447
sg83
g294
sg76
(lp448
g69
(g90
g71
NtRp449
(dp450
g74
(dp451
g94
g95
ssg83
g445
sg76
(lp452
S'version'
p453
asbag69
(g90
g71
NtRp454
(dp455
g74
(dp456
g101
g102
ssg83
g445
sg76
(lp457
S':'
asbag69
(g90
g71
NtRp458
(dp459
g74
(dp460
sg83
g445
sg76
(lp461
g69
(g70
g71
NtRp462
(dp463
g74
(dp464
g82
I3
ssg83
g458
sg76
(lp465
S''
asbasbasbasbasbasbasbag69
(g85
g71
NtRp466
(dp467
g74
(dp468
sg83
g268
sg76
(lp469
g69
(g90
g71
NtRp470
(dp471
g74
(dp472
g94
g95
ssg83
g466
sg76
(lp473
S'session_id_myapp'
p474
asbag69
(g90
g71
NtRp475
(dp476
g74
(dp477
g101
g102
ssg83
g466
sg76
(lp478
S':'
asbag69
(g90
g71
NtRp479
(dp480
g74
(dp481
sg83
g466
sg76
(lp482
g69
(g70
g71
NtRp483
(dp484
g74
(dp485
g82
I4
ssg83
g479
sg76
(lp486
S'127.0.0.1-c29873db-dcbb-4e1b-a3b4-5e8b27d0f857'
p487
ag69
(g78
g71
NtRp488
(dp489
g74
(dp490
g82
I3
ssg83
Nsg76
(lp491
g69
(g85
g71
NtRp492
(dp493
g74
(dp494
sg83
g488
sg76
(lp495
g69
(g90
g71
NtRp496
(dp497
g74
(dp498
g94
g95
ssg83
g492
sg76
(lp499
g306
asbag69
(g90
g71
NtRp500
(dp501
g74
(dp502
g101
g102
ssg83
g492
sg76
(lp503
S':'
asbag69
(g90
g71
NtRp504
(dp505
g74
(dp506
sg83
g492
sg76
(lp507
g69
(g70
g71
NtRp508
(dp509
g74
(dp510
g82
I3
ssg83
g504
sg76
(lp511
S''
asbasbasbag69
(g85
g71
NtRp512
(dp513
g74
(dp514
sg83
g488
sg76
(lp515
g69
(g90
g71
NtRp516
(dp517
g74
(dp518
g94
g95
ssg83
g512
sg76
(lp519
g327
asbag69
(g90
g71
NtRp520
(dp521
g74
(dp522
g101
g102
ssg83
g512
sg76
(lp523
S':'
asbag69
(g90
g71
NtRp524
(dp525
g74
(dp526
sg83
g512
sg76
(lp527
g69
(g70
g71
NtRp528
(dp529
g74
(dp530
g82
I3
ssg83
g524
sg76
(lp531
S''
asbasbasbag69
(g85
g71
NtRp532
(dp533
g74
(dp534
sg83
g488
sg76
(lp535
g69
(g90
g71
NtRp536
(dp537
g74
(dp538
g94
g95
ssg83
g532
sg76
(lp539
g348
asbag69
(g90
g71
NtRp540
(dp541
g74
(dp542
g101
g102
ssg83
g532
sg76
(lp543
S':'
asbag69
(g90
g71
NtRp544
(dp545
g74
(dp546
sg83
g532
sg76
(lp547
g69
(g70
g71
NtRp548
(dp549
g74
(dp550
g82
I3
ssg83
g544
sg76
(lp551
S''
asbasbasbag69
(g85
g71
NtRp552
(dp553
g74
(dp554
sg83
g488
sg76
(lp555
g69
(g90
g71
NtRp556
(dp557
g74
(dp558
g94
g95
ssg83
g552
sg76
(lp559
g369
asbag69
(g90
g71
NtRp560
(dp561
g74
(dp562
g101
g102
ssg83
g552
sg76
(lp563
S':'
asbag69
(g90
g71
NtRp564
(dp565
g74
(dp566
sg83
g552
sg76
(lp567
g69
(g70
g71
NtRp568
(dp569
g74
(dp570
g82
I3
ssg83
g564
sg76
(lp571
S''
asbasbasbag69
(g85
g71
NtRp572
(dp573
g74
(dp574
sg83
g488
sg76
(lp575
g69
(g90
g71
NtRp576
(dp577
g74
(dp578
g94
g95
ssg83
g572
sg76
(lp579
g390
asbag69
(g90
g71
NtRp580
(dp581
g74
(dp582
g101
g102
ssg83
g572
sg76
(lp583
S':'
asbag69
(g90
g71
NtRp584
(dp585
g74
(dp586
sg83
g572
sg76
(lp587
g69
(g70
g71
NtRp588
(dp589
g74
(dp590
g82
I3
ssg83
g584
sg76
(lp591
S''
asbasbasbag69
(g85
g71
NtRp592
(dp593
g74
(dp594
sg83
g488
sg76
(lp595
g69
(g90
g71
NtRp596
(dp597
g74
(dp598
g94
g95
ssg83
g592
sg76
(lp599
g411
asbag69
(g90
g71
NtRp600
(dp601
g74
(dp602
g101
g102
ssg83
g592
sg76
(lp603
S':'
asbag69
(g90
g71
NtRp604
(dp605
g74
(dp606
sg83
g592
sg76
(lp607
g69
(g70
g71
NtRp608
(dp609
g74
(dp610
g82
I3
ssg83
g604
sg76
(lp611
S''
asbasbasbag69
(g85
g71
NtRp612
(dp613
g74
(dp614
sg83
g488
sg76
(lp615
g69
(g90
g71
NtRp616
(dp617
g74
(dp618
g94
g95
ssg83
g612
sg76
(lp619
g432
asbag69
(g90
g71
NtRp620
(dp621
g74
(dp622
g101
g102
ssg83
g612
sg76
(lp623
S':'
asbag69
(g90
g71
NtRp624
(dp625
g74
(dp626
sg83
g612
sg76
(lp627
g69
(g70
g71
NtRp628
(dp629
g74
(dp630
g82
I3
ssg83
g624
sg76
(lp631
S''
asbasbasbag69
(g85
g71
NtRp632
(dp633
g74
(dp634
sg83
g488
sg76
(lp635
g69
(g90
g71
NtRp636
(dp637
g74
(dp638
g94
g95
ssg83
g632
sg76
(lp639
g453
asbag69
(g90
g71
NtRp640
(dp641
g74
(dp642
g101
g102
ssg83
g632
sg76
(lp643
S':'
asbag69
(g90
g71
NtRp644
(dp645
g74
(dp646
sg83
g632
sg76
(lp647
g69
(g70
g71
NtRp648
(dp649
g74
(dp650
g82
I3
ssg83
g644
sg76
(lp651
S''
asbasbasbasbasbasbasbag69
(g85
g71
NtRp652
(dp653
g74
(dp654
sg83
g268
sg76
(lp655
g69
(g90
g71
NtRp656
(dp657
g74
(dp658
g94
g95
ssg83
g652
sg76
(lp659
S'session_id_welcome'
p660
asbag69
(g90
g71
NtRp661
(dp662
g74
(dp663
g101
g102
ssg83
g652
sg76
(lp664
S':'
asbag69
(g90
g71
NtRp665
(dp666
g74
(dp667
sg83
g652
sg76
(lp668
g69
(g70
g71
NtRp669
(dp670
g74
(dp671
g82
I4
ssg83
g665
sg76
(lp672
S'127.0.0.1-e8a30e16-52b5-4d7c-8020-83e27abc7bf0'
p673
ag69
(g78
g71
NtRp674
(dp675
g74
(dp676
g82
I3
ssg83
Nsg76
(lp677
g69
(g85
g71
NtRp678
(dp679
g74
(dp680
sg83
g674
sg76
(lp681
g69
(g90
g71
NtRp682
(dp683
g74
(dp684
g94
g95
ssg83
g678
sg76
(lp685
g306
asbag69
(g90
g71
NtRp686
(dp687
g74
(dp688
g101
g102
ssg83
g678
sg76
(lp689
S':'
asbag69
(g90
g71
NtRp690
(dp691
g74
(dp692
sg83
g678
sg76
(lp693
g69
(g70
g71
NtRp694
(dp695
g74
(dp696
g82
I3
ssg83
g690
sg76
(lp697
S''
asbasbasbag69
(g85
g71
NtRp698
(dp699
g74
(dp700
sg83
g674
sg76
(lp701
g69
(g90
g71
NtRp702
(dp703
g74
(dp704
g94
g95
ssg83
g698
sg76
(lp705
g327
asbag69
(g90
g71
NtRp706
(dp707
g74
(dp708
g101
g102
ssg83
g698
sg76
(lp709
S':'
asbag69
(g90
g71
NtRp710
(dp711
g74
(dp712
sg83
g698
sg76
(lp713
g69
(g70
g71
NtRp714
(dp715
g74
(dp716
g82
I3
ssg83
g710
sg76
(lp717
S''
asbasbasbag69
(g85
g71
NtRp718
(dp719
g74
(dp720
sg83
g674
sg76
(lp721
g69
(g90
g71
NtRp722
(dp723
g74
(dp724
g94
g95
ssg83
g718
sg76
(lp725
g348
asbag69
(g90
g71
NtRp726
(dp727
g74
(dp728
g101
g102
ssg83
g718
sg76
(lp729
S':'
asbag69
(g90
g71
NtRp730
(dp731
g74
(dp732
sg83
g718
sg76
(lp733
g69
(g70
g71
NtRp734
(dp735
g74
(dp736
g82
I3
ssg83
g730
sg76
(lp737
S''
asbasbasbag69
(g85
g71
NtRp738
(dp739
g74
(dp740
sg83
g674
sg76
(lp741
g69
(g90
g71
NtRp742
(dp743
g74
(dp744
g94
g95
ssg83
g738
sg76
(lp745
g369
asbag69
(g90
g71
NtRp746
(dp747
g74
(dp748
g101
g102
ssg83
g738
sg76
(lp749
S':'
asbag69
(g90
g71
NtRp750
(dp751
g74
(dp752
sg83
g738
sg76
(lp753
g69
(g70
g71
NtRp754
(dp755
g74
(dp756
g82
I3
ssg83
g750
sg76
(lp757
S''
asbasbasbag69
(g85
g71
NtRp758
(dp759
g74
(dp760
sg83
g674
sg76
(lp761
g69
(g90
g71
NtRp762
(dp763
g74
(dp764
g94
g95
ssg83
g758
sg76
(lp765
g390
asbag69
(g90
g71
NtRp766
(dp767
g74
(dp768
g101
g102
ssg83
g758
sg76
(lp769
S':'
asbag69
(g90
g71
NtRp770
(dp771
g74
(dp772
sg83
g758
sg76
(lp773
g69
(g70
g71
NtRp774
(dp775
g74
(dp776
g82
I3
ssg83
g770
sg76
(lp777
S''
asbasbasbag69
(g85
g71
NtRp778
(dp779
g74
(dp780
sg83
g674
sg76
(lp781
g69
(g90
g71
NtRp782
(dp783
g74
(dp784
g94
g95
ssg83
g778
sg76
(lp785
g411
asbag69
(g90
g71
NtRp786
(dp787
g74
(dp788
g101
g102
ssg83
g778
sg76
(lp789
S':'
asbag69
(g90
g71
NtRp790
(dp791
g74
(dp792
sg83
g778
sg76
(lp793
g69
(g70
g71
NtRp794
(dp795
g74
(dp796
g82
I3
ssg83
g790
sg76
(lp797
S''
asbasbasbag69
(g85
g71
NtRp798
(dp799
g74
(dp800
sg83
g674
sg76
(lp801
g69
(g90
g71
NtRp802
(dp803
g74
(dp804
g94
g95
ssg83
g798
sg76
(lp805
g432
asbag69
(g90
g71
NtRp806
(dp807
g74
(dp808
g101
g102
ssg83
g798
sg76
(lp809
S':'
asbag69
(g90
g71
NtRp810
(dp811
g74
(dp812
sg83
g798
sg76
(lp813
g69
(g70
g71
NtRp814
(dp815
g74
(dp816
g82
I3
ssg83
g810
sg76
(lp817
S''
asbasbasbag69
(g85
g71
NtRp818
(dp819
g74
(dp820
sg83
g674
sg76
(lp821
g69
(g90
g71
NtRp822
(dp823
g74
(dp824
g94
g95
ssg83
g818
sg76
(lp825
g453
asbag69
(g90
g71
NtRp826
(dp827
g74
(dp828
g101
g102
ssg83
g818
sg76
(lp829
S':'
asbag69
(g90
g71
NtRp830
(dp831
g74
(dp832
sg83
g818
sg76
(lp833
g69
(g70
g71
NtRp834
(dp835
g74
(dp836
g82
I3
ssg83
g830
sg76
(lp837
S''
asbasbasbasbasbasbasbasbasbasbasbag69
(g85
g71
NtRp838
(dp839
g74
(dp840
sg83
g79
sg76
(lp841
g69
(g90
g71
NtRp842
(dp843
g74
(dp844
g94
g95
ssg83
g838
sg76
(lp845
S'env'
p846
asbag69
(g90
g71
NtRp847
(dp848
g74
(dp849
g101
g102
ssg83
g838
sg76
(lp850
S':'
asbag69
(g90
g71
NtRp851
(dp852
g74
(dp853
sg83
g838
sg76
(lp854
g69
(g70
g71
NtRp855
(dp856
g74
(dp857
g82
I5
ssg83
g851
sg76
(lp858
g69
(g78
g71
NtRp859
(dp860
g74
(dp861
g82
I4
ssg83
Nsg76
(lp862
g69
(g85
g71
NtRp863
(dp864
g74
(dp865
sg83
g859
sg76
(lp866
g69
(g90
g71
NtRp867
(dp868
g74
(dp869
g94
g95
ssg83
g863
sg76
(lp870
S'app_folders'
p871
asbag69
(g90
g71
NtRp872
(dp873
g74
(dp874
g101
g102
ssg83
g863
sg76
(lp875
S':'
asbag69
(g90
g71
NtRp876
(dp877
g74
(dp878
sg83
g863
sg76
(lp879
g69
(g70
g71
NtRp880
(dp881
g74
(dp882
g82
I4
ssg83
g876
sg76
(lp883
S"set(['/Users/keshav/Desktop/web2py/applications/MyApp/', '/Users/keshav/Desktop/web2py/applications/admin/', '/Users/keshav/Desktop/web2py/applications/welcome/'])"
p884
asbasbasbag69
(g85
g71
NtRp885
(dp886
g74
(dp887
sg83
g859
sg76
(lp888
g69
(g90
g71
NtRp889
(dp890
g74
(dp891
g94
g95
ssg83
g885
sg76
(lp892
S'applications_parent'
p893
asbag69
(g90
g71
NtRp894
(dp895
g74
(dp896
g101
g102
ssg83
g885
sg76
(lp897
S':'
asbag69
(g90
g71
NtRp898
(dp899
g74
(dp900
sg83
g885
sg76
(lp901
g69
(g70
g71
NtRp902
(dp903
g74
(dp904
g82
I4
ssg83
g898
sg76
(lp905
S'/Users/keshav/Desktop/web2py'
p906
asbasbasbag69
(g85
g71
NtRp907
(dp908
g74
(dp909
sg83
g859
sg76
(lp910
g69
(g90
g71
NtRp911
(dp912
g74
(dp913
g94
g95
ssg83
g907
sg76
(lp914
S'cmd_args'
p915
asbag69
(g90
g71
NtRp916
(dp917
g74
(dp918
g101
g102
ssg83
g907
sg76
(lp919
S':'
asbag69
(g90
g71
NtRp920
(dp921
g74
(dp922
sg83
g907
sg76
(lp923
g69
(g70
g71
NtRp924
(dp925
g74
(dp926
g82
I4
ssg83
g920
sg76
(lp927
g69
(g78
g71
NtRp928
(dp929
g74
(dp930
g82
I3
ssg83
Nsg76
(lp931
sbasbasbasbag69
(g85
g71
NtRp932
(dp933
g74
(dp934
sg83
g859
sg76
(lp935
g69
(g90
g71
NtRp936
(dp937
g74
(dp938
g94
g95
ssg83
g932
sg76
(lp939
S'cmd_options'
p940
asbag69
(g90
g71
NtRp941
(dp942
g74
(dp943
g101
g102
ssg83
g932
sg76
(lp944
S':'
asbag69
(g90
g71
NtRp945
(dp946
g74
(dp947
sg83
g932
sg76
(lp948
g69
(g70
g71
NtRp949
(dp950
g74
(dp951
g82
I4
ssg83
g945
sg76
(lp952
S"<Values at 0x101acb638: {'verbose': False, 'ip': '127.0.0.1', 'with_scheduler': False, 'ips': ['10.160.0.40'], 'shutdown_timeout': 5, 'taskbar': False, 'port': 8000, 'maxthreads': None, 'softcron': False, 'server_name': 'Keshav-Choudharys-MacBook.local', 'bpython': False, 'nogui': False, 'pid_filename': 'httpserver.pid', 'extcron': False, 'runcron': False, 'run_system_tests': False, 'test': None, 'folder': '/Users/keshav/Desktop/web2py', 'config': '', 'minthreads': None, 'winservice': '', 'shell': None, 'run': '', 'log_filename': 'httpserver.log', 'debuglevel': 30, 'args': [''], 'socket_timeout': 5, 'ssl_ca_certificate': None, 'scheduler': None, 'profiler_filename': None, 'ssl_private_key': '', 'scheduler_groups': None, 'password': '<ask>', 'request_queue_size': 5, 'ssl_certificate': '', 'cronjob': False, 'numthreads': None, 'quiet': False, 'interfaces': None, 'import_models': False, 'timeout': 10, 'plain': False, 'nobanner': False}>"
p953
asbasbasbag69
(g85
g71
NtRp954
(dp955
g74
(dp956
sg83
g859
sg76
(lp957
g69
(g90
g71
NtRp958
(dp959
g74
(dp960
g94
g95
ssg83
g954
sg76
(lp961
S'content_length'
p962
asbag69
(g90
g71
NtRp963
(dp964
g74
(dp965
g101
g102
ssg83
g954
sg76
(lp966
S':'
asbag69
(g90
g71
NtRp967
(dp968
g74
(dp969
sg83
g954
sg76
(lp970
g69
(g70
g71
NtRp971
(dp972
g74
(dp973
g82
I4
ssg83
g967
sg76
(lp974
S'6'
asbasbasbag69
(g85
g71
NtRp975
(dp976
g74
(dp977
sg83
g859
sg76
(lp978
g69
(g90
g71
NtRp979
(dp980
g74
(dp981
g94
g95
ssg83
g975
sg76
(lp982
S'content_type'
p983
asbag69
(g90
g71
NtRp984
(dp985
g74
(dp986
g101
g102
ssg83
g975
sg76
(lp987
S':'
asbag69
(g90
g71
NtRp988
(dp989
g74
(dp990
sg83
g975
sg76
(lp991
g69
(g70
g71
NtRp992
(dp993
g74
(dp994
g82
I4
ssg83
g988
sg76
(lp995
S'application/x-www-form-urlencoded'
p996
asbasbasbag69
(g85
g71
NtRp997
(dp998
g74
(dp999
sg83
g859
sg76
(lp1000
g69
(g90
g71
NtRp1001
(dp1002
g74
(dp1003
g94
g95
ssg83
g997
sg76
(lp1004
S'db_sessions'
p1005
asbag69
(g90
g71
NtRp1006
(dp1007
g74
(dp1008
g101
g102
ssg83
g997
sg76
(lp1009
S':'
asbag69
(g90
g71
NtRp1010
(dp1011
g74
(dp1012
sg83
g997
sg76
(lp1013
g69
(g70
g71
NtRp1014
(dp1015
g74
(dp1016
g82
I4
ssg83
g1010
sg76
(lp1017
S'set([])'
p1018
asbasbasbag69
(g85
g71
NtRp1019
(dp1020
g74
(dp1021
sg83
g859
sg76
(lp1022
g69
(g90
g71
NtRp1023
(dp1024
g74
(dp1025
g94
g95
ssg83
g1019
sg76
(lp1026
S'debugging'
p1027
asbag69
(g90
g71
NtRp1028
(dp1029
g74
(dp1030
g101
g102
ssg83
g1019
sg76
(lp1031
S':'
asbag69
(g90
g71
NtRp1032
(dp1033
g74
(dp1034
sg83
g1019
sg76
(lp1035
g69
(g70
g71
NtRp1036
(dp1037
g74
(dp1038
g82
I4
ssg83
g1032
sg76
(lp1039
g112
asbasbasbag69
(g85
g71
NtRp1040
(dp1041
g74
(dp1042
sg83
g859
sg76
(lp1043
g69
(g90
g71
NtRp1044
(dp1045
g74
(dp1046
g94
g95
ssg83
g1040
sg76
(lp1047
S'gluon_parent'
p1048
asbag69
(g90
g71
NtRp1049
(dp1050
g74
(dp1051
g101
g102
ssg83
g1040
sg76
(lp1052
S':'
asbag69
(g90
g71
NtRp1053
(dp1054
g74
(dp1055
sg83
g1040
sg76
(lp1056
g69
(g70
g71
NtRp1057
(dp1058
g74
(dp1059
g82
I4
ssg83
g1053
sg76
(lp1060
S'/Users/keshav/Desktop/web2py'
p1061
asbasbasbag69
(g85
g71
NtRp1062
(dp1063
g74
(dp1064
sg83
g859
sg76
(lp1065
g69
(g90
g71
NtRp1066
(dp1067
g74
(dp1068
g94
g95
ssg83
g1062
sg76
(lp1069
S'http_accept'
p1070
asbag69
(g90
g71
NtRp1071
(dp1072
g74
(dp1073
g101
g102
ssg83
g1062
sg76
(lp1074
S':'
asbag69
(g90
g71
NtRp1075
(dp1076
g74
(dp1077
sg83
g1062
sg76
(lp1078
g69
(g70
g71
NtRp1079
(dp1080
g74
(dp1081
g82
I4
ssg83
g1075
sg76
(lp1082
S'*/*'
p1083
asbasbasbag69
(g85
g71
NtRp1084
(dp1085
g74
(dp1086
sg83
g859
sg76
(lp1087
g69
(g90
g71
NtRp1088
(dp1089
g74
(dp1090
g94
g95
ssg83
g1084
sg76
(lp1091
S'http_accept_encoding'
p1092
asbag69
(g90
g71
NtRp1093
(dp1094
g74
(dp1095
g101
g102
ssg83
g1084
sg76
(lp1096
S':'
asbag69
(g90
g71
NtRp1097
(dp1098
g74
(dp1099
sg83
g1084
sg76
(lp1100
g69
(g70
g71
NtRp1101
(dp1102
g74
(dp1103
g82
I4
ssg83
g1097
sg76
(lp1104
S'gzip, deflate'
p1105
asbasbasbag69
(g85
g71
NtRp1106
(dp1107
g74
(dp1108
sg83
g859
sg76
(lp1109
g69
(g90
g71
NtRp1110
(dp1111
g74
(dp1112
g94
g95
ssg83
g1106
sg76
(lp1113
S'http_accept_language'
p1114
asbag69
(g90
g71
NtRp1115
(dp1116
g74
(dp1117
g101
g102
ssg83
g1106
sg76
(lp1118
S':'
asbag69
(g90
g71
NtRp1119
(dp1120
g74
(dp1121
sg83
g1106
sg76
(lp1122
g69
(g70
g71
NtRp1123
(dp1124
g74
(dp1125
g82
I4
ssg83
g1119
sg76
(lp1126
S'en-us'
p1127
asbasbasbag69
(g85
g71
NtRp1128
(dp1129
g74
(dp1130
sg83
g859
sg76
(lp1131
g69
(g90
g71
NtRp1132
(dp1133
g74
(dp1134
g94
g95
ssg83
g1128
sg76
(lp1135
S'http_connection'
p1136
asbag69
(g90
g71
NtRp1137
(dp1138
g74
(dp1139
g101
g102
ssg83
g1128
sg76
(lp1140
S':'
asbag69
(g90
g71
NtRp1141
(dp1142
g74
(dp1143
sg83
g1128
sg76
(lp1144
g69
(g70
g71
NtRp1145
(dp1146
g74
(dp1147
g82
I4
ssg83
g1141
sg76
(lp1148
S'keep-alive'
p1149
asbasbasbag69
(g85
g71
NtRp1150
(dp1151
g74
(dp1152
sg83
g859
sg76
(lp1153
g69
(g90
g71
NtRp1154
(dp1155
g74
(dp1156
g94
g95
ssg83
g1150
sg76
(lp1157
S'http_content_length'
p1158
asbag69
(g90
g71
NtRp1159
(dp1160
g74
(dp1161
g101
g102
ssg83
g1150
sg76
(lp1162
S':'
asbag69
(g90
g71
NtRp1163
(dp1164
g74
(dp1165
sg83
g1150
sg76
(lp1166
g69
(g70
g71
NtRp1167
(dp1168
g74
(dp1169
g82
I4
ssg83
g1163
sg76
(lp1170
S'6'
asbasbasbag69
(g85
g71
NtRp1171
(dp1172
g74
(dp1173
sg83
g859
sg76
(lp1174
g69
(g90
g71
NtRp1175
(dp1176
g74
(dp1177
g94
g95
ssg83
g1171
sg76
(lp1178
S'http_content_type'
p1179
asbag69
(g90
g71
NtRp1180
(dp1181
g74
(dp1182
g101
g102
ssg83
g1171
sg76
(lp1183
S':'
asbag69
(g90
g71
NtRp1184
(dp1185
g74
(dp1186
sg83
g1171
sg76
(lp1187
g69
(g70
g71
NtRp1188
(dp1189
g74
(dp1190
g82
I4
ssg83
g1184
sg76
(lp1191
g996
asbasbasbag69
(g85
g71
NtRp1192
(dp1193
g74
(dp1194
sg83
g859
sg76
(lp1195
g69
(g90
g71
NtRp1196
(dp1197
g74
(dp1198
g94
g95
ssg83
g1192
sg76
(lp1199
S'http_cookie'
p1200
asbag69
(g90
g71
NtRp1201
(dp1202
g74
(dp1203
g101
g102
ssg83
g1192
sg76
(lp1204
S':'
asbag69
(g90
g71
NtRp1205
(dp1206
g74
(dp1207
sg83
g1192
sg76
(lp1208
g69
(g70
g71
NtRp1209
(dp1210
g74
(dp1211
g82
I4
ssg83
g1205
sg76
(lp1212
S'session_id_myapp=127.0.0.1-c29873db-dcbb-4e1b-a3b4-5e8b27d0f857; session_id_admin=127.0.0.1-51e419b9-a703-41ed-88da-b440e5ce8e79; session_id_welcome=127.0.0.1-e8a30e16-52b5-4d7c-8020-83e27abc7bf0'
p1213
asbasbasbag69
(g85
g71
NtRp1214
(dp1215
g74
(dp1216
sg83
g859
sg76
(lp1217
g69
(g90
g71
NtRp1218
(dp1219
g74
(dp1220
g94
g95
ssg83
g1214
sg76
(lp1221
S'http_host'
p1222
asbag69
(g90
g71
NtRp1223
(dp1224
g74
(dp1225
g101
g102
ssg83
g1214
sg76
(lp1226
S':'
asbag69
(g90
g71
NtRp1227
(dp1228
g74
(dp1229
sg83
g1214
sg76
(lp1230
g69
(g70
g71
NtRp1231
(dp1232
g74
(dp1233
g82
I4
ssg83
g1227
sg76
(lp1234
S'127.0.0.1:8000'
p1235
asbasbasbag69
(g85
g71
NtRp1236
(dp1237
g74
(dp1238
sg83
g859
sg76
(lp1239
g69
(g90
g71
NtRp1240
(dp1241
g74
(dp1242
g94
g95
ssg83
g1236
sg76
(lp1243
S'http_origin'
p1244
asbag69
(g90
g71
NtRp1245
(dp1246
g74
(dp1247
g101
g102
ssg83
g1236
sg76
(lp1248
S':'
asbag69
(g90
g71
NtRp1249
(dp1250
g74
(dp1251
sg83
g1236
sg76
(lp1252
g69
(g70
g71
NtRp1253
(dp1254
g74
(dp1255
g82
I4
ssg83
g1249
sg76
(lp1256
S'http://127.0.0.1:8000'
p1257
asbasbasbag69
(g85
g71
NtRp1258
(dp1259
g74
(dp1260
sg83
g859
sg76
(lp1261
g69
(g90
g71
NtRp1262
(dp1263
g74
(dp1264
g94
g95
ssg83
g1258
sg76
(lp1265
S'http_referer'
p1266
asbag69
(g90
g71
NtRp1267
(dp1268
g74
(dp1269
g101
g102
ssg83
g1258
sg76
(lp1270
S':'
asbag69
(g90
g71
NtRp1271
(dp1272
g74
(dp1273
sg83
g1258
sg76
(lp1274
g69
(g70
g71
NtRp1275
(dp1276
g74
(dp1277
g82
I4
ssg83
g1271
sg76
(lp1278
S'http://127.0.0.1:8000/MyApp/default/index'
p1279
asbasbasbag69
(g85
g71
NtRp1280
(dp1281
g74
(dp1282
sg83
g859
sg76
(lp1283
g69
(g90
g71
NtRp1284
(dp1285
g74
(dp1286
g94
g95
ssg83
g1280
sg76
(lp1287
S'http_user_agent'
p1288
asbag69
(g90
g71
NtRp1289
(dp1290
g74
(dp1291
g101
g102
ssg83
g1280
sg76
(lp1292
S':'
asbag69
(g90
g71
NtRp1293
(dp1294
g74
(dp1295
sg83
g1280
sg76
(lp1296
g69
(g70
g71
NtRp1297
(dp1298
g74
(dp1299
g82
I4
ssg83
g1293
sg76
(lp1300
S'Mozilla/5.0 (Macintosh; Intel Mac OS X 10_6_8) AppleWebKit/534.57.2 (KHTML, like Gecko) Version/5.1.7 Safari/534.57.2'
p1301
asbasbasbag69
(g85
g71
NtRp1302
(dp1303
g74
(dp1304
sg83
g859
sg76
(lp1305
g69
(g90
g71
NtRp1306
(dp1307
g74
(dp1308
g94
g95
ssg83
g1302
sg76
(lp1309
S'is_jython'
p1310
asbag69
(g90
g71
NtRp1311
(dp1312
g74
(dp1313
g101
g102
ssg83
g1302
sg76
(lp1314
S':'
asbag69
(g90
g71
NtRp1315
(dp1316
g74
(dp1317
sg83
g1302
sg76
(lp1318
g69
(g70
g71
NtRp1319
(dp1320
g74
(dp1321
g82
I4
ssg83
g1315
sg76
(lp1322
g112
asbasbasbag69
(g85
g71
NtRp1323
(dp1324
g74
(dp1325
sg83
g859
sg76
(lp1326
g69
(g90
g71
NtRp1327
(dp1328
g74
(dp1329
g94
g95
ssg83
g1323
sg76
(lp1330
S'is_pypy'
p1331
asbag69
(g90
g71
NtRp1332
(dp1333
g74
(dp1334
g101
g102
ssg83
g1323
sg76
(lp1335
S':'
asbag69
(g90
g71
NtRp1336
(dp1337
g74
(dp1338
sg83
g1323
sg76
(lp1339
g69
(g70
g71
NtRp1340
(dp1341
g74
(dp1342
g82
I4
ssg83
g1336
sg76
(lp1343
g112
asbasbasbag69
(g85
g71
NtRp1344
(dp1345
g74
(dp1346
sg83
g859
sg76
(lp1347
g69
(g90
g71
NtRp1348
(dp1349
g74
(dp1350
g94
g95
ssg83
g1344
sg76
(lp1351
S'local_hosts'
p1352
asbag69
(g90
g71
NtRp1353
(dp1354
g74
(dp1355
g101
g102
ssg83
g1344
sg76
(lp1356
S':'
asbag69
(g90
g71
NtRp1357
(dp1358
g74
(dp1359
sg83
g1344
sg76
(lp1360
g69
(g70
g71
NtRp1361
(dp1362
g74
(dp1363
g82
I4
ssg83
g1357
sg76
(lp1364
g69
(g78
g71
NtRp1365
(dp1366
g74
(dp1367
g82
I3
ssg83
Nsg76
(lp1368
g69
(g85
g71
NtRp1369
(dp1370
g74
(dp1371
sg83
g1365
sg76
(lp1372
g69
(g90
g71
NtRp1373
(dp1374
g74
(dp1375
sg83
g1369
sg76
(lp1376
g69
(g70
g71
NtRp1377
(dp1378
g74
(dp1379
g82
I3
ssg83
g1373
sg76
(lp1380
S'127.0.0.1'
p1381
asbasbasbag69
(g85
g71
NtRp1382
(dp1383
g74
(dp1384
sg83
g1365
sg76
(lp1385
g69
(g90
g71
NtRp1386
(dp1387
g74
(dp1388
sg83
g1382
sg76
(lp1389
g69
(g70
g71
NtRp1390
(dp1391
g74
(dp1392
g82
I3
ssg83
g1386
sg76
(lp1393
S'::ffff:127.0.0.1'
p1394
asbasbasbag69
(g85
g71
NtRp1395
(dp1396
g74
(dp1397
sg83
g1365
sg76
(lp1398
g69
(g90
g71
NtRp1399
(dp1400
g74
(dp1401
sg83
g1395
sg76
(lp1402
g69
(g70
g71
NtRp1403
(dp1404
g74
(dp1405
g82
I3
ssg83
g1399
sg76
(lp1406
S'Keshav-Choudharys-MacBook.local'
p1407
asbasbasbag69
(g85
g71
NtRp1408
(dp1409
g74
(dp1410
sg83
g1365
sg76
(lp1411
g69
(g90
g71
NtRp1412
(dp1413
g74
(dp1414
sg83
g1408
sg76
(lp1415
g69
(g70
g71
NtRp1416
(dp1417
g74
(dp1418
g82
I3
ssg83
g1412
sg76
(lp1419
S'Keshav-Choudharys-MacBook.local'
p1420
asbasbasbag69
(g85
g71
NtRp1421
(dp1422
g74
(dp1423
sg83
g1365
sg76
(lp1424
g69
(g90
g71
NtRp1425
(dp1426
g74
(dp1427
sg83
g1421
sg76
(lp1428
g69
(g70
g71
NtRp1429
(dp1430
g74
(dp1431
g82
I3
ssg83
g1425
sg76
(lp1432
S'10.160.0.40'
p1433
asbasbasbasbasbasbasbag69
(g85
g71
NtRp1434
(dp1435
g74
(dp1436
sg83
g859
sg76
(lp1437
g69
(g90
g71
NtRp1438
(dp1439
g74
(dp1440
g94
g95
ssg83
g1434
sg76
(lp1441
S'path_info'
p1442
asbag69
(g90
g71
NtRp1443
(dp1444
g74
(dp1445
g101
g102
ssg83
g1434
sg76
(lp1446
S':'
asbag69
(g90
g71
NtRp1447
(dp1448
g74
(dp1449
sg83
g1434
sg76
(lp1450
g69
(g70
g71
NtRp1451
(dp1452
g74
(dp1453
g82
I4
ssg83
g1447
sg76
(lp1454
S'/MyApp/default/update_tut'
p1455
asbasbasbag69
(g85
g71
NtRp1456
(dp1457
g74
(dp1458
sg83
g859
sg76
(lp1459
g69
(g90
g71
NtRp1460
(dp1461
g74
(dp1462
g94
g95
ssg83
g1456
sg76
(lp1463
S'query_string'
p1464
asbag69
(g90
g71
NtRp1465
(dp1466
g74
(dp1467
g101
g102
ssg83
g1456
sg76
(lp1468
S':'
asbag69
(g90
g71
NtRp1469
(dp1470
g74
(dp1471
sg83
g1456
sg76
(lp1472
g69
(g70
g71
NtRp1473
(dp1474
g74
(dp1475
g82
I4
ssg83
g1469
sg76
(lp1476
S''
asbasbasbag69
(g85
g71
NtRp1477
(dp1478
g74
(dp1479
sg83
g859
sg76
(lp1480
g69
(g90
g71
NtRp1481
(dp1482
g74
(dp1483
g94
g95
ssg83
g1477
sg76
(lp1484
S'remote_addr'
p1485
asbag69
(g90
g71
NtRp1486
(dp1487
g74
(dp1488
g101
g102
ssg83
g1477
sg76
(lp1489
S':'
asbag69
(g90
g71
NtRp1490
(dp1491
g74
(dp1492
sg83
g1477
sg76
(lp1493
g69
(g70
g71
NtRp1494
(dp1495
g74
(dp1496
g82
I4
ssg83
g1490
sg76
(lp1497
g224
asbasbasbag69
(g85
g71
NtRp1498
(dp1499
g74
(dp1500
sg83
g859
sg76
(lp1501
g69
(g90
g71
NtRp1502
(dp1503
g74
(dp1504
g94
g95
ssg83
g1498
sg76
(lp1505
S'remote_port'
p1506
asbag69
(g90
g71
NtRp1507
(dp1508
g74
(dp1509
g101
g102
ssg83
g1498
sg76
(lp1510
S':'
asbag69
(g90
g71
NtRp1511
(dp1512
g74
(dp1513
sg83
g1498
sg76
(lp1514
g69
(g70
g71
NtRp1515
(dp1516
g74
(dp1517
g82
I4
ssg83
g1511
sg76
(lp1518
S'58569'
p1519
asbasbasbag69
(g85
g71
NtRp1520
(dp1521
g74
(dp1522
sg83
g859
sg76
(lp1523
g69
(g90
g71
NtRp1524
(dp1525
g74
(dp1526
g94
g95
ssg83
g1520
sg76
(lp1527
S'request_method'
p1528
asbag69
(g90
g71
NtRp1529
(dp1530
g74
(dp1531
g101
g102
ssg83
g1520
sg76
(lp1532
S':'
asbag69
(g90
g71
NtRp1533
(dp1534
g74
(dp1535
sg83
g1520
sg76
(lp1536
g69
(g70
g71
NtRp1537
(dp1538
g74
(dp1539
g82
I4
ssg83
g1533
sg76
(lp1540
S'POST'
p1541
asbasbasbag69
(g85
g71
NtRp1542
(dp1543
g74
(dp1544
sg83
g859
sg76
(lp1545
g69
(g90
g71
NtRp1546
(dp1547
g74
(dp1548
g94
g95
ssg83
g1542
sg76
(lp1549
S'request_uri'
p1550
asbag69
(g90
g71
NtRp1551
(dp1552
g74
(dp1553
g101
g102
ssg83
g1542
sg76
(lp1554
S':'
asbag69
(g90
g71
NtRp1555
(dp1556
g74
(dp1557
sg83
g1542
sg76
(lp1558
g69
(g70
g71
NtRp1559
(dp1560
g74
(dp1561
g82
I4
ssg83
g1555
sg76
(lp1562
g1455
asbasbasbag69
(g85
g71
NtRp1563
(dp1564
g74
(dp1565
sg83
g859
sg76
(lp1566
g69
(g90
g71
NtRp1567
(dp1568
g74
(dp1569
g94
g95
ssg83
g1563
sg76
(lp1570
S'script_name'
p1571
asbag69
(g90
g71
NtRp1572
(dp1573
g74
(dp1574
g101
g102
ssg83
g1563
sg76
(lp1575
S':'
asbag69
(g90
g71
NtRp1576
(dp1577
g74
(dp1578
sg83
g1563
sg76
(lp1579
g69
(g70
g71
NtRp1580
(dp1581
g74
(dp1582
g82
I4
ssg83
g1576
sg76
(lp1583
S''
asbasbasbag69
(g85
g71
NtRp1584
(dp1585
g74
(dp1586
sg83
g859
sg76
(lp1587
g69
(g90
g71
NtRp1588
(dp1589
g74
(dp1590
g94
g95
ssg83
g1584
sg76
(lp1591
S'server_name'
p1592
asbag69
(g90
g71
NtRp1593
(dp1594
g74
(dp1595
g101
g102
ssg83
g1584
sg76
(lp1596
S':'
asbag69
(g90
g71
NtRp1597
(dp1598
g74
(dp1599
sg83
g1584
sg76
(lp1600
g69
(g70
g71
NtRp1601
(dp1602
g74
(dp1603
g82
I4
ssg83
g1597
sg76
(lp1604
g1420
asbasbasbag69
(g85
g71
NtRp1605
(dp1606
g74
(dp1607
sg83
g859
sg76
(lp1608
g69
(g90
g71
NtRp1609
(dp1610
g74
(dp1611
g94
g95
ssg83
g1605
sg76
(lp1612
S'server_port'
p1613
asbag69
(g90
g71
NtRp1614
(dp1615
g74
(dp1616
g101
g102
ssg83
g1605
sg76
(lp1617
S':'
asbag69
(g90
g71
NtRp1618
(dp1619
g74
(dp1620
sg83
g1605
sg76
(lp1621
g69
(g70
g71
NtRp1622
(dp1623
g74
(dp1624
g82
I4
ssg83
g1618
sg76
(lp1625
S'8000'
p1626
asbasbasbag69
(g85
g71
NtRp1627
(dp1628
g74
(dp1629
sg83
g859
sg76
(lp1630
g69
(g90
g71
NtRp1631
(dp1632
g74
(dp1633
g94
g95
ssg83
g1627
sg76
(lp1634
S'server_protocol'
p1635
asbag69
(g90
g71
NtRp1636
(dp1637
g74
(dp1638
g101
g102
ssg83
g1627
sg76
(lp1639
S':'
asbag69
(g90
g71
NtRp1640
(dp1641
g74
(dp1642
sg83
g1627
sg76
(lp1643
g69
(g70
g71
NtRp1644
(dp1645
g74
(dp1646
g82
I4
ssg83
g1640
sg76
(lp1647
S'HTTP/1.1'
p1648
asbasbasbag69
(g85
g71
NtRp1649
(dp1650
g74
(dp1651
sg83
g859
sg76
(lp1652
g69
(g90
g71
NtRp1653
(dp1654
g74
(dp1655
g94
g95
ssg83
g1649
sg76
(lp1656
S'server_software'
p1657
asbag69
(g90
g71
NtRp1658
(dp1659
g74
(dp1660
g101
g102
ssg83
g1649
sg76
(lp1661
S':'
asbag69
(g90
g71
NtRp1662
(dp1663
g74
(dp1664
sg83
g1649
sg76
(lp1665
g69
(g70
g71
NtRp1666
(dp1667
g74
(dp1668
g82
I4
ssg83
g1662
sg76
(lp1669
S'Rocket 1.2.5'
p1670
asbasbasbag69
(g85
g71
NtRp1671
(dp1672
g74
(dp1673
sg83
g859
sg76
(lp1674
g69
(g90
g71
NtRp1675
(dp1676
g74
(dp1677
g94
g95
ssg83
g1671
sg76
(lp1678
S'web2py_path'
p1679
asbag69
(g90
g71
NtRp1680
(dp1681
g74
(dp1682
g101
g102
ssg83
g1671
sg76
(lp1683
S':'
asbag69
(g90
g71
NtRp1684
(dp1685
g74
(dp1686
sg83
g1671
sg76
(lp1687
g69
(g70
g71
NtRp1688
(dp1689
g74
(dp1690
g82
I4
ssg83
g1684
sg76
(lp1691
g906
asbasbasbag69
(g85
g71
NtRp1692
(dp1693
g74
(dp1694
sg83
g859
sg76
(lp1695
g69
(g90
g71
NtRp1696
(dp1697
g74
(dp1698
g94
g95
ssg83
g1692
sg76
(lp1699
S'web2py_version'
p1700
asbag69
(g90
g71
NtRp1701
(dp1702
g74
(dp1703
g101
g102
ssg83
g1692
sg76
(lp1704
S':'
asbag69
(g90
g71
NtRp1705
(dp1706
g74
(dp1707
sg83
g1692
sg76
(lp1708
g69
(g70
g71
NtRp1709
(dp1710
g74
(dp1711
g82
I4
ssg83
g1705
sg76
(lp1712
g69
(g78
g71
NtRp1713
(dp1714
g74
(dp1715
g82
I3
ssg83
Nsg76
(lp1716
g69
(g85
g71
NtRp1717
(dp1718
g74
(dp1719
sg83
g1713
sg76
(lp1720
g69
(g90
g71
NtRp1721
(dp1722
g74
(dp1723
sg83
g1717
sg76
(lp1724
g69
(g70
g71
NtRp1725
(dp1726
g74
(dp1727
g82
I3
ssg83
g1721
sg76
(lp1728
S'2'
asbasbasbag69
(g85
g71
NtRp1729
(dp1730
g74
(dp1731
sg83
g1713
sg76
(lp1732
g69
(g90
g71
NtRp1733
(dp1734
g74
(dp1735
sg83
g1729
sg76
(lp1736
g69
(g70
g71
NtRp1737
(dp1738
g74
(dp1739
g82
I3
ssg83
g1733
sg76
(lp1740
S'2'
asbasbasbag69
(g85
g71
NtRp1741
(dp1742
g74
(dp1743
sg83
g1713
sg76
(lp1744
g69
(g90
g71
NtRp1745
(dp1746
g74
(dp1747
sg83
g1741
sg76
(lp1748
g69
(g70
g71
NtRp1749
(dp1750
g74
(dp1751
g82
I3
ssg83
g1745
sg76
(lp1752
S'1'
asbasbasbag69
(g85
g71
NtRp1753
(dp1754
g74
(dp1755
sg83
g1713
sg76
(lp1756
g69
(g90
g71
NtRp1757
(dp1758
g74
(dp1759
sg83
g1753
sg76
(lp1760
g69
(g70
g71
NtRp1761
(dp1762
g74
(dp1763
g82
I3
ssg83
g1757
sg76
(lp1764
S'datetime.datetime(2012, 10, 21, 16, 57, 4)'
p1765
asbasbasbag69
(g85
g71
NtRp1766
(dp1767
g74
(dp1768
sg83
g1713
sg76
(lp1769
g69
(g90
g71
NtRp1770
(dp1771
g74
(dp1772
sg83
g1766
sg76
(lp1773
g69
(g70
g71
NtRp1774
(dp1775
g74
(dp1776
g82
I3
ssg83
g1770
sg76
(lp1777
S'stable'
p1778
asbasbasbasbasbasbasbag69
(g85
g71
NtRp1779
(dp1780
g74
(dp1781
sg83
g859
sg76
(lp1782
g69
(g90
g71
NtRp1783
(dp1784
g74
(dp1785
g94
g95
ssg83
g1779
sg76
(lp1786
S'wsgi_errors'
p1787
asbag69
(g90
g71
NtRp1788
(dp1789
g74
(dp1790
g101
g102
ssg83
g1779
sg76
(lp1791
S':'
asbag69
(g90
g71
NtRp1792
(dp1793
g74
(dp1794
sg83
g1779
sg76
(lp1795
g69
(g70
g71
NtRp1796
(dp1797
g74
(dp1798
g82
I4
ssg83
g1792
sg76
(lp1799
S"<open file '<stderr>', mode 'w' at 0x100416140>"
p1800
asbasbasbag69
(g85
g71
NtRp1801
(dp1802
g74
(dp1803
sg83
g859
sg76
(lp1804
g69
(g90
g71
NtRp1805
(dp1806
g74
(dp1807
g94
g95
ssg83
g1801
sg76
(lp1808
S'wsgi_file_wrapper'
p1809
asbag69
(g90
g71
NtRp1810
(dp1811
g74
(dp1812
g101
g102
ssg83
g1801
sg76
(lp1813
S':'
asbag69
(g90
g71
NtRp1814
(dp1815
g74
(dp1816
sg83
g1801
sg76
(lp1817
g69
(g70
g71
NtRp1818
(dp1819
g74
(dp1820
g82
I4
ssg83
g1814
sg76
(lp1821
S'<class wsgiref.util.FileWrapper at 0x101a57c50>'
p1822
asbasbasbag69
(g85
g71
NtRp1823
(dp1824
g74
(dp1825
sg83
g859
sg76
(lp1826
g69
(g90
g71
NtRp1827
(dp1828
g74
(dp1829
g94
g95
ssg83
g1823
sg76
(lp1830
S'wsgi_input'
p1831
asbag69
(g90
g71
NtRp1832
(dp1833
g74
(dp1834
g101
g102
ssg83
g1823
sg76
(lp1835
S':'
asbag69
(g90
g71
NtRp1836
(dp1837
g74
(dp1838
sg83
g1823
sg76
(lp1839
g69
(g70
g71
NtRp1840
(dp1841
g74
(dp1842
g82
I4
ssg83
g1836
sg76
(lp1843
S'<socket._fileobject object at 0x118f6ab90>'
p1844
asbasbasbag69
(g85
g71
NtRp1845
(dp1846
g74
(dp1847
sg83
g859
sg76
(lp1848
g69
(g90
g71
NtRp1849
(dp1850
g74
(dp1851
g94
g95
ssg83
g1845
sg76
(lp1852
S'wsgi_multiprocess'
p1853
asbag69
(g90
g71
NtRp1854
(dp1855
g74
(dp1856
g101
g102
ssg83
g1845
sg76
(lp1857
S':'
asbag69
(g90
g71
NtRp1858
(dp1859
g74
(dp1860
sg83
g1845
sg76
(lp1861
g69
(g70
g71
NtRp1862
(dp1863
g74
(dp1864
g82
I4
ssg83
g1858
sg76
(lp1865
g112
asbasbasbag69
(g85
g71
NtRp1866
(dp1867
g74
(dp1868
sg83
g859
sg76
(lp1869
g69
(g90
g71
NtRp1870
(dp1871
g74
(dp1872
g94
g95
ssg83
g1866
sg76
(lp1873
S'wsgi_multithread'
p1874
asbag69
(g90
g71
NtRp1875
(dp1876
g74
(dp1877
g101
g102
ssg83
g1866
sg76
(lp1878
S':'
asbag69
(g90
g71
NtRp1879
(dp1880
g74
(dp1881
sg83
g1866
sg76
(lp1882
g69
(g70
g71
NtRp1883
(dp1884
g74
(dp1885
g82
I4
ssg83
g1879
sg76
(lp1886
S'True'
p1887
asbasbasbag69
(g85
g71
NtRp1888
(dp1889
g74
(dp1890
sg83
g859
sg76
(lp1891
g69
(g90
g71
NtRp1892
(dp1893
g74
(dp1894
g94
g95
ssg83
g1888
sg76
(lp1895
S'wsgi_run_once'
p1896
asbag69
(g90
g71
NtRp1897
(dp1898
g74
(dp1899
g101
g102
ssg83
g1888
sg76
(lp1900
S':'
asbag69
(g90
g71
NtRp1901
(dp1902
g74
(dp1903
sg83
g1888
sg76
(lp1904
g69
(g70
g71
NtRp1905
(dp1906
g74
(dp1907
g82
I4
ssg83
g1901
sg76
(lp1908
g112
asbasbasbag69
(g85
g71
NtRp1909
(dp1910
g74
(dp1911
sg83
g859
sg76
(lp1912
g69
(g90
g71
NtRp1913
(dp1914
g74
(dp1915
g94
g95
ssg83
g1909
sg76
(lp1916
S'wsgi_url_scheme'
p1917
asbag69
(g90
g71
NtRp1918
(dp1919
g74
(dp1920
g101
g102
ssg83
g1909
sg76
(lp1921
S':'
asbag69
(g90
g71
NtRp1922
(dp1923
g74
(dp1924
sg83
g1909
sg76
(lp1925
g69
(g70
g71
NtRp1926
(dp1927
g74
(dp1928
g82
I4
ssg83
g1922
sg76
(lp1929
S'http'
p1930
asbasbasbag69
(g85
g71
NtRp1931
(dp1932
g74
(dp1933
sg83
g859
sg76
(lp1934
g69
(g90
g71
NtRp1935
(dp1936
g74
(dp1937
g94
g95
ssg83
g1931
sg76
(lp1938
S'wsgi_version'
p1939
asbag69
(g90
g71
NtRp1940
(dp1941
g74
(dp1942
g101
g102
ssg83
g1931
sg76
(lp1943
S':'
asbag69
(g90
g71
NtRp1944
(dp1945
g74
(dp1946
sg83
g1931
sg76
(lp1947
g69
(g70
g71
NtRp1948
(dp1949
g74
(dp1950
g82
I4
ssg83
g1944
sg76
(lp1951
g69
(g78
g71
NtRp1952
(dp1953
g74
(dp1954
g82
I3
ssg83
Nsg76
(lp1955
g69
(g85
g71
NtRp1956
(dp1957
g74
(dp1958
sg83
g1952
sg76
(lp1959
g69
(g90
g71
NtRp1960
(dp1961
g74
(dp1962
sg83
g1956
sg76
(lp1963
g69
(g70
g71
NtRp1964
(dp1965
g74
(dp1966
g82
I3
ssg83
g1960
sg76
(lp1967
S'1'
asbasbasbag69
(g85
g71
NtRp1968
(dp1969
g74
(dp1970
sg83
g1952
sg76
(lp1971
g69
(g90
g71
NtRp1972
(dp1973
g74
(dp1974
sg83
g1968
sg76
(lp1975
g69
(g70
g71
NtRp1976
(dp1977
g74
(dp1978
g82
I3
ssg83
g1972
sg76
(lp1979
S'0'
asbasbasbasbasbasbasbasbasbasbasbag69
(g85
g71
NtRp1980
(dp1981
g74
(dp1982
sg83
g79
sg76
(lp1983
g69
(g90
g71
NtRp1984
(dp1985
g74
(dp1986
g94
g95
ssg83
g1980
sg76
(lp1987
S'extension'
p1988
asbag69
(g90
g71
NtRp1989
(dp1990
g74
(dp1991
g101
g102
ssg83
g1980
sg76
(lp1992
S':'
asbag69
(g90
g71
NtRp1993
(dp1994
g74
(dp1995
sg83
g1980
sg76
(lp1996
g69
(g70
g71
NtRp1997
(dp1998
g74
(dp1999
g82
I5
ssg83
g1993
sg76
(lp2000
S'html'
p2001
asbasbasbag69
(g85
g71
NtRp2002
(dp2003
g74
(dp2004
sg83
g79
sg76
(lp2005
g69
(g90
g71
NtRp2006
(dp2007
g74
(dp2008
g94
g95
ssg83
g2002
sg76
(lp2009
S'folder'
p2010
asbag69
(g90
g71
NtRp2011
(dp2012
g74
(dp2013
g101
g102
ssg83
g2002
sg76
(lp2014
S':'
asbag69
(g90
g71
NtRp2015
(dp2016
g74
(dp2017
sg83
g2002
sg76
(lp2018
g69
(g70
g71
NtRp2019
(dp2020
g74
(dp2021
g82
I5
ssg83
g2015
sg76
(lp2022
S'/Users/keshav/Desktop/web2py/applications/MyApp/'
p2023
asbasbasbag69
(g85
g71
NtRp2024
(dp2025
g74
(dp2026
sg83
g79
sg76
(lp2027
g69
(g90
g71
NtRp2028
(dp2029
g74
(dp2030
g94
g95
ssg83
g2024
sg76
(lp2031
S'function'
p2032
asbag69
(g90
g71
NtRp2033
(dp2034
g74
(dp2035
g101
g102
ssg83
g2024
sg76
(lp2036
S':'
asbag69
(g90
g71
NtRp2037
(dp2038
g74
(dp2039
sg83
g2024
sg76
(lp2040
g69
(g70
g71
NtRp2041
(dp2042
g74
(dp2043
g82
I5
ssg83
g2037
sg76
(lp2044
S'update_tut'
p2045
asbasbasbag69
(g85
g71
NtRp2046
(dp2047
g74
(dp2048
sg83
g79
sg76
(lp2049
g69
(g90
g71
NtRp2050
(dp2051
g74
(dp2052
g94
g95
ssg83
g2046
sg76
(lp2053
S'get_vars'
p2054
asbag69
(g90
g71
NtRp2055
(dp2056
g74
(dp2057
g101
g102
ssg83
g2046
sg76
(lp2058
S':'
asbag69
(g90
g71
NtRp2059
(dp2060
g74
(dp2061
sg83
g2046
sg76
(lp2062
g69
(g70
g71
NtRp2063
(dp2064
g74
(dp2065
g82
I5
ssg83
g2059
sg76
(lp2066
g69
(g78
g71
NtRp2067
(dp2068
g74
(dp2069
g82
I4
ssg83
Nsg76
(lp2070
sbasbasbasbag69
(g85
g71
NtRp2071
(dp2072
g74
(dp2073
sg83
g79
sg76
(lp2074
g69
(g90
g71
NtRp2075
(dp2076
g74
(dp2077
g94
g95
ssg83
g2071
sg76
(lp2078
S'global_settings'
p2079
asbag69
(g90
g71
NtRp2080
(dp2081
g74
(dp2082
g101
g102
ssg83
g2071
sg76
(lp2083
S':'
asbag69
(g90
g71
NtRp2084
(dp2085
g74
(dp2086
sg83
g2071
sg76
(lp2087
g69
(g70
g71
NtRp2088
(dp2089
g74
(dp2090
g82
I5
ssg83
g2084
sg76
(lp2091
g69
(g78
g71
NtRp2092
(dp2093
g74
(dp2094
g82
I4
ssg83
Nsg76
(lp2095
g69
(g85
g71
NtRp2096
(dp2097
g74
(dp2098
sg83
g2092
sg76
(lp2099
g69
(g90
g71
NtRp2100
(dp2101
g74
(dp2102
g94
g95
ssg83
g2096
sg76
(lp2103
g871
asbag69
(g90
g71
NtRp2104
(dp2105
g74
(dp2106
g101
g102
ssg83
g2096
sg76
(lp2107
S':'
asbag69
(g90
g71
NtRp2108
(dp2109
g74
(dp2110
sg83
g2096
sg76
(lp2111
g69
(g70
g71
NtRp2112
(dp2113
g74
(dp2114
g82
I4
ssg83
g2108
sg76
(lp2115
S"set(['/Users/keshav/Desktop/web2py/applications/MyApp/', '/Users/keshav/Desktop/web2py/applications/admin/', '/Users/keshav/Desktop/web2py/applications/welcome/'])"
p2116
asbasbasbag69
(g85
g71
NtRp2117
(dp2118
g74
(dp2119
sg83
g2092
sg76
(lp2120
g69
(g90
g71
NtRp2121
(dp2122
g74
(dp2123
g94
g95
ssg83
g2117
sg76
(lp2124
g893
asbag69
(g90
g71
NtRp2125
(dp2126
g74
(dp2127
g101
g102
ssg83
g2117
sg76
(lp2128
S':'
asbag69
(g90
g71
NtRp2129
(dp2130
g74
(dp2131
sg83
g2117
sg76
(lp2132
g69
(g70
g71
NtRp2133
(dp2134
g74
(dp2135
g82
I4
ssg83
g2129
sg76
(lp2136
g906
asbasbasbag69
(g85
g71
NtRp2137
(dp2138
g74
(dp2139
sg83
g2092
sg76
(lp2140
g69
(g90
g71
NtRp2141
(dp2142
g74
(dp2143
g94
g95
ssg83
g2137
sg76
(lp2144
g915
asbag69
(g90
g71
NtRp2145
(dp2146
g74
(dp2147
g101
g102
ssg83
g2137
sg76
(lp2148
S':'
asbag69
(g90
g71
NtRp2149
(dp2150
g74
(dp2151
sg83
g2137
sg76
(lp2152
g69
(g70
g71
NtRp2153
(dp2154
g74
(dp2155
g82
I4
ssg83
g2149
sg76
(lp2156
g69
(g78
g71
NtRp2157
(dp2158
g74
(dp2159
g82
I3
ssg83
Nsg76
(lp2160
sbasbasbasbag69
(g85
g71
NtRp2161
(dp2162
g74
(dp2163
sg83
g2092
sg76
(lp2164
g69
(g90
g71
NtRp2165
(dp2166
g74
(dp2167
g94
g95
ssg83
g2161
sg76
(lp2168
g940
asbag69
(g90
g71
NtRp2169
(dp2170
g74
(dp2171
g101
g102
ssg83
g2161
sg76
(lp2172
S':'
asbag69
(g90
g71
NtRp2173
(dp2174
g74
(dp2175
sg83
g2161
sg76
(lp2176
g69
(g70
g71
NtRp2177
(dp2178
g74
(dp2179
g82
I4
ssg83
g2173
sg76
(lp2180
S"<Values at 0x101acb638: {'verbose': False, 'ip': '127.0.0.1', 'with_scheduler': False, 'ips': ['10.160.0.40'], 'shutdown_timeout': 5, 'taskbar': False, 'port': 8000, 'maxthreads': None, 'softcron': False, 'server_name': 'Keshav-Choudharys-MacBook.local', 'bpython': False, 'nogui': False, 'pid_filename': 'httpserver.pid', 'extcron': False, 'runcron': False, 'run_system_tests': False, 'test': None, 'folder': '/Users/keshav/Desktop/web2py', 'config': '', 'minthreads': None, 'winservice': '', 'shell': None, 'run': '', 'log_filename': 'httpserver.log', 'debuglevel': 30, 'args': [''], 'socket_timeout': 5, 'ssl_ca_certificate': None, 'scheduler': None, 'profiler_filename': None, 'ssl_private_key': '', 'scheduler_groups': None, 'password': '<ask>', 'request_queue_size': 5, 'ssl_certificate': '', 'cronjob': False, 'numthreads': None, 'quiet': False, 'interfaces': None, 'import_models': False, 'timeout': 10, 'plain': False, 'nobanner': False}>"
p2181
asbasbasbag69
(g85
g71
NtRp2182
(dp2183
g74
(dp2184
sg83
g2092
sg76
(lp2185
g69
(g90
g71
NtRp2186
(dp2187
g74
(dp2188
g94
g95
ssg83
g2182
sg76
(lp2189
g1005
asbag69
(g90
g71
NtRp2190
(dp2191
g74
(dp2192
g101
g102
ssg83
g2182
sg76
(lp2193
S':'
asbag69
(g90
g71
NtRp2194
(dp2195
g74
(dp2196
sg83
g2182
sg76
(lp2197
g69
(g70
g71
NtRp2198
(dp2199
g74
(dp2200
g82
I4
ssg83
g2194
sg76
(lp2201
S'set([])'
p2202
asbasbasbag69
(g85
g71
NtRp2203
(dp2204
g74
(dp2205
sg83
g2092
sg76
(lp2206
g69
(g90
g71
NtRp2207
(dp2208
g74
(dp2209
g94
g95
ssg83
g2203
sg76
(lp2210
g1027
asbag69
(g90
g71
NtRp2211
(dp2212
g74
(dp2213
g101
g102
ssg83
g2203
sg76
(lp2214
S':'
asbag69
(g90
g71
NtRp2215
(dp2216
g74
(dp2217
sg83
g2203
sg76
(lp2218
g69
(g70
g71
NtRp2219
(dp2220
g74
(dp2221
g82
I4
ssg83
g2215
sg76
(lp2222
g112
asbasbasbag69
(g85
g71
NtRp2223
(dp2224
g74
(dp2225
sg83
g2092
sg76
(lp2226
g69
(g90
g71
NtRp2227
(dp2228
g74
(dp2229
g94
g95
ssg83
g2223
sg76
(lp2230
g1048
asbag69
(g90
g71
NtRp2231
(dp2232
g74
(dp2233
g101
g102
ssg83
g2223
sg76
(lp2234
S':'
asbag69
(g90
g71
NtRp2235
(dp2236
g74
(dp2237
sg83
g2223
sg76
(lp2238
g69
(g70
g71
NtRp2239
(dp2240
g74
(dp2241
g82
I4
ssg83
g2235
sg76
(lp2242
g1061
asbasbasbag69
(g85
g71
NtRp2243
(dp2244
g74
(dp2245
sg83
g2092
sg76
(lp2246
g69
(g90
g71
NtRp2247
(dp2248
g74
(dp2249
g94
g95
ssg83
g2243
sg76
(lp2250
g1310
asbag69
(g90
g71
NtRp2251
(dp2252
g74
(dp2253
g101
g102
ssg83
g2243
sg76
(lp2254
S':'
asbag69
(g90
g71
NtRp2255
(dp2256
g74
(dp2257
sg83
g2243
sg76
(lp2258
g69
(g70
g71
NtRp2259
(dp2260
g74
(dp2261
g82
I4
ssg83
g2255
sg76
(lp2262
g112
asbasbasbag69
(g85
g71
NtRp2263
(dp2264
g74
(dp2265
sg83
g2092
sg76
(lp2266
g69
(g90
g71
NtRp2267
(dp2268
g74
(dp2269
g94
g95
ssg83
g2263
sg76
(lp2270
g1331
asbag69
(g90
g71
NtRp2271
(dp2272
g74
(dp2273
g101
g102
ssg83
g2263
sg76
(lp2274
S':'
asbag69
(g90
g71
NtRp2275
(dp2276
g74
(dp2277
sg83
g2263
sg76
(lp2278
g69
(g70
g71
NtRp2279
(dp2280
g74
(dp2281
g82
I4
ssg83
g2275
sg76
(lp2282
g112
asbasbasbag69
(g85
g71
NtRp2283
(dp2284
g74
(dp2285
sg83
g2092
sg76
(lp2286
g69
(g90
g71
NtRp2287
(dp2288
g74
(dp2289
g94
g95
ssg83
g2283
sg76
(lp2290
g1352
asbag69
(g90
g71
NtRp2291
(dp2292
g74
(dp2293
g101
g102
ssg83
g2283
sg76
(lp2294
S':'
asbag69
(g90
g71
NtRp2295
(dp2296
g74
(dp2297
sg83
g2283
sg76
(lp2298
g69
(g70
g71
NtRp2299
(dp2300
g74
(dp2301
g82
I4
ssg83
g2295
sg76
(lp2302
g69
(g78
g71
NtRp2303
(dp2304
g74
(dp2305
g82
I3
ssg83
Nsg76
(lp2306
g69
(g85
g71
NtRp2307
(dp2308
g74
(dp2309
sg83
g2303
sg76
(lp2310
g69
(g90
g71
NtRp2311
(dp2312
g74
(dp2313
sg83
g2307
sg76
(lp2314
g69
(g70
g71
NtRp2315
(dp2316
g74
(dp2317
g82
I3
ssg83
g2311
sg76
(lp2318
g1381
asbasbasbag69
(g85
g71
NtRp2319
(dp2320
g74
(dp2321
sg83
g2303
sg76
(lp2322
g69
(g90
g71
NtRp2323
(dp2324
g74
(dp2325
sg83
g2319
sg76
(lp2326
g69
(g70
g71
NtRp2327
(dp2328
g74
(dp2329
g82
I3
ssg83
g2323
sg76
(lp2330
g1394
asbasbasbag69
(g85
g71
NtRp2331
(dp2332
g74
(dp2333
sg83
g2303
sg76
(lp2334
g69
(g90
g71
NtRp2335
(dp2336
g74
(dp2337
sg83
g2331
sg76
(lp2338
g69
(g70
g71
NtRp2339
(dp2340
g74
(dp2341
g82
I3
ssg83
g2335
sg76
(lp2342
g1407
asbasbasbag69
(g85
g71
NtRp2343
(dp2344
g74
(dp2345
sg83
g2303
sg76
(lp2346
g69
(g90
g71
NtRp2347
(dp2348
g74
(dp2349
sg83
g2343
sg76
(lp2350
g69
(g70
g71
NtRp2351
(dp2352
g74
(dp2353
g82
I3
ssg83
g2347
sg76
(lp2354
g1420
asbasbasbag69
(g85
g71
NtRp2355
(dp2356
g74
(dp2357
sg83
g2303
sg76
(lp2358
g69
(g90
g71
NtRp2359
(dp2360
g74
(dp2361
sg83
g2355
sg76
(lp2362
g69
(g70
g71
NtRp2363
(dp2364
g74
(dp2365
g82
I3
ssg83
g2359
sg76
(lp2366
g1433
asbasbasbasbasbasbasbag69
(g85
g71
NtRp2367
(dp2368
g74
(dp2369
sg83
g2092
sg76
(lp2370
g69
(g90
g71
NtRp2371
(dp2372
g74
(dp2373
g94
g95
ssg83
g2367
sg76
(lp2374
g1700
asbag69
(g90
g71
NtRp2375
(dp2376
g74
(dp2377
g101
g102
ssg83
g2367
sg76
(lp2378
S':'
asbag69
(g90
g71
NtRp2379
(dp2380
g74
(dp2381
sg83
g2367
sg76
(lp2382
g69
(g70
g71
NtRp2383
(dp2384
g74
(dp2385
g82
I4
ssg83
g2379
sg76
(lp2386
g69
(g78
g71
NtRp2387
(dp2388
g74
(dp2389
g82
I3
ssg83
Nsg76
(lp2390
g69
(g85
g71
NtRp2391
(dp2392
g74
(dp2393
sg83
g2387
sg76
(lp2394
g69
(g90
g71
NtRp2395
(dp2396
g74
(dp2397
sg83
g2391
sg76
(lp2398
g69
(g70
g71
NtRp2399
(dp2400
g74
(dp2401
g82
I3
ssg83
g2395
sg76
(lp2402
S'2'
asbasbasbag69
(g85
g71
NtRp2403
(dp2404
g74
(dp2405
sg83
g2387
sg76
(lp2406
g69
(g90
g71
NtRp2407
(dp2408
g74
(dp2409
sg83
g2403
sg76
(lp2410
g69
(g70
g71
NtRp2411
(dp2412
g74
(dp2413
g82
I3
ssg83
g2407
sg76
(lp2414
S'2'
asbasbasbag69
(g85
g71
NtRp2415
(dp2416
g74
(dp2417
sg83
g2387
sg76
(lp2418
g69
(g90
g71
NtRp2419
(dp2420
g74
(dp2421
sg83
g2415
sg76
(lp2422
g69
(g70
g71
NtRp2423
(dp2424
g74
(dp2425
g82
I3
ssg83
g2419
sg76
(lp2426
S'1'
asbasbasbag69
(g85
g71
NtRp2427
(dp2428
g74
(dp2429
sg83
g2387
sg76
(lp2430
g69
(g90
g71
NtRp2431
(dp2432
g74
(dp2433
sg83
g2427
sg76
(lp2434
g69
(g70
g71
NtRp2435
(dp2436
g74
(dp2437
g82
I3
ssg83
g2431
sg76
(lp2438
S'datetime.datetime(2012, 10, 21, 16, 57, 4)'
p2439
asbasbasbag69
(g85
g71
NtRp2440
(dp2441
g74
(dp2442
sg83
g2387
sg76
(lp2443
g69
(g90
g71
NtRp2444
(dp2445
g74
(dp2446
sg83
g2440
sg76
(lp2447
g69
(g70
g71
NtRp2448
(dp2449
g74
(dp2450
g82
I3
ssg83
g2444
sg76
(lp2451
g1778
asbasbasbasbasbasbasbasbasbasbasbag69
(g85
g71
NtRp2452
(dp2453
g74
(dp2454
sg83
g79
sg76
(lp2455
g69
(g90
g71
NtRp2456
(dp2457
g74
(dp2458
g94
g95
ssg83
g2452
sg76
(lp2459
S'is_https'
p2460
asbag69
(g90
g71
NtRp2461
(dp2462
g74
(dp2463
g101
g102
ssg83
g2452
sg76
(lp2464
S':'
asbag69
(g90
g71
NtRp2465
(dp2466
g74
(dp2467
sg83
g2452
sg76
(lp2468
g69
(g70
g71
NtRp2469
(dp2470
g74
(dp2471
g82
I5
ssg83
g2465
sg76
(lp2472
g112
asbasbasbag69
(g85
g71
NtRp2473
(dp2474
g74
(dp2475
sg83
g79
sg76
(lp2476
g69
(g90
g71
NtRp2477
(dp2478
g74
(dp2479
g94
g95
ssg83
g2473
sg76
(lp2480
S'is_local'
p2481
asbag69
(g90
g71
NtRp2482
(dp2483
g74
(dp2484
g101
g102
ssg83
g2473
sg76
(lp2485
S':'
asbag69
(g90
g71
NtRp2486
(dp2487
g74
(dp2488
sg83
g2473
sg76
(lp2489
g69
(g70
g71
NtRp2490
(dp2491
g74
(dp2492
g82
I5
ssg83
g2486
sg76
(lp2493
g1887
asbasbasbag69
(g85
g71
NtRp2494
(dp2495
g74
(dp2496
sg83
g79
sg76
(lp2497
g69
(g90
g71
NtRp2498
(dp2499
g74
(dp2500
g94
g95
ssg83
g2494
sg76
(lp2501
S'is_restful'
p2502
asbag69
(g90
g71
NtRp2503
(dp2504
g74
(dp2505
g101
g102
ssg83
g2494
sg76
(lp2506
S':'
asbag69
(g90
g71
NtRp2507
(dp2508
g74
(dp2509
sg83
g2494
sg76
(lp2510
g69
(g70
g71
NtRp2511
(dp2512
g74
(dp2513
g82
I5
ssg83
g2507
sg76
(lp2514
g112
asbasbasbag69
(g85
g71
NtRp2515
(dp2516
g74
(dp2517
sg83
g79
sg76
(lp2518
g69
(g90
g71
NtRp2519
(dp2520
g74
(dp2521
g94
g95
ssg83
g2515
sg76
(lp2522
S'now'
p2523
asbag69
(g90
g71
NtRp2524
(dp2525
g74
(dp2526
g101
g102
ssg83
g2515
sg76
(lp2527
S':'
asbag69
(g90
g71
NtRp2528
(dp2529
g74
(dp2530
sg83
g2515
sg76
(lp2531
g69
(g70
g71
NtRp2532
(dp2533
g74
(dp2534
g82
I5
ssg83
g2528
sg76
(lp2535
S'datetime.datetime(2012, 11, 7, 22, 47, 31, 792846)'
p2536
asbasbasbag69
(g85
g71
NtRp2537
(dp2538
g74
(dp2539
sg83
g79
sg76
(lp2540
g69
(g90
g71
NtRp2541
(dp2542
g74
(dp2543
g94
g95
ssg83
g2537
sg76
(lp2544
S'post_vars'
p2545
asbag69
(g90
g71
NtRp2546
(dp2547
g74
(dp2548
g101
g102
ssg83
g2537
sg76
(lp2549
S':'
asbag69
(g90
g71
NtRp2550
(dp2551
g74
(dp2552
sg83
g2537
sg76
(lp2553
g69
(g70
g71
NtRp2554
(dp2555
g74
(dp2556
g82
I5
ssg83
g2550
sg76
(lp2557
g69
(g78
g71
NtRp2558
(dp2559
g74
(dp2560
g82
I4
ssg83
Nsg76
(lp2561
g69
(g85
g71
NtRp2562
(dp2563
g74
(dp2564
sg83
g2558
sg76
(lp2565
g69
(g90
g71
NtRp2566
(dp2567
g74
(dp2568
g94
g95
ssg83
g2562
sg76
(lp2569
S'name'
p2570
asbag69
(g90
g71
NtRp2571
(dp2572
g74
(dp2573
g101
g102
ssg83
g2562
sg76
(lp2574
S':'
asbag69
(g90
g71
NtRp2575
(dp2576
g74
(dp2577
sg83
g2562
sg76
(lp2578
g69
(g70
g71
NtRp2579
(dp2580
g74
(dp2581
g82
I4
ssg83
g2575
sg76
(lp2582
S'1'
asbasbasbasbasbasbasbag69
(g85
g71
NtRp2583
(dp2584
g74
(dp2585
sg83
g79
sg76
(lp2586
g69
(g90
g71
NtRp2587
(dp2588
g74
(dp2589
g94
g95
ssg83
g2583
sg76
(lp2590
S'raw_args'
p2591
asbag69
(g90
g71
NtRp2592
(dp2593
g74
(dp2594
g101
g102
ssg83
g2583
sg76
(lp2595
S':'
asbag69
(g90
g71
NtRp2596
(dp2597
g74
(dp2598
sg83
g2583
sg76
(lp2599
g69
(g70
g71
NtRp2600
(dp2601
g74
(dp2602
g82
I5
ssg83
g2596
sg76
(lp2603
S''
asbasbasbag69
(g85
g71
NtRp2604
(dp2605
g74
(dp2606
sg83
g79
sg76
(lp2607
g69
(g90
g71
NtRp2608
(dp2609
g74
(dp2610
g94
g95
ssg83
g2604
sg76
(lp2611
S'raw_extension'
p2612
asbag69
(g90
g71
NtRp2613
(dp2614
g74
(dp2615
g101
g102
ssg83
g2604
sg76
(lp2616
S':'
asbag69
(g90
g71
NtRp2617
(dp2618
g74
(dp2619
sg83
g2604
sg76
(lp2620
g69
(g70
g71
NtRp2621
(dp2622
g74
(dp2623
g82
I5
ssg83
g2617
sg76
(lp2624
S'None'
p2625
asbasbasbag69
(g85
g71
NtRp2626
(dp2627
g74
(dp2628
sg83
g79
sg76
(lp2629
g69
(g90
g71
NtRp2630
(dp2631
g74
(dp2632
g94
g95
ssg83
g2626
sg76
(lp2633
S'url'
p2634
asbag69
(g90
g71
NtRp2635
(dp2636
g74
(dp2637
g101
g102
ssg83
g2626
sg76
(lp2638
S':'
asbag69
(g90
g71
NtRp2639
(dp2640
g74
(dp2641
sg83
g2626
sg76
(lp2642
g69
(g70
g71
NtRp2643
(dp2644
g74
(dp2645
g82
I5
ssg83
g2639
sg76
(lp2646
g1455
asbasbasbag69
(g85
g71
NtRp2647
(dp2648
g74
(dp2649
sg83
g79
sg76
(lp2650
g69
(g90
g71
NtRp2651
(dp2652
g74
(dp2653
g94
g95
ssg83
g2647
sg76
(lp2654
S'utcnow'
p2655
asbag69
(g90
g71
NtRp2656
(dp2657
g74
(dp2658
g101
g102
ssg83
g2647
sg76
(lp2659
S':'
asbag69
(g90
g71
NtRp2660
(dp2661
g74
(dp2662
sg83
g2647
sg76
(lp2663
g69
(g70
g71
NtRp2664
(dp2665
g74
(dp2666
g82
I5
ssg83
g2660
sg76
(lp2667
S'datetime.datetime(2012, 11, 7, 17, 17, 31, 792853)'
p2668
asbasbasbag69
(g85
g71
NtRp2669
(dp2670
g74
(dp2671
sg83
g79
sg76
(lp2672
g69
(g90
g71
NtRp2673
(dp2674
g74
(dp2675
g94
g95
ssg83
g2669
sg76
(lp2676
S'uuid'
p2677
asbag69
(g90
g71
NtRp2678
(dp2679
g74
(dp2680
g101
g102
ssg83
g2669
sg76
(lp2681
S':'
asbag69
(g90
g71
NtRp2682
(dp2683
g74
(dp2684
sg83
g2669
sg76
(lp2685
g69
(g70
g71
NtRp2686
(dp2687
g74
(dp2688
g82
I5
ssg83
g2682
sg76
(lp2689
S'MyApp/127.0.0.1.2012-11-07.22-47-31.9f367a0f-d587-45e6-9895-4407f7bb452d'
p2690
asbasbasbag69
(g85
g71
NtRp2691
(dp2692
g74
(dp2693
sg83
g79
sg76
(lp2694
g69
(g90
g71
NtRp2695
(dp2696
g74
(dp2697
g94
g95
ssg83
g2691
sg76
(lp2698
S'vars'
p2699
asbag69
(g90
g71
NtRp2700
(dp2701
g74
(dp2702
g101
g102
ssg83
g2691
sg76
(lp2703
S':'
asbag69
(g90
g71
NtRp2704
(dp2705
g74
(dp2706
sg83
g2691
sg76
(lp2707
g69
(g70
g71
NtRp2708
(dp2709
g74
(dp2710
g82
I5
ssg83
g2704
sg76
(lp2711
g69
(g78
g71
NtRp2712
(dp2713
g74
(dp2714
g82
I4
ssg83
Nsg76
(lp2715
g69
(g85
g71
NtRp2716
(dp2717
g74
(dp2718
sg83
g2712
sg76
(lp2719
g69
(g90
g71
NtRp2720
(dp2721
g74
(dp2722
g94
g95
ssg83
g2716
sg76
(lp2723
g2570
asbag69
(g90
g71
NtRp2724
(dp2725
g74
(dp2726
g101
g102
ssg83
g2716
sg76
(lp2727
S':'
asbag69
(g90
g71
NtRp2728
(dp2729
g74
(dp2730
sg83
g2716
sg76
(lp2731
g69
(g70
g71
NtRp2732
(dp2733
g74
(dp2734
g82
I4
ssg83
g2728
sg76
(lp2735
S'1'
asbasbasbasbasbasbasbag69
(g85
g71
NtRp2736
(dp2737
g74
(dp2738
sg83
g79
sg76
(lp2739
g69
(g90
g71
NtRp2740
(dp2741
g74
(dp2742
g94
g95
ssg83
g2736
sg76
(lp2743
S'wsgi'
p2744
asbag69
(g90
g71
NtRp2745
(dp2746
g74
(dp2747
g101
g102
ssg83
g2736
sg76
(lp2748
S':'
asbag69
(g90
g71
NtRp2749
(dp2750
g74
(dp2751
sg83
g2736
sg76
(lp2752
g69
(g70
g71
NtRp2753
(dp2754
g74
(dp2755
g82
I5
ssg83
g2749
sg76
(lp2756
g69
(g78
g71
NtRp2757
(dp2758
g74
(dp2759
g82
I4
ssg83
Nsg76
(lp2760
g69
(g85
g71
NtRp2761
(dp2762
g74
(dp2763
sg83
g2757
sg76
(lp2764
g69
(g90
g71
NtRp2765
(dp2766
g74
(dp2767
g94
g95
ssg83
g2761
sg76
(lp2768
S'environ'
p2769
asbag69
(g90
g71
NtRp2770
(dp2771
g74
(dp2772
g101
g102
ssg83
g2761
sg76
(lp2773
S':'
asbag69
(g90
g71
NtRp2774
(dp2775
g74
(dp2776
sg83
g2761
sg76
(lp2777
g69
(g70
g71
NtRp2778
(dp2779
g74
(dp2780
g82
I4
ssg83
g2774
sg76
(lp2781
g69
(g78
g71
NtRp2782
(dp2783
g74
(dp2784
g82
I3
ssg83
Nsg76
(lp2785
g69
(g85
g71
NtRp2786
(dp2787
g74
(dp2788
sg83
g2782
sg76
(lp2789
g69
(g90
g71
NtRp2790
(dp2791
g74
(dp2792
g94
g95
ssg83
g2786
sg76
(lp2793
S'CONTENT_LENGTH'
p2794
asbag69
(g90
g71
NtRp2795
(dp2796
g74
(dp2797
g101
g102
ssg83
g2786
sg76
(lp2798
S':'
asbag69
(g90
g71
NtRp2799
(dp2800
g74
(dp2801
sg83
g2786
sg76
(lp2802
g69
(g70
g71
NtRp2803
(dp2804
g74
(dp2805
g82
I3
ssg83
g2799
sg76
(lp2806
S'6'
asbasbasbag69
(g85
g71
NtRp2807
(dp2808
g74
(dp2809
sg83
g2782
sg76
(lp2810
g69
(g90
g71
NtRp2811
(dp2812
g74
(dp2813
g94
g95
ssg83
g2807
sg76
(lp2814
S'CONTENT_TYPE'
p2815
asbag69
(g90
g71
NtRp2816
(dp2817
g74
(dp2818
g101
g102
ssg83
g2807
sg76
(lp2819
S':'
asbag69
(g90
g71
NtRp2820
(dp2821
g74
(dp2822
sg83
g2807
sg76
(lp2823
g69
(g70
g71
NtRp2824
(dp2825
g74
(dp2826
g82
I3
ssg83
g2820
sg76
(lp2827
g996
asbasbasbag69
(g85
g71
NtRp2828
(dp2829
g74
(dp2830
sg83
g2782
sg76
(lp2831
g69
(g90
g71
NtRp2832
(dp2833
g74
(dp2834
g94
g95
ssg83
g2828
sg76
(lp2835
S'HTTP_ACCEPT'
p2836
asbag69
(g90
g71
NtRp2837
(dp2838
g74
(dp2839
g101
g102
ssg83
g2828
sg76
(lp2840
S':'
asbag69
(g90
g71
NtRp2841
(dp2842
g74
(dp2843
sg83
g2828
sg76
(lp2844
g69
(g70
g71
NtRp2845
(dp2846
g74
(dp2847
g82
I3
ssg83
g2841
sg76
(lp2848
g1083
asbasbasbag69
(g85
g71
NtRp2849
(dp2850
g74
(dp2851
sg83
g2782
sg76
(lp2852
g69
(g90
g71
NtRp2853
(dp2854
g74
(dp2855
g94
g95
ssg83
g2849
sg76
(lp2856
S'HTTP_ACCEPT_ENCODING'
p2857
asbag69
(g90
g71
NtRp2858
(dp2859
g74
(dp2860
g101
g102
ssg83
g2849
sg76
(lp2861
S':'
asbag69
(g90
g71
NtRp2862
(dp2863
g74
(dp2864
sg83
g2849
sg76
(lp2865
g69
(g70
g71
NtRp2866
(dp2867
g74
(dp2868
g82
I3
ssg83
g2862
sg76
(lp2869
g1105
asbasbasbag69
(g85
g71
NtRp2870
(dp2871
g74
(dp2872
sg83
g2782
sg76
(lp2873
g69
(g90
g71
NtRp2874
(dp2875
g74
(dp2876
g94
g95
ssg83
g2870
sg76
(lp2877
S'HTTP_ACCEPT_LANGUAGE'
p2878
asbag69
(g90
g71
NtRp2879
(dp2880
g74
(dp2881
g101
g102
ssg83
g2870
sg76
(lp2882
S':'
asbag69
(g90
g71
NtRp2883
(dp2884
g74
(dp2885
sg83
g2870
sg76
(lp2886
g69
(g70
g71
NtRp2887
(dp2888
g74
(dp2889
g82
I3
ssg83
g2883
sg76
(lp2890
g1127
asbasbasbag69
(g85
g71
NtRp2891
(dp2892
g74
(dp2893
sg83
g2782
sg76
(lp2894
g69
(g90
g71
NtRp2895
(dp2896
g74
(dp2897
g94
g95
ssg83
g2891
sg76
(lp2898
S'HTTP_CONNECTION'
p2899
asbag69
(g90
g71
NtRp2900
(dp2901
g74
(dp2902
g101
g102
ssg83
g2891
sg76
(lp2903
S':'
asbag69
(g90
g71
NtRp2904
(dp2905
g74
(dp2906
sg83
g2891
sg76
(lp2907
g69
(g70
g71
NtRp2908
(dp2909
g74
(dp2910
g82
I3
ssg83
g2904
sg76
(lp2911
g1149
asbasbasbag69
(g85
g71
NtRp2912
(dp2913
g74
(dp2914
sg83
g2782
sg76
(lp2915
g69
(g90
g71
NtRp2916
(dp2917
g74
(dp2918
g94
g95
ssg83
g2912
sg76
(lp2919
S'HTTP_CONTENT_LENGTH'
p2920
asbag69
(g90
g71
NtRp2921
(dp2922
g74
(dp2923
g101
g102
ssg83
g2912
sg76
(lp2924
S':'
asbag69
(g90
g71
NtRp2925
(dp2926
g74
(dp2927
sg83
g2912
sg76
(lp2928
g69
(g70
g71
NtRp2929
(dp2930
g74
(dp2931
g82
I3
ssg83
g2925
sg76
(lp2932
S'6'
asbasbasbag69
(g85
g71
NtRp2933
(dp2934
g74
(dp2935
sg83
g2782
sg76
(lp2936
g69
(g90
g71
NtRp2937
(dp2938
g74
(dp2939
g94
g95
ssg83
g2933
sg76
(lp2940
S'HTTP_CONTENT_TYPE'
p2941
asbag69
(g90
g71
NtRp2942
(dp2943
g74
(dp2944
g101
g102
ssg83
g2933
sg76
(lp2945
S':'
asbag69
(g90
g71
NtRp2946
(dp2947
g74
(dp2948
sg83
g2933
sg76
(lp2949
g69
(g70
g71
NtRp2950
(dp2951
g74
(dp2952
g82
I3
ssg83
g2946
sg76
(lp2953
g996
asbasbasbag69
(g85
g71
NtRp2954
(dp2955
g74
(dp2956
sg83
g2782
sg76
(lp2957
g69
(g90
g71
NtRp2958
(dp2959
g74
(dp2960
g94
g95
ssg83
g2954
sg76
(lp2961
S'HTTP_COOKIE'
p2962
asbag69
(g90
g71
NtRp2963
(dp2964
g74
(dp2965
g101
g102
ssg83
g2954
sg76
(lp2966
S':'
asbag69
(g90
g71
NtRp2967
(dp2968
g74
(dp2969
sg83
g2954
sg76
(lp2970
g69
(g70
g71
NtRp2971
(dp2972
g74
(dp2973
g82
I3
ssg83
g2967
sg76
(lp2974
g1213
asbasbasbag69
(g85
g71
NtRp2975
(dp2976
g74
(dp2977
sg83
g2782
sg76
(lp2978
g69
(g90
g71
NtRp2979
(dp2980
g74
(dp2981
g94
g95
ssg83
g2975
sg76
(lp2982
S'HTTP_HOST'
p2983
asbag69
(g90
g71
NtRp2984
(dp2985
g74
(dp2986
g101
g102
ssg83
g2975
sg76
(lp2987
S':'
asbag69
(g90
g71
NtRp2988
(dp2989
g74
(dp2990
sg83
g2975
sg76
(lp2991
g69
(g70
g71
NtRp2992
(dp2993
g74
(dp2994
g82
I3
ssg83
g2988
sg76
(lp2995
g1235
asbasbasbag69
(g85
g71
NtRp2996
(dp2997
g74
(dp2998
sg83
g2782
sg76
(lp2999
g69
(g90
g71
NtRp3000
(dp3001
g74
(dp3002
g94
g95
ssg83
g2996
sg76
(lp3003
S'HTTP_ORIGIN'
p3004
asbag69
(g90
g71
NtRp3005
(dp3006
g74
(dp3007
g101
g102
ssg83
g2996
sg76
(lp3008
S':'
asbag69
(g90
g71
NtRp3009
(dp3010
g74
(dp3011
sg83
g2996
sg76
(lp3012
g69
(g70
g71
NtRp3013
(dp3014
g74
(dp3015
g82
I3
ssg83
g3009
sg76
(lp3016
g1257
asbasbasbag69
(g85
g71
NtRp3017
(dp3018
g74
(dp3019
sg83
g2782
sg76
(lp3020
g69
(g90
g71
NtRp3021
(dp3022
g74
(dp3023
g94
g95
ssg83
g3017
sg76
(lp3024
S'HTTP_REFERER'
p3025
asbag69
(g90
g71
NtRp3026
(dp3027
g74
(dp3028
g101
g102
ssg83
g3017
sg76
(lp3029
S':'
asbag69
(g90
g71
NtRp3030
(dp3031
g74
(dp3032
sg83
g3017
sg76
(lp3033
g69
(g70
g71
NtRp3034
(dp3035
g74
(dp3036
g82
I3
ssg83
g3030
sg76
(lp3037
g1279
asbasbasbag69
(g85
g71
NtRp3038
(dp3039
g74
(dp3040
sg83
g2782
sg76
(lp3041
g69
(g90
g71
NtRp3042
(dp3043
g74
(dp3044
g94
g95
ssg83
g3038
sg76
(lp3045
S'HTTP_USER_AGENT'
p3046
asbag69
(g90
g71
NtRp3047
(dp3048
g74
(dp3049
g101
g102
ssg83
g3038
sg76
(lp3050
S':'
asbag69
(g90
g71
NtRp3051
(dp3052
g74
(dp3053
sg83
g3038
sg76
(lp3054
g69
(g70
g71
NtRp3055
(dp3056
g74
(dp3057
g82
I3
ssg83
g3051
sg76
(lp3058
g1301
asbasbasbag69
(g85
g71
NtRp3059
(dp3060
g74
(dp3061
sg83
g2782
sg76
(lp3062
g69
(g90
g71
NtRp3063
(dp3064
g74
(dp3065
g94
g95
ssg83
g3059
sg76
(lp3066
S'PATH_INFO'
p3067
asbag69
(g90
g71
NtRp3068
(dp3069
g74
(dp3070
g101
g102
ssg83
g3059
sg76
(lp3071
S':'
asbag69
(g90
g71
NtRp3072
(dp3073
g74
(dp3074
sg83
g3059
sg76
(lp3075
g69
(g70
g71
NtRp3076
(dp3077
g74
(dp3078
g82
I3
ssg83
g3072
sg76
(lp3079
g1455
asbasbasbag69
(g85
g71
NtRp3080
(dp3081
g74
(dp3082
sg83
g2782
sg76
(lp3083
g69
(g90
g71
NtRp3084
(dp3085
g74
(dp3086
g94
g95
ssg83
g3080
sg76
(lp3087
S'QUERY_STRING'
p3088
asbag69
(g90
g71
NtRp3089
(dp3090
g74
(dp3091
g101
g102
ssg83
g3080
sg76
(lp3092
S':'
asbag69
(g90
g71
NtRp3093
(dp3094
g74
(dp3095
sg83
g3080
sg76
(lp3096
g69
(g70
g71
NtRp3097
(dp3098
g74
(dp3099
g82
I3
ssg83
g3093
sg76
(lp3100
S''
asbasbasbag69
(g85
g71
NtRp3101
(dp3102
g74
(dp3103
sg83
g2782
sg76
(lp3104
g69
(g90
g71
NtRp3105
(dp3106
g74
(dp3107
g94
g95
ssg83
g3101
sg76
(lp3108
S'REMOTE_ADDR'
p3109
asbag69
(g90
g71
NtRp3110
(dp3111
g74
(dp3112
g101
g102
ssg83
g3101
sg76
(lp3113
S':'
asbag69
(g90
g71
NtRp3114
(dp3115
g74
(dp3116
sg83
g3101
sg76
(lp3117
g69
(g70
g71
NtRp3118
(dp3119
g74
(dp3120
g82
I3
ssg83
g3114
sg76
(lp3121
g224
asbasbasbag69
(g85
g71
NtRp3122
(dp3123
g74
(dp3124
sg83
g2782
sg76
(lp3125
g69
(g90
g71
NtRp3126
(dp3127
g74
(dp3128
g94
g95
ssg83
g3122
sg76
(lp3129
S'REMOTE_PORT'
p3130
asbag69
(g90
g71
NtRp3131
(dp3132
g74
(dp3133
g101
g102
ssg83
g3122
sg76
(lp3134
S':'
asbag69
(g90
g71
NtRp3135
(dp3136
g74
(dp3137
sg83
g3122
sg76
(lp3138
g69
(g70
g71
NtRp3139
(dp3140
g74
(dp3141
g82
I3
ssg83
g3135
sg76
(lp3142
g1519
asbasbasbag69
(g85
g71
NtRp3143
(dp3144
g74
(dp3145
sg83
g2782
sg76
(lp3146
g69
(g90
g71
NtRp3147
(dp3148
g74
(dp3149
g94
g95
ssg83
g3143
sg76
(lp3150
S'REQUEST_METHOD'
p3151
asbag69
(g90
g71
NtRp3152
(dp3153
g74
(dp3154
g101
g102
ssg83
g3143
sg76
(lp3155
S':'
asbag69
(g90
g71
NtRp3156
(dp3157
g74
(dp3158
sg83
g3143
sg76
(lp3159
g69
(g70
g71
NtRp3160
(dp3161
g74
(dp3162
g82
I3
ssg83
g3156
sg76
(lp3163
g1541
asbasbasbag69
(g85
g71
NtRp3164
(dp3165
g74
(dp3166
sg83
g2782
sg76
(lp3167
g69
(g90
g71
NtRp3168
(dp3169
g74
(dp3170
g94
g95
ssg83
g3164
sg76
(lp3171
S'REQUEST_URI'
p3172
asbag69
(g90
g71
NtRp3173
(dp3174
g74
(dp3175
g101
g102
ssg83
g3164
sg76
(lp3176
S':'
asbag69
(g90
g71
NtRp3177
(dp3178
g74
(dp3179
sg83
g3164
sg76
(lp3180
g69
(g70
g71
NtRp3181
(dp3182
g74
(dp3183
g82
I3
ssg83
g3177
sg76
(lp3184
g1455
asbasbasbag69
(g85
g71
NtRp3185
(dp3186
g74
(dp3187
sg83
g2782
sg76
(lp3188
g69
(g90
g71
NtRp3189
(dp3190
g74
(dp3191
g94
g95
ssg83
g3185
sg76
(lp3192
S'SCRIPT_NAME'
p3193
asbag69
(g90
g71
NtRp3194
(dp3195
g74
(dp3196
g101
g102
ssg83
g3185
sg76
(lp3197
S':'
asbag69
(g90
g71
NtRp3198
(dp3199
g74
(dp3200
sg83
g3185
sg76
(lp3201
g69
(g70
g71
NtRp3202
(dp3203
g74
(dp3204
g82
I3
ssg83
g3198
sg76
(lp3205
S''
asbasbasbag69
(g85
g71
NtRp3206
(dp3207
g74
(dp3208
sg83
g2782
sg76
(lp3209
g69
(g90
g71
NtRp3210
(dp3211
g74
(dp3212
g94
g95
ssg83
g3206
sg76
(lp3213
S'SERVER_NAME'
p3214
asbag69
(g90
g71
NtRp3215
(dp3216
g74
(dp3217
g101
g102
ssg83
g3206
sg76
(lp3218
S':'
asbag69
(g90
g71
NtRp3219
(dp3220
g74
(dp3221
sg83
g3206
sg76
(lp3222
g69
(g70
g71
NtRp3223
(dp3224
g74
(dp3225
g82
I3
ssg83
g3219
sg76
(lp3226
g1420
asbasbasbag69
(g85
g71
NtRp3227
(dp3228
g74
(dp3229
sg83
g2782
sg76
(lp3230
g69
(g90
g71
NtRp3231
(dp3232
g74
(dp3233
g94
g95
ssg83
g3227
sg76
(lp3234
S'SERVER_PORT'
p3235
asbag69
(g90
g71
NtRp3236
(dp3237
g74
(dp3238
g101
g102
ssg83
g3227
sg76
(lp3239
S':'
asbag69
(g90
g71
NtRp3240
(dp3241
g74
(dp3242
sg83
g3227
sg76
(lp3243
g69
(g70
g71
NtRp3244
(dp3245
g74
(dp3246
g82
I3
ssg83
g3240
sg76
(lp3247
g1626
asbasbasbag69
(g85
g71
NtRp3248
(dp3249
g74
(dp3250
sg83
g2782
sg76
(lp3251
g69
(g90
g71
NtRp3252
(dp3253
g74
(dp3254
g94
g95
ssg83
g3248
sg76
(lp3255
S'SERVER_PROTOCOL'
p3256
asbag69
(g90
g71
NtRp3257
(dp3258
g74
(dp3259
g101
g102
ssg83
g3248
sg76
(lp3260
S':'
asbag69
(g90
g71
NtRp3261
(dp3262
g74
(dp3263
sg83
g3248
sg76
(lp3264
g69
(g70
g71
NtRp3265
(dp3266
g74
(dp3267
g82
I3
ssg83
g3261
sg76
(lp3268
g1648
asbasbasbag69
(g85
g71
NtRp3269
(dp3270
g74
(dp3271
sg83
g2782
sg76
(lp3272
g69
(g90
g71
NtRp3273
(dp3274
g74
(dp3275
g94
g95
ssg83
g3269
sg76
(lp3276
S'SERVER_SOFTWARE'
p3277
asbag69
(g90
g71
NtRp3278
(dp3279
g74
(dp3280
g101
g102
ssg83
g3269
sg76
(lp3281
S':'
asbag69
(g90
g71
NtRp3282
(dp3283
g74
(dp3284
sg83
g3269
sg76
(lp3285
g69
(g70
g71
NtRp3286
(dp3287
g74
(dp3288
g82
I3
ssg83
g3282
sg76
(lp3289
g1670
asbasbasbag69
(g85
g71
NtRp3290
(dp3291
g74
(dp3292
sg83
g2782
sg76
(lp3293
g69
(g90
g71
NtRp3294
(dp3295
g74
(dp3296
g94
g95
ssg83
g3290
sg76
(lp3297
S'wsgi.errors'
p3298
asbag69
(g90
g71
NtRp3299
(dp3300
g74
(dp3301
g101
g102
ssg83
g3290
sg76
(lp3302
S':'
asbag69
(g90
g71
NtRp3303
(dp3304
g74
(dp3305
sg83
g3290
sg76
(lp3306
g69
(g70
g71
NtRp3307
(dp3308
g74
(dp3309
g82
I3
ssg83
g3303
sg76
(lp3310
S"<open file '<stderr>', mode 'w' at 0x100416140>"
p3311
asbasbasbag69
(g85
g71
NtRp3312
(dp3313
g74
(dp3314
sg83
g2782
sg76
(lp3315
g69
(g90
g71
NtRp3316
(dp3317
g74
(dp3318
g94
g95
ssg83
g3312
sg76
(lp3319
S'wsgi.file_wrapper'
p3320
asbag69
(g90
g71
NtRp3321
(dp3322
g74
(dp3323
g101
g102
ssg83
g3312
sg76
(lp3324
S':'
asbag69
(g90
g71
NtRp3325
(dp3326
g74
(dp3327
sg83
g3312
sg76
(lp3328
g69
(g70
g71
NtRp3329
(dp3330
g74
(dp3331
g82
I3
ssg83
g3325
sg76
(lp3332
S'<class wsgiref.util.FileWrapper at 0x101a57c50>'
p3333
asbasbasbag69
(g85
g71
NtRp3334
(dp3335
g74
(dp3336
sg83
g2782
sg76
(lp3337
g69
(g90
g71
NtRp3338
(dp3339
g74
(dp3340
g94
g95
ssg83
g3334
sg76
(lp3341
S'wsgi.input'
p3342
asbag69
(g90
g71
NtRp3343
(dp3344
g74
(dp3345
g101
g102
ssg83
g3334
sg76
(lp3346
S':'
asbag69
(g90
g71
NtRp3347
(dp3348
g74
(dp3349
sg83
g3334
sg76
(lp3350
g69
(g70
g71
NtRp3351
(dp3352
g74
(dp3353
g82
I3
ssg83
g3347
sg76
(lp3354
S"<open file '<fdopen>', mode 'w+b' at 0x11861d470>"
p3355
asbasbasbag69
(g85
g71
NtRp3356
(dp3357
g74
(dp3358
sg83
g2782
sg76
(lp3359
g69
(g90
g71
NtRp3360
(dp3361
g74
(dp3362
g94
g95
ssg83
g3356
sg76
(lp3363
S'wsgi.multiprocess'
p3364
asbag69
(g90
g71
NtRp3365
(dp3366
g74
(dp3367
g101
g102
ssg83
g3356
sg76
(lp3368
S':'
asbag69
(g90
g71
NtRp3369
(dp3370
g74
(dp3371
sg83
g3356
sg76
(lp3372
g69
(g70
g71
NtRp3373
(dp3374
g74
(dp3375
g82
I3
ssg83
g3369
sg76
(lp3376
g112
asbasbasbag69
(g85
g71
NtRp3377
(dp3378
g74
(dp3379
sg83
g2782
sg76
(lp3380
g69
(g90
g71
NtRp3381
(dp3382
g74
(dp3383
g94
g95
ssg83
g3377
sg76
(lp3384
S'wsgi.multithread'
p3385
asbag69
(g90
g71
NtRp3386
(dp3387
g74
(dp3388
g101
g102
ssg83
g3377
sg76
(lp3389
S':'
asbag69
(g90
g71
NtRp3390
(dp3391
g74
(dp3392
sg83
g3377
sg76
(lp3393
g69
(g70
g71
NtRp3394
(dp3395
g74
(dp3396
g82
I3
ssg83
g3390
sg76
(lp3397
g1887
asbasbasbag69
(g85
g71
NtRp3398
(dp3399
g74
(dp3400
sg83
g2782
sg76
(lp3401
g69
(g90
g71
NtRp3402
(dp3403
g74
(dp3404
g94
g95
ssg83
g3398
sg76
(lp3405
S'wsgi.run_once'
p3406
asbag69
(g90
g71
NtRp3407
(dp3408
g74
(dp3409
g101
g102
ssg83
g3398
sg76
(lp3410
S':'
asbag69
(g90
g71
NtRp3411
(dp3412
g74
(dp3413
sg83
g3398
sg76
(lp3414
g69
(g70
g71
NtRp3415
(dp3416
g74
(dp3417
g82
I3
ssg83
g3411
sg76
(lp3418
g112
asbasbasbag69
(g85
g71
NtRp3419
(dp3420
g74
(dp3421
sg83
g2782
sg76
(lp3422
g69
(g90
g71
NtRp3423
(dp3424
g74
(dp3425
g94
g95
ssg83
g3419
sg76
(lp3426
S'wsgi.url_scheme'
p3427
asbag69
(g90
g71
NtRp3428
(dp3429
g74
(dp3430
g101
g102
ssg83
g3419
sg76
(lp3431
S':'
asbag69
(g90
g71
NtRp3432
(dp3433
g74
(dp3434
sg83
g3419
sg76
(lp3435
g69
(g70
g71
NtRp3436
(dp3437
g74
(dp3438
g82
I3
ssg83
g3432
sg76
(lp3439
g1930
asbasbasbag69
(g85
g71
NtRp3440
(dp3441
g74
(dp3442
sg83
g2782
sg76
(lp3443
g69
(g90
g71
NtRp3444
(dp3445
g74
(dp3446
g94
g95
ssg83
g3440
sg76
(lp3447
S'wsgi.version'
p3448
asbag69
(g90
g71
NtRp3449
(dp3450
g74
(dp3451
g101
g102
ssg83
g3440
sg76
(lp3452
S':'
asbag69
(g90
g71
NtRp3453
(dp3454
g74
(dp3455
sg83
g3440
sg76
(lp3456
g69
(g70
g71
NtRp3457
(dp3458
g74
(dp3459
g82
I3
ssg83
g3453
sg76
(lp3460
S'1'
asbasbasbasbasbasbasbasbasbasbasbasbasbsS'frames'
p3461
(lp3462
(dp3463
S'file'
p3464
S'/Users/keshav/Desktop/web2py/gluon/restricted.py'
p3465
sS'dump'
p3466
(dp3467
S'environment'
p3468
S"{'A': <class 'gluon.html.A'>, 'Auth': <class 'gluon.tools.Auth'>, 'B': <class 'gluon.html.B'>, 'BEAUTIFY': <class 'gluon.html.BEAUTIFY'>, 'BODY': <class 'gluon.html.BODY'>, 'BR': <class 'gluon.html.BR'>, 'BUTTON': <class 'gluon.html.BUTTON'>, 'CAT': <class 'gluon.html.CAT'>, 'CENTER': <class 'gluon.html.CENTER'>, 'CLEANUP': <class 'gluon.validators.CLEANUP'>, ...}"
p3469
sS'ccode'
p3470
S'<code object <module> at 0x11865e918, file "/Use...lications/MyApp/controllers/default.py", line 11>'
p3471
ssS'lnum'
p3472
I212
sS'lines'
p3473
(dp3474
I207
S'    try:'
p3475
sI208
S'        if isinstance(code, types.CodeType):'
p3476
sI209
S'            ccode = code'
p3477
sI210
S'        else:'
p3478
sI211
S'            ccode = compile2(code, layer)'
p3479
sI212
S'        exec ccode in environment'
p3480
sI213
S'    except HTTP:'
p3481
sI214
S'        raise'
p3482
sI215
S'    except RestrictedError:'
p3483
sI216
S'        # do not encapsulate (obfuscate) the original RestrictedError'
p3484
ssS'call'
p3485
S"(code='# -*- coding: utf-8 -*-\\n# this file is released ... 99\\n\\nresponse._vars=response._caller(update_tut)\\n', environment={'A': <class 'gluon.html.A'>, 'Auth': <class 'gluon.tools.Auth'>, 'B': <class 'gluon.html.B'>, 'BEAUTIFY': <class 'gluon.html.BEAUTIFY'>, 'BODY': <class 'gluon.html.BODY'>, 'BR': <class 'gluon.html.BR'>, 'BUTTON': <class 'gluon.html.BUTTON'>, 'CAT': <class 'gluon.html.CAT'>, 'CENTER': <class 'gluon.html.CENTER'>, 'CLEANUP': <class 'gluon.validators.CLEANUP'>, ...}, layer='/Users/keshav/Desktop/web2py/applications/MyApp/controllers/default.py')"
p3486
sS'func'
p3487
S'restricted'
p3488
sa(dp3489
g3464
S'/Users/keshav/Desktop/web2py/applications/MyApp/controllers/default.py'
p3490
sg3466
(dp3491
sg3472
I121
sg3473
(dp3492
I110
S''
sI111
S'def update_tut():'
p3493
sI112
S'    if(auth.is_logged_in()):'
p3494
sI113
S'        db.auth_user.insert(id=2,level=5)'
p3495
sI114
S'        row = db(db.auth_user.id==auth.user_id).select().first()'
p3496
sI115
S'        row.level = 1'
p3497
sI116
S'        row.update_record()'
p3498
sI117
S'        return auth.user_id'
p3499
sI118
S'    else:'
p3500
sI119
S'        return 99'
p3501
ssg3485
S'()'
p3502
sg3487
S'<module>'
p3503
sa(dp3504
g3464
S'/Users/keshav/Desktop/web2py/gluon/globals.py'
p3505
sg3466
(dp3506
S'self'
p3507
S'undefined'
p3508
sS'f'
S'<function update_tut at 0x11ac161b8>'
p3509
ssg3472
I188
sg3473
(dp3510
I192
S''
sI183
S'        self.menu = []             # used by the default view layout'
p3511
sI184
S'        self.files = []            # used by web2py_ajax.html'
p3512
sI185
S'        self.generic_patterns = []  # patterns to allow generic views'
p3513
sI186
S"        self.delimiters = ('{{', '}}')"
p3514
sI187
S'        self._vars = None'
p3515
sI188
S'        self._caller = lambda f: f()'
p3516
sI189
S'        self._view_environment = None'
p3517
sI190
S'        self._custom_commit = None'
p3518
sI191
S'        self._custom_rollback = None'
p3519
ssg3485
S'(f=<function update_tut at 0x11ac161b8>)'
p3520
sg3487
S'<lambda>'
p3521
sa(dp3522
g3464
S'/Users/keshav/Desktop/web2py/applications/MyApp/controllers/default.py'
p3523
sg3466
(dp3524
S'global db'
p3525
S'<DAL uri="sqlite://storage.sqlite">'
p3526
sS'db.auth_user'
p3527
S'<Table auth_user (id,first_name,last_name,email,...stration_key,reset_password_key,registration_id)>'
p3528
sS'level'
p3529
g3508
sS'db.auth_user.insert'
p3530
S'<bound method Table.insert of <Table auth_user (...tration_key,reset_password_key,registration_id)>>'
p3531
sS'builtinid'
p3532
S'<built-in function id>'
p3533
ssg3472
I113
sg3473
(dp3534
I108
S'\t            return output+error'
p3535
sI109
S''
sI110
S''
sI111
S'def update_tut():'
p3536
sI112
S'    if(auth.is_logged_in()):'
p3537
sI113
S'        db.auth_user.insert(id=2,level=5)'
p3538
sI114
S'        row = db(db.auth_user.id==auth.user_id).select().first()'
p3539
sI115
S'        row.level = 1'
p3540
sI116
S'        row.update_record()'
p3541
sI117
S'        return auth.user_id'
p3542
ssg3485
S'()'
p3543
sg3487
S'update_tut'
p3544
sa(dp3545
g3464
S'/Users/keshav/Desktop/web2py/gluon/dal.py'
p3546
sg3466
(dp3547
S'self._listify'
p3548
S'<bound method Table._listify of <Table auth_user...tration_key,reset_password_key,registration_id)>>'
p3549
sS'fields'
p3550
S"{'id': 2, 'level': 5}"
p3551
sS'self'
p3552
S'<Table auth_user (id,first_name,last_name,email,...stration_key,reset_password_key,registration_id)>'
p3553
sS'ret'
p3554
g3508
sS'self._db._adapter'
p3555
S'<gluon.dal.SQLiteAdapter object at 0x11875b550>'
p3556
sS'self._db._adapter.insert'
p3557
S'<bound method SQLiteAdapter.insert of <gluon.dal.SQLiteAdapter object at 0x11875b550>>'
p3558
sS'self._db'
p3559
S'<DAL uri="sqlite://storage.sqlite">'
p3560
ssg3472
I7806
sg3473
(dp3561
I7808
S'            fields = Row(fields)'
p3562
sI7809
S'            [f(fields,ret) for f in self._after_insert]'
p3563
sI7810
S'        return ret'
p3564
sI7801
S'        return self._db._adapter._insert(self,self._listify(fields))'
p3565
sI7802
S''
sI7803
S'    def insert(self, **fields):'
p3566
sI7804
S'        self._attempt_upload(fields)'
p3567
sI7805
S'        if any(f(fields) for f in self._before_insert): return 0'
p3568
sI7806
S'        ret =  self._db._adapter.insert(self,self._listify(fields))'
p3569
sI7807
S'        if ret and self._after_insert:'
p3570
ssg3485
S"(self=<Table auth_user (id,first_name,last_name,email,...stration_key,reset_password_key,registration_id)>, **fields={'id': 2, 'level': 5})"
p3571
sg3487
S'insert'
p3572
sa(dp3573
g3464
S'/Users/keshav/Desktop/web2py/gluon/dal.py'
p3574
sg3466
(dp3575
S'name'
p3576
S"'level'"
p3577
ssg3472
I7744
sg3473
(dp3578
I7744
S"                        'Field %s does not belong to the table' % name"
p3579
sI7745
S'            else:'
p3580
sI7746
S'                field = self[name]'
p3581
sI7747
S'                value = fields[name]'
p3582
sI7748
S'                if field.filter_in:'
p3583
sI7739
S'        # store all fields passed as input in new_fields'
p3584
sI7740
S'        for name in fields:'
p3585
sI7741
S'            if not name in self.fields:'
p3586
sI7742
S"                if name != 'id':"
p3587
sI7743
S'                    raise SyntaxError, \\'
p3588
ssg3485
S"(self=<Table auth_user (id,first_name,last_name,email,...stration_key,reset_password_key,registration_id)>, fields={'id': 2, 'level': 5}, update=False)"
p3589
sg3487
S'_listify'
p3590
sasS'pyver'
p3591
S'Python 2.6.1: /usr/bin/python'
p3592
sS'session'
p3593
g69
(g70
g71
NtRp3594
(dp3595
g74
(dp3596
sg76
(lp3597
g69
(g78
g71
NtRp3598
(dp3599
g74
(dp3600
g82
I5
ssg83
Nsg76
(lp3601
g69
(g85
g71
NtRp3602
(dp3603
g74
(dp3604
sg83
g3598
sg76
(lp3605
g69
(g90
g71
NtRp3606
(dp3607
g74
(dp3608
g94
g95
ssg83
g3602
sg76
(lp3609
S'auth'
p3610
asbag69
(g90
g71
NtRp3611
(dp3612
g74
(dp3613
g101
g102
ssg83
g3602
sg76
(lp3614
S':'
asbag69
(g90
g71
NtRp3615
(dp3616
g74
(dp3617
sg83
g3602
sg76
(lp3618
g69
(g70
g71
NtRp3619
(dp3620
g74
(dp3621
g82
I5
ssg83
g3615
sg76
(lp3622
g69
(g78
g71
NtRp3623
(dp3624
g74
(dp3625
g82
I4
ssg83
Nsg76
(lp3626
g69
(g85
g71
NtRp3627
(dp3628
g74
(dp3629
sg83
g3623
sg76
(lp3630
g69
(g90
g71
NtRp3631
(dp3632
g74
(dp3633
g94
g95
ssg83
g3627
sg76
(lp3634
S'expiration'
p3635
asbag69
(g90
g71
NtRp3636
(dp3637
g74
(dp3638
g101
g102
ssg83
g3627
sg76
(lp3639
S':'
asbag69
(g90
g71
NtRp3640
(dp3641
g74
(dp3642
sg83
g3627
sg76
(lp3643
g69
(g70
g71
NtRp3644
(dp3645
g74
(dp3646
g82
I4
ssg83
g3640
sg76
(lp3647
S'3600'
p3648
asbasbasbag69
(g85
g71
NtRp3649
(dp3650
g74
(dp3651
sg83
g3623
sg76
(lp3652
g69
(g90
g71
NtRp3653
(dp3654
g74
(dp3655
g94
g95
ssg83
g3649
sg76
(lp3656
S'hmac_key'
p3657
asbag69
(g90
g71
NtRp3658
(dp3659
g74
(dp3660
g101
g102
ssg83
g3649
sg76
(lp3661
S':'
asbag69
(g90
g71
NtRp3662
(dp3663
g74
(dp3664
sg83
g3649
sg76
(lp3665
g69
(g70
g71
NtRp3666
(dp3667
g74
(dp3668
g82
I4
ssg83
g3662
sg76
(lp3669
S'8d92ed6f-02cb-4e58-9471-e7e2eb9138ba'
p3670
asbasbasbag69
(g85
g71
NtRp3671
(dp3672
g74
(dp3673
sg83
g3623
sg76
(lp3674
g69
(g90
g71
NtRp3675
(dp3676
g74
(dp3677
g94
g95
ssg83
g3671
sg76
(lp3678
S'last_visit'
p3679
asbag69
(g90
g71
NtRp3680
(dp3681
g74
(dp3682
g101
g102
ssg83
g3671
sg76
(lp3683
S':'
asbag69
(g90
g71
NtRp3684
(dp3685
g74
(dp3686
sg83
g3671
sg76
(lp3687
g69
(g70
g71
NtRp3688
(dp3689
g74
(dp3690
g82
I4
ssg83
g3684
sg76
(lp3691
S'datetime.datetime(2012, 11, 7, 22, 46, 22, 176900)'
p3692
asbasbasbag69
(g85
g71
NtRp3693
(dp3694
g74
(dp3695
sg83
g3623
sg76
(lp3696
g69
(g90
g71
NtRp3697
(dp3698
g74
(dp3699
g94
g95
ssg83
g3693
sg76
(lp3700
S'remember'
p3701
asbag69
(g90
g71
NtRp3702
(dp3703
g74
(dp3704
g101
g102
ssg83
g3693
sg76
(lp3705
S':'
asbag69
(g90
g71
NtRp3706
(dp3707
g74
(dp3708
sg83
g3693
sg76
(lp3709
g69
(g70
g71
NtRp3710
(dp3711
g74
(dp3712
g82
I4
ssg83
g3706
sg76
(lp3713
g112
asbasbasbag69
(g85
g71
NtRp3714
(dp3715
g74
(dp3716
sg83
g3623
sg76
(lp3717
g69
(g90
g71
NtRp3718
(dp3719
g74
(dp3720
g94
g95
ssg83
g3714
sg76
(lp3721
S'user'
p3722
asbag69
(g90
g71
NtRp3723
(dp3724
g74
(dp3725
g101
g102
ssg83
g3714
sg76
(lp3726
S':'
asbag69
(g90
g71
NtRp3727
(dp3728
g74
(dp3729
sg83
g3714
sg76
(lp3730
g69
(g70
g71
NtRp3731
(dp3732
g74
(dp3733
g82
I4
ssg83
g3727
sg76
(lp3734
g69
(g78
g71
NtRp3735
(dp3736
g74
(dp3737
g82
I3
ssg83
Nsg76
(lp3738
g69
(g85
g71
NtRp3739
(dp3740
g74
(dp3741
sg83
g3735
sg76
(lp3742
g69
(g90
g71
NtRp3743
(dp3744
g74
(dp3745
g94
g95
ssg83
g3739
sg76
(lp3746
S'email'
p3747
asbag69
(g90
g71
NtRp3748
(dp3749
g74
(dp3750
g101
g102
ssg83
g3739
sg76
(lp3751
S':'
asbag69
(g90
g71
NtRp3752
(dp3753
g74
(dp3754
sg83
g3739
sg76
(lp3755
g69
(g70
g71
NtRp3756
(dp3757
g74
(dp3758
g82
I3
ssg83
g3752
sg76
(lp3759
S'kc00986@gmail.com'
p3760
asbasbasbag69
(g85
g71
NtRp3761
(dp3762
g74
(dp3763
sg83
g3735
sg76
(lp3764
g69
(g90
g71
NtRp3765
(dp3766
g74
(dp3767
g94
g95
ssg83
g3761
sg76
(lp3768
S'first_name'
p3769
asbag69
(g90
g71
NtRp3770
(dp3771
g74
(dp3772
g101
g102
ssg83
g3761
sg76
(lp3773
S':'
asbag69
(g90
g71
NtRp3774
(dp3775
g74
(dp3776
sg83
g3761
sg76
(lp3777
g69
(g70
g71
NtRp3778
(dp3779
g74
(dp3780
g82
I3
ssg83
g3774
sg76
(lp3781
S'Keshav'
p3782
asbasbasbag69
(g85
g71
NtRp3783
(dp3784
g74
(dp3785
sg83
g3735
sg76
(lp3786
g69
(g90
g71
NtRp3787
(dp3788
g74
(dp3789
g94
g95
ssg83
g3783
sg76
(lp3790
S'id'
p3791
asbag69
(g90
g71
NtRp3792
(dp3793
g74
(dp3794
g101
g102
ssg83
g3783
sg76
(lp3795
S':'
asbag69
(g90
g71
NtRp3796
(dp3797
g74
(dp3798
sg83
g3783
sg76
(lp3799
g69
(g70
g71
NtRp3800
(dp3801
g74
(dp3802
g82
I3
ssg83
g3796
sg76
(lp3803
S'1'
asbasbasbag69
(g85
g71
NtRp3804
(dp3805
g74
(dp3806
sg83
g3735
sg76
(lp3807
g69
(g90
g71
NtRp3808
(dp3809
g74
(dp3810
g94
g95
ssg83
g3804
sg76
(lp3811
S'last_name'
p3812
asbag69
(g90
g71
NtRp3813
(dp3814
g74
(dp3815
g101
g102
ssg83
g3804
sg76
(lp3816
S':'
asbag69
(g90
g71
NtRp3817
(dp3818
g74
(dp3819
sg83
g3804
sg76
(lp3820
g69
(g70
g71
NtRp3821
(dp3822
g74
(dp3823
g82
I3
ssg83
g3817
sg76
(lp3824
S'Choudhary'
p3825
asbasbasbag69
(g85
g71
NtRp3826
(dp3827
g74
(dp3828
sg83
g3735
sg76
(lp3829
g69
(g90
g71
NtRp3830
(dp3831
g74
(dp3832
g94
g95
ssg83
g3826
sg76
(lp3833
S'registration_id'
p3834
asbag69
(g90
g71
NtRp3835
(dp3836
g74
(dp3837
g101
g102
ssg83
g3826
sg76
(lp3838
S':'
asbag69
(g90
g71
NtRp3839
(dp3840
g74
(dp3841
sg83
g3826
sg76
(lp3842
g69
(g70
g71
NtRp3843
(dp3844
g74
(dp3845
g82
I3
ssg83
g3839
sg76
(lp3846
S''
asbasbasbag69
(g85
g71
NtRp3847
(dp3848
g74
(dp3849
sg83
g3735
sg76
(lp3850
g69
(g90
g71
NtRp3851
(dp3852
g74
(dp3853
g94
g95
ssg83
g3847
sg76
(lp3854
S'registration_key'
p3855
asbag69
(g90
g71
NtRp3856
(dp3857
g74
(dp3858
g101
g102
ssg83
g3847
sg76
(lp3859
S':'
asbag69
(g90
g71
NtRp3860
(dp3861
g74
(dp3862
sg83
g3847
sg76
(lp3863
g69
(g70
g71
NtRp3864
(dp3865
g74
(dp3866
g82
I3
ssg83
g3860
sg76
(lp3867
S''
asbasbasbag69
(g85
g71
NtRp3868
(dp3869
g74
(dp3870
sg83
g3735
sg76
(lp3871
g69
(g90
g71
NtRp3872
(dp3873
g74
(dp3874
g94
g95
ssg83
g3868
sg76
(lp3875
S'reset_password_key'
p3876
asbag69
(g90
g71
NtRp3877
(dp3878
g74
(dp3879
g101
g102
ssg83
g3868
sg76
(lp3880
S':'
asbag69
(g90
g71
NtRp3881
(dp3882
g74
(dp3883
sg83
g3868
sg76
(lp3884
g69
(g70
g71
NtRp3885
(dp3886
g74
(dp3887
g82
I3
ssg83
g3881
sg76
(lp3888
S''
asbasbasbasbasbasbasbag69
(g85
g71
NtRp3889
(dp3890
g74
(dp3891
sg83
g3623
sg76
(lp3892
g69
(g90
g71
NtRp3893
(dp3894
g74
(dp3895
g94
g95
ssg83
g3889
sg76
(lp3896
S'user_groups'
p3897
asbag69
(g90
g71
NtRp3898
(dp3899
g74
(dp3900
g101
g102
ssg83
g3889
sg76
(lp3901
S':'
asbag69
(g90
g71
NtRp3902
(dp3903
g74
(dp3904
sg83
g3889
sg76
(lp3905
g69
(g70
g71
NtRp3906
(dp3907
g74
(dp3908
g82
I4
ssg83
g3902
sg76
(lp3909
g69
(g78
g71
NtRp3910
(dp3911
g74
(dp3912
g82
I3
ssg83
Nsg76
(lp3913
g69
(g85
g71
NtRp3914
(dp3915
g74
(dp3916
sg83
g3910
sg76
(lp3917
g69
(g90
g71
NtRp3918
(dp3919
g74
(dp3920
g94
g95
ssg83
g3914
sg76
(lp3921
S'1'
asbag69
(g90
g71
NtRp3922
(dp3923
g74
(dp3924
g101
g102
ssg83
g3914
sg76
(lp3925
S':'
asbag69
(g90
g71
NtRp3926
(dp3927
g74
(dp3928
sg83
g3914
sg76
(lp3929
g69
(g70
g71
NtRp3930
(dp3931
g74
(dp3932
g82
I3
ssg83
g3926
sg76
(lp3933
S'user_1'
p3934
asbasbasbasbasbasbasbasbasbasbasbag69
(g85
g71
NtRp3935
(dp3936
g74
(dp3937
sg83
g3598
sg76
(lp3938
g69
(g90
g71
NtRp3939
(dp3940
g74
(dp3941
g94
g95
ssg83
g3935
sg76
(lp3942
S'flash'
p3943
asbag69
(g90
g71
NtRp3944
(dp3945
g74
(dp3946
g101
g102
ssg83
g3935
sg76
(lp3947
S':'
asbag69
(g90
g71
NtRp3948
(dp3949
g74
(dp3950
sg83
g3935
sg76
(lp3951
g69
(g70
g71
NtRp3952
(dp3953
g74
(dp3954
g82
I5
ssg83
g3948
sg76
(lp3955
S'None'
p3956
asbasbasbag69
(g85
g71
NtRp3957
(dp3958
g74
(dp3959
sg83
g3598
sg76
(lp3960
g69
(g90
g71
NtRp3961
(dp3962
g74
(dp3963
g94
g95
ssg83
g3957
sg76
(lp3964
S'last_orderby'
p3965
asbag69
(g90
g71
NtRp3966
(dp3967
g74
(dp3968
g101
g102
ssg83
g3957
sg76
(lp3969
S':'
asbag69
(g90
g71
NtRp3970
(dp3971
g74
(dp3972
sg83
g3957
sg76
(lp3973
g69
(g70
g71
NtRp3974
(dp3975
g74
(dp3976
g82
I5
ssg83
g3970
sg76
(lp3977
S'None'
p3978
asbasbasbag69
(g85
g71
NtRp3979
(dp3980
g74
(dp3981
sg83
g3598
sg76
(lp3982
g69
(g90
g71
NtRp3983
(dp3984
g74
(dp3985
g94
g95
ssg83
g3979
sg76
(lp3986
S'last_query'
p3987
asbag69
(g90
g71
NtRp3988
(dp3989
g74
(dp3990
g101
g102
ssg83
g3979
sg76
(lp3991
S':'
asbag69
(g90
g71
NtRp3992
(dp3993
g74
(dp3994
sg83
g3979
sg76
(lp3995
g69
(g70
g71
NtRp3996
(dp3997
g74
(dp3998
g82
I5
ssg83
g3992
sg76
(lp3999
S'db.auth_user.id>0'
p4000
asbasbasbasbasbsS'etype'
p4001
S"<type 'exceptions.SyntaxError'>"
p4002
sS'date'
p4003
S'Wed Nov  7 22:47:31 2012'
p4004
sS'response'
p4005
g69
(g70
g71
NtRp4006
(dp4007
g74
(dp4008
sg76
(lp4009
g69
(g78
g71
NtRp4010
(dp4011
g74
(dp4012
g82
I5
ssg83
Nsg76
(lp4013
g69
(g85
g71
NtRp4014
(dp4015
g74
(dp4016
sg83
g4010
sg76
(lp4017
g69
(g90
g71
NtRp4018
(dp4019
g74
(dp4020
g94
g95
ssg83
g4014
sg76
(lp4021
g167
asbag69
(g90
g71
NtRp4022
(dp4023
g74
(dp4024
g101
g102
ssg83
g4014
sg76
(lp4025
S':'
asbag69
(g90
g71
NtRp4026
(dp4027
g74
(dp4028
sg83
g4014
sg76
(lp4029
g69
(g70
g71
NtRp4030
(dp4031
g74
(dp4032
g82
I5
ssg83
g4026
sg76
(lp4033
S'<cStringIO.StringO object at 0x10139b0d8>'
p4034
asbasbasbag69
(g85
g71
NtRp4035
(dp4036
g74
(dp4037
sg83
g4010
sg76
(lp4038
g69
(g90
g71
NtRp4039
(dp4040
g74
(dp4041
g94
g95
ssg83
g4035
sg76
(lp4042
g255
asbag69
(g90
g71
NtRp4043
(dp4044
g74
(dp4045
g101
g102
ssg83
g4035
sg76
(lp4046
S':'
asbag69
(g90
g71
NtRp4047
(dp4048
g74
(dp4049
sg83
g4035
sg76
(lp4050
g69
(g70
g71
NtRp4051
(dp4052
g74
(dp4053
g82
I5
ssg83
g4047
sg76
(lp4054
g69
(g78
g71
NtRp4055
(dp4056
g74
(dp4057
g82
I4
ssg83
Nsg76
(lp4058
g69
(g85
g71
NtRp4059
(dp4060
g74
(dp4061
sg83
g4055
sg76
(lp4062
g69
(g90
g71
NtRp4063
(dp4064
g74
(dp4065
g94
g95
ssg83
g4059
sg76
(lp4066
S'session_id_myapp'
p4067
asbag69
(g90
g71
NtRp4068
(dp4069
g74
(dp4070
g101
g102
ssg83
g4059
sg76
(lp4071
S':'
asbag69
(g90
g71
NtRp4072
(dp4073
g74
(dp4074
sg83
g4059
sg76
(lp4075
g69
(g70
g71
NtRp4076
(dp4077
g74
(dp4078
g82
I4
ssg83
g4072
sg76
(lp4079
g487
ag69
(g78
g71
NtRp4080
(dp4081
g74
(dp4082
g82
I3
ssg83
Nsg76
(lp4083
g69
(g85
g71
NtRp4084
(dp4085
g74
(dp4086
sg83
g4080
sg76
(lp4087
g69
(g90
g71
NtRp4088
(dp4089
g74
(dp4090
g94
g95
ssg83
g4084
sg76
(lp4091
g306
asbag69
(g90
g71
NtRp4092
(dp4093
g74
(dp4094
g101
g102
ssg83
g4084
sg76
(lp4095
S':'
asbag69
(g90
g71
NtRp4096
(dp4097
g74
(dp4098
sg83
g4084
sg76
(lp4099
g69
(g70
g71
NtRp4100
(dp4101
g74
(dp4102
g82
I3
ssg83
g4096
sg76
(lp4103
S''
asbasbasbag69
(g85
g71
NtRp4104
(dp4105
g74
(dp4106
sg83
g4080
sg76
(lp4107
g69
(g90
g71
NtRp4108
(dp4109
g74
(dp4110
g94
g95
ssg83
g4104
sg76
(lp4111
g327
asbag69
(g90
g71
NtRp4112
(dp4113
g74
(dp4114
g101
g102
ssg83
g4104
sg76
(lp4115
S':'
asbag69
(g90
g71
NtRp4116
(dp4117
g74
(dp4118
sg83
g4104
sg76
(lp4119
g69
(g70
g71
NtRp4120
(dp4121
g74
(dp4122
g82
I3
ssg83
g4116
sg76
(lp4123
S''
asbasbasbag69
(g85
g71
NtRp4124
(dp4125
g74
(dp4126
sg83
g4080
sg76
(lp4127
g69
(g90
g71
NtRp4128
(dp4129
g74
(dp4130
g94
g95
ssg83
g4124
sg76
(lp4131
g348
asbag69
(g90
g71
NtRp4132
(dp4133
g74
(dp4134
g101
g102
ssg83
g4124
sg76
(lp4135
S':'
asbag69
(g90
g71
NtRp4136
(dp4137
g74
(dp4138
sg83
g4124
sg76
(lp4139
g69
(g70
g71
NtRp4140
(dp4141
g74
(dp4142
g82
I3
ssg83
g4136
sg76
(lp4143
S''
asbasbasbag69
(g85
g71
NtRp4144
(dp4145
g74
(dp4146
sg83
g4080
sg76
(lp4147
g69
(g90
g71
NtRp4148
(dp4149
g74
(dp4150
g94
g95
ssg83
g4144
sg76
(lp4151
g369
asbag69
(g90
g71
NtRp4152
(dp4153
g74
(dp4154
g101
g102
ssg83
g4144
sg76
(lp4155
S':'
asbag69
(g90
g71
NtRp4156
(dp4157
g74
(dp4158
sg83
g4144
sg76
(lp4159
g69
(g70
g71
NtRp4160
(dp4161
g74
(dp4162
g82
I3
ssg83
g4156
sg76
(lp4163
S''
asbasbasbag69
(g85
g71
NtRp4164
(dp4165
g74
(dp4166
sg83
g4080
sg76
(lp4167
g69
(g90
g71
NtRp4168
(dp4169
g74
(dp4170
g94
g95
ssg83
g4164
sg76
(lp4171
g390
asbag69
(g90
g71
NtRp4172
(dp4173
g74
(dp4174
g101
g102
ssg83
g4164
sg76
(lp4175
S':'
asbag69
(g90
g71
NtRp4176
(dp4177
g74
(dp4178
sg83
g4164
sg76
(lp4179
g69
(g70
g71
NtRp4180
(dp4181
g74
(dp4182
g82
I3
ssg83
g4176
sg76
(lp4183
S''
asbasbasbag69
(g85
g71
NtRp4184
(dp4185
g74
(dp4186
sg83
g4080
sg76
(lp4187
g69
(g90
g71
NtRp4188
(dp4189
g74
(dp4190
g94
g95
ssg83
g4184
sg76
(lp4191
g411
asbag69
(g90
g71
NtRp4192
(dp4193
g74
(dp4194
g101
g102
ssg83
g4184
sg76
(lp4195
S':'
asbag69
(g90
g71
NtRp4196
(dp4197
g74
(dp4198
sg83
g4184
sg76
(lp4199
g69
(g70
g71
NtRp4200
(dp4201
g74
(dp4202
g82
I3
ssg83
g4196
sg76
(lp4203
S'/'
asbasbasbag69
(g85
g71
NtRp4204
(dp4205
g74
(dp4206
sg83
g4080
sg76
(lp4207
g69
(g90
g71
NtRp4208
(dp4209
g74
(dp4210
g94
g95
ssg83
g4204
sg76
(lp4211
g432
asbag69
(g90
g71
NtRp4212
(dp4213
g74
(dp4214
g101
g102
ssg83
g4204
sg76
(lp4215
S':'
asbag69
(g90
g71
NtRp4216
(dp4217
g74
(dp4218
sg83
g4204
sg76
(lp4219
g69
(g70
g71
NtRp4220
(dp4221
g74
(dp4222
g82
I3
ssg83
g4216
sg76
(lp4223
S''
asbasbasbag69
(g85
g71
NtRp4224
(dp4225
g74
(dp4226
sg83
g4080
sg76
(lp4227
g69
(g90
g71
NtRp4228
(dp4229
g74
(dp4230
g94
g95
ssg83
g4224
sg76
(lp4231
g453
asbag69
(g90
g71
NtRp4232
(dp4233
g74
(dp4234
g101
g102
ssg83
g4224
sg76
(lp4235
S':'
asbag69
(g90
g71
NtRp4236
(dp4237
g74
(dp4238
sg83
g4224
sg76
(lp4239
g69
(g70
g71
NtRp4240
(dp4241
g74
(dp4242
g82
I3
ssg83
g4236
sg76
(lp4243
S''
asbasbasbasbasbasbasbasbasbasbasbag69
(g85
g71
NtRp4244
(dp4245
g74
(dp4246
sg83
g4010
sg76
(lp4247
g69
(g90
g71
NtRp4248
(dp4249
g74
(dp4250
g94
g95
ssg83
g4244
sg76
(lp4251
S'delimiters'
p4252
asbag69
(g90
g71
NtRp4253
(dp4254
g74
(dp4255
g101
g102
ssg83
g4244
sg76
(lp4256
S':'
asbag69
(g90
g71
NtRp4257
(dp4258
g74
(dp4259
sg83
g4244
sg76
(lp4260
g69
(g70
g71
NtRp4261
(dp4262
g74
(dp4263
g82
I5
ssg83
g4257
sg76
(lp4264
g69
(g78
g71
NtRp4265
(dp4266
g74
(dp4267
g82
I4
ssg83
Nsg76
(lp4268
g69
(g85
g71
NtRp4269
(dp4270
g74
(dp4271
sg83
g4265
sg76
(lp4272
g69
(g90
g71
NtRp4273
(dp4274
g74
(dp4275
sg83
g4269
sg76
(lp4276
g69
(g70
g71
NtRp4277
(dp4278
g74
(dp4279
g82
I4
ssg83
g4273
sg76
(lp4280
S'{{'
p4281
asbasbasbag69
(g85
g71
NtRp4282
(dp4283
g74
(dp4284
sg83
g4265
sg76
(lp4285
g69
(g90
g71
NtRp4286
(dp4287
g74
(dp4288
sg83
g4282
sg76
(lp4289
g69
(g70
g71
NtRp4290
(dp4291
g74
(dp4292
g82
I4
ssg83
g4286
sg76
(lp4293
S'}}'
p4294
asbasbasbasbasbasbasbag69
(g85
g71
NtRp4295
(dp4296
g74
(dp4297
sg83
g4010
sg76
(lp4298
g69
(g90
g71
NtRp4299
(dp4300
g74
(dp4301
g94
g95
ssg83
g4295
sg76
(lp4302
S'files'
p4303
asbag69
(g90
g71
NtRp4304
(dp4305
g74
(dp4306
g101
g102
ssg83
g4295
sg76
(lp4307
S':'
asbag69
(g90
g71
NtRp4308
(dp4309
g74
(dp4310
sg83
g4295
sg76
(lp4311
g69
(g70
g71
NtRp4312
(dp4313
g74
(dp4314
g82
I5
ssg83
g4308
sg76
(lp4315
g69
(g78
g71
NtRp4316
(dp4317
g74
(dp4318
g82
I4
ssg83
Nsg76
(lp4319
sbasbasbasbag69
(g85
g71
NtRp4320
(dp4321
g74
(dp4322
sg83
g4010
sg76
(lp4323
g69
(g90
g71
NtRp4324
(dp4325
g74
(dp4326
g94
g95
ssg83
g4320
sg76
(lp4327
S'flash'
p4328
asbag69
(g90
g71
NtRp4329
(dp4330
g74
(dp4331
g101
g102
ssg83
g4320
sg76
(lp4332
S':'
asbag69
(g90
g71
NtRp4333
(dp4334
g74
(dp4335
sg83
g4320
sg76
(lp4336
g69
(g70
g71
NtRp4337
(dp4338
g74
(dp4339
g82
I5
ssg83
g4333
sg76
(lp4340
S''
asbasbasbag69
(g85
g71
NtRp4341
(dp4342
g74
(dp4343
sg83
g4010
sg76
(lp4344
g69
(g90
g71
NtRp4345
(dp4346
g74
(dp4347
g94
g95
ssg83
g4341
sg76
(lp4348
S'generic_patterns'
p4349
asbag69
(g90
g71
NtRp4350
(dp4351
g74
(dp4352
g101
g102
ssg83
g4341
sg76
(lp4353
S':'
asbag69
(g90
g71
NtRp4354
(dp4355
g74
(dp4356
sg83
g4341
sg76
(lp4357
g69
(g70
g71
NtRp4358
(dp4359
g74
(dp4360
g82
I5
ssg83
g4354
sg76
(lp4361
g69
(g78
g71
NtRp4362
(dp4363
g74
(dp4364
g82
I4
ssg83
Nsg76
(lp4365
g69
(g85
g71
NtRp4366
(dp4367
g74
(dp4368
sg83
g4362
sg76
(lp4369
g69
(g90
g71
NtRp4370
(dp4371
g74
(dp4372
sg83
g4366
sg76
(lp4373
g69
(g70
g71
NtRp4374
(dp4375
g74
(dp4376
g82
I4
ssg83
g4370
sg76
(lp4377
S'*'
asbasbasbasbasbasbasbag69
(g85
g71
NtRp4378
(dp4379
g74
(dp4380
sg83
g4010
sg76
(lp4381
g69
(g90
g71
NtRp4382
(dp4383
g74
(dp4384
g94
g95
ssg83
g4378
sg76
(lp4385
S'google_analytics_id'
p4386
asbag69
(g90
g71
NtRp4387
(dp4388
g74
(dp4389
g101
g102
ssg83
g4378
sg76
(lp4390
S':'
asbag69
(g90
g71
NtRp4391
(dp4392
g74
(dp4393
sg83
g4378
sg76
(lp4394
g69
(g70
g71
NtRp4395
(dp4396
g74
(dp4397
g82
I5
ssg83
g4391
sg76
(lp4398
S'None'
p4399
asbasbasbag69
(g85
g71
NtRp4400
(dp4401
g74
(dp4402
sg83
g4010
sg76
(lp4403
g69
(g90
g71
NtRp4404
(dp4405
g74
(dp4406
g94
g95
ssg83
g4400
sg76
(lp4407
S'headers'
p4408
asbag69
(g90
g71
NtRp4409
(dp4410
g74
(dp4411
g101
g102
ssg83
g4400
sg76
(lp4412
S':'
asbag69
(g90
g71
NtRp4413
(dp4414
g74
(dp4415
sg83
g4400
sg76
(lp4416
g69
(g70
g71
NtRp4417
(dp4418
g74
(dp4419
g82
I5
ssg83
g4413
sg76
(lp4420
g69
(g78
g71
NtRp4421
(dp4422
g74
(dp4423
g82
I4
ssg83
Nsg76
(lp4424
g69
(g85
g71
NtRp4425
(dp4426
g74
(dp4427
sg83
g4421
sg76
(lp4428
g69
(g90
g71
NtRp4429
(dp4430
g74
(dp4431
g94
g95
ssg83
g4425
sg76
(lp4432
S'X-Powered-By'
p4433
asbag69
(g90
g71
NtRp4434
(dp4435
g74
(dp4436
g101
g102
ssg83
g4425
sg76
(lp4437
S':'
asbag69
(g90
g71
NtRp4438
(dp4439
g74
(dp4440
sg83
g4425
sg76
(lp4441
g69
(g70
g71
NtRp4442
(dp4443
g74
(dp4444
g82
I4
ssg83
g4438
sg76
(lp4445
S'web2py'
p4446
asbasbasbasbasbasbasbag69
(g85
g71
NtRp4447
(dp4448
g74
(dp4449
sg83
g4010
sg76
(lp4450
g69
(g90
g71
NtRp4451
(dp4452
g74
(dp4453
g94
g95
ssg83
g4447
sg76
(lp4454
S'menu'
p4455
asbag69
(g90
g71
NtRp4456
(dp4457
g74
(dp4458
g101
g102
ssg83
g4447
sg76
(lp4459
S':'
asbag69
(g90
g71
NtRp4460
(dp4461
g74
(dp4462
sg83
g4447
sg76
(lp4463
g69
(g70
g71
NtRp4464
(dp4465
g74
(dp4466
g82
I5
ssg83
g4460
sg76
(lp4467
g69
(g78
g71
NtRp4468
(dp4469
g74
(dp4470
g82
I4
ssg83
Nsg76
(lp4471
g69
(g85
g71
NtRp4472
(dp4473
g74
(dp4474
sg83
g4468
sg76
(lp4475
g69
(g90
g71
NtRp4476
(dp4477
g74
(dp4478
sg83
g4472
sg76
(lp4479
g69
(g70
g71
NtRp4480
(dp4481
g74
(dp4482
g82
I4
ssg83
g4476
sg76
(lp4483
g69
(g78
g71
NtRp4484
(dp4485
g74
(dp4486
g82
I3
ssg83
Nsg76
(lp4487
g69
(g85
g71
NtRp4488
(dp4489
g74
(dp4490
sg83
g4484
sg76
(lp4491
g69
(g90
g71
NtRp4492
(dp4493
g74
(dp4494
sg83
g4488
sg76
(lp4495
g69
(g70
g71
NtRp4496
(dp4497
g74
(dp4498
g82
I3
ssg83
g4492
sg76
(lp4499
cgluon.languages
lazyT_unpickle
p4500
(S's\x04\x00\x00\x00Home'
tRp4501
asbasbasbag69
(g85
g71
NtRp4502
(dp4503
g74
(dp4504
sg83
g4484
sg76
(lp4505
g69
(g90
g71
NtRp4506
(dp4507
g74
(dp4508
sg83
g4502
sg76
(lp4509
g69
(g70
g71
NtRp4510
(dp4511
g74
(dp4512
g82
I3
ssg83
g4506
sg76
(lp4513
g112
asbasbasbag69
(g85
g71
NtRp4514
(dp4515
g74
(dp4516
sg83
g4484
sg76
(lp4517
g69
(g90
g71
NtRp4518
(dp4519
g74
(dp4520
sg83
g4514
sg76
(lp4521
g69
(g70
g71
NtRp4522
(dp4523
g74
(dp4524
g82
I3
ssg83
g4518
sg76
(lp4525
S'/MyApp/default/index'
p4526
asbasbasbag69
(g85
g71
NtRp4527
(dp4528
g74
(dp4529
sg83
g4484
sg76
(lp4530
g69
(g90
g71
NtRp4531
(dp4532
g74
(dp4533
sg83
g4527
sg76
(lp4534
g69
(g70
g71
NtRp4535
(dp4536
g74
(dp4537
g82
I3
ssg83
g4531
sg76
(lp4538
g69
(g78
g71
NtRp4539
(dp4540
g74
(dp4541
g82
I2
ssg83
Nsg76
(lp4542
sbasbasbasbasbasbasbasbag69
(g85
g71
NtRp4543
(dp4544
g74
(dp4545
sg83
g4468
sg76
(lp4546
g69
(g90
g71
NtRp4547
(dp4548
g74
(dp4549
sg83
g4543
sg76
(lp4550
g69
(g70
g71
NtRp4551
(dp4552
g74
(dp4553
g82
I4
ssg83
g4547
sg76
(lp4554
g69
(g78
g71
NtRp4555
(dp4556
g74
(dp4557
g82
I3
ssg83
Nsg76
(lp4558
g69
(g85
g71
NtRp4559
(dp4560
g74
(dp4561
sg83
g4555
sg76
(lp4562
g69
(g90
g71
NtRp4563
(dp4564
g74
(dp4565
sg83
g4559
sg76
(lp4566
g69
(g70
g71
NtRp4567
(dp4568
g74
(dp4569
g82
I3
ssg83
g4563
sg76
(lp4570
g69
(cgluon.html
SPAN
p4571
g71
NtRp4572
(dp4573
g74
(dp4574
S'_class'
p4575
S'highlighted'
p4576
ssg83
Nsg76
(lp4577
g4446
asbasbasbasbag69
(g85
g71
NtRp4578
(dp4579
g74
(dp4580
sg83
g4555
sg76
(lp4581
g69
(g90
g71
NtRp4582
(dp4583
g74
(dp4584
sg83
g4578
sg76
(lp4585
g69
(g70
g71
NtRp4586
(dp4587
g74
(dp4588
g82
I3
ssg83
g4582
sg76
(lp4589
g112
asbasbasbag69
(g85
g71
NtRp4590
(dp4591
g74
(dp4592
sg83
g4555
sg76
(lp4593
g69
(g90
g71
NtRp4594
(dp4595
g74
(dp4596
sg83
g4590
sg76
(lp4597
g69
(g70
g71
NtRp4598
(dp4599
g74
(dp4600
g82
I3
ssg83
g4594
sg76
(lp4601
S'http://web2py.com'
p4602
asbasbasbag69
(g85
g71
NtRp4603
(dp4604
g74
(dp4605
sg83
g4555
sg76
(lp4606
g69
(g90
g71
NtRp4607
(dp4608
g74
(dp4609
sg83
g4603
sg76
(lp4610
g69
(g70
g71
NtRp4611
(dp4612
g74
(dp4613
g82
I3
ssg83
g4607
sg76
(lp4614
g69
(g78
g71
NtRp4615
(dp4616
g74
(dp4617
g82
I2
ssg83
Nsg76
(lp4618
g69
(g85
g71
NtRp4619
(dp4620
g74
(dp4621
sg83
g4615
sg76
(lp4622
g69
(g90
g71
NtRp4623
(dp4624
g74
(dp4625
sg83
g4619
sg76
(lp4626
g69
(g70
g71
NtRp4627
(dp4628
g74
(dp4629
g82
I2
ssg83
g4623
sg76
(lp4630
g69
(g78
g71
NtRp4631
(dp4632
g74
(dp4633
g82
I1
ssg83
Nsg76
(lp4634
g69
(g85
g71
NtRp4635
(dp4636
g74
(dp4637
sg83
g4631
sg76
(lp4638
g69
(g90
g71
NtRp4639
(dp4640
g74
(dp4641
sg83
g4635
sg76
(lp4642
g69
(g70
g71
NtRp4643
(dp4644
g74
(dp4645
g82
I1
ssg83
g4639
sg76
(lp4646
g4500
(S's\x08\x00\x00\x00My Sites'
tRp4647
asbasbasbag69
(g85
g71
NtRp4648
(dp4649
g74
(dp4650
sg83
g4631
sg76
(lp4651
g69
(g90
g71
NtRp4652
(dp4653
g74
(dp4654
sg83
g4648
sg76
(lp4655
g69
(g70
g71
NtRp4656
(dp4657
g74
(dp4658
g82
I1
ssg83
g4652
sg76
(lp4659
I00
asbasbasbag69
(g85
g71
NtRp4660
(dp4661
g74
(dp4662
sg83
g4631
sg76
(lp4663
g69
(g90
g71
NtRp4664
(dp4665
g74
(dp4666
sg83
g4660
sg76
(lp4667
g69
(g70
g71
NtRp4668
(dp4669
g74
(dp4670
g82
I1
ssg83
g4664
sg76
(lp4671
S'/admin/default/site'
p4672
asbasbasbasbasbasbasbag69
(g85
g71
NtRp4673
(dp4674
g74
(dp4675
sg83
g4615
sg76
(lp4676
g69
(g90
g71
NtRp4677
(dp4678
g74
(dp4679
sg83
g4673
sg76
(lp4680
g69
(g70
g71
NtRp4681
(dp4682
g74
(dp4683
g82
I2
ssg83
g4677
sg76
(lp4684
g69
(g78
g71
NtRp4685
(dp4686
g74
(dp4687
g82
I1
ssg83
Nsg76
(lp4688
g69
(g85
g71
NtRp4689
(dp4690
g74
(dp4691
sg83
g4685
sg76
(lp4692
g69
(g90
g71
NtRp4693
(dp4694
g74
(dp4695
sg83
g4689
sg76
(lp4696
g69
(g70
g71
NtRp4697
(dp4698
g74
(dp4699
g82
I1
ssg83
g4693
sg76
(lp4700
g4500
(S's\x08\x00\x00\x00This App'
tRp4701
asbasbasbag69
(g85
g71
NtRp4702
(dp4703
g74
(dp4704
sg83
g4685
sg76
(lp4705
g69
(g90
g71
NtRp4706
(dp4707
g74
(dp4708
sg83
g4702
sg76
(lp4709
g69
(g70
g71
NtRp4710
(dp4711
g74
(dp4712
g82
I1
ssg83
g4706
sg76
(lp4713
I00
asbasbasbag69
(g85
g71
NtRp4714
(dp4715
g74
(dp4716
sg83
g4685
sg76
(lp4717
g69
(g90
g71
NtRp4718
(dp4719
g74
(dp4720
sg83
g4714
sg76
(lp4721
g69
(g70
g71
NtRp4722
(dp4723
g74
(dp4724
g82
I1
ssg83
g4718
sg76
(lp4725
S'/admin/default/design/MyApp'
p4726
asbasbasbag69
(g85
g71
NtRp4727
(dp4728
g74
(dp4729
sg83
g4685
sg76
(lp4730
g69
(g90
g71
NtRp4731
(dp4732
g74
(dp4733
sg83
g4727
sg76
(lp4734
g69
(g70
g71
NtRp4735
(dp4736
g74
(dp4737
g82
I1
ssg83
g4731
sg76
(lp4738
(lp4739
(g4500
(S's\n\x00\x00\x00Controller'
tRp4740
I00
S'/admin/default/edit/MyApp/controllers/default.py'
tp4741
a(g4500
(S's\x04\x00\x00\x00View'
tRp4742
I00
S'/admin/default/edit/MyApp/views/default/update_tut.html'
tp4743
a(g4500
(S's\x06\x00\x00\x00Layout'
tRp4744
I00
S'/admin/default/edit/MyApp/views/layout.html'
tp4745
a(g4500
(S's\n\x00\x00\x00Stylesheet'
tRp4746
I00
S'/admin/default/edit/MyApp/static/css/web2py.css'
tp4747
a(g4500
(S's\x08\x00\x00\x00DB Model'
tRp4748
I00
S'/admin/default/edit/MyApp/models/db.py'
tp4749
a(g4500
(S's\n\x00\x00\x00Menu Model'
tRp4750
I00
S'/admin/default/edit/MyApp/models/menu.py'
tp4751
a(g4500
(S's\x08\x00\x00\x00Database'
tRp4752
I00
S'/MyApp/appadmin/index'
tp4753
a(g4500
(S's\x06\x00\x00\x00Errors'
tRp4754
I00
S'/admin/default/errors/MyApp'
tp4755
a(g4500
(S's\x05\x00\x00\x00About'
tRp4756
I00
S'/admin/default/about/MyApp'
tp4757
aasbasbasbasbasbasbasbag69
(g85
g71
NtRp4758
(dp4759
g74
(dp4760
sg83
g4615
sg76
(lp4761
g69
(g90
g71
NtRp4762
(dp4763
g74
(dp4764
sg83
g4758
sg76
(lp4765
g69
(g70
g71
NtRp4766
(dp4767
g74
(dp4768
g82
I2
ssg83
g4762
sg76
(lp4769
g69
(g78
g71
NtRp4770
(dp4771
g74
(dp4772
g82
I1
ssg83
Nsg76
(lp4773
g69
(g85
g71
NtRp4774
(dp4775
g74
(dp4776
sg83
g4770
sg76
(lp4777
g69
(g90
g71
NtRp4778
(dp4779
g74
(dp4780
sg83
g4774
sg76
(lp4781
g69
(g70
g71
NtRp4782
(dp4783
g74
(dp4784
g82
I1
ssg83
g4778
sg76
(lp4785
S'web2py.com'
p4786
asbasbasbag69
(g85
g71
NtRp4787
(dp4788
g74
(dp4789
sg83
g4770
sg76
(lp4790
g69
(g90
g71
NtRp4791
(dp4792
g74
(dp4793
sg83
g4787
sg76
(lp4794
g69
(g70
g71
NtRp4795
(dp4796
g74
(dp4797
g82
I1
ssg83
g4791
sg76
(lp4798
I00
asbasbasbag69
(g85
g71
NtRp4799
(dp4800
g74
(dp4801
sg83
g4770
sg76
(lp4802
g69
(g90
g71
NtRp4803
(dp4804
g74
(dp4805
sg83
g4799
sg76
(lp4806
g69
(g70
g71
NtRp4807
(dp4808
g74
(dp4809
g82
I1
ssg83
g4803
sg76
(lp4810
S'http://www.web2py.com'
p4811
asbasbasbag69
(g85
g71
NtRp4812
(dp4813
g74
(dp4814
sg83
g4770
sg76
(lp4815
g69
(g90
g71
NtRp4816
(dp4817
g74
(dp4818
sg83
g4812
sg76
(lp4819
g69
(g70
g71
NtRp4820
(dp4821
g74
(dp4822
g82
I1
ssg83
g4816
sg76
(lp4823
(lp4824
(g4500
(S's\x08\x00\x00\x00Download'
tRp4825
I00
S'http://www.web2py.com/examples/default/download'
p4826
tp4827
a(g4500
(S's\x07\x00\x00\x00Support'
tRp4828
I00
S'http://www.web2py.com/examples/default/support'
p4829
tp4830
a(g4500
(S's\x04\x00\x00\x00Demo'
tRp4831
I00
S'http://web2py.com/demo_admin'
p4832
tp4833
a(g4500
(S's\x0e\x00\x00\x00Quick Examples'
tRp4834
I00
S'http://web2py.com/examples/default/examples'
p4835
tp4836
a(g4500
(S's\x03\x00\x00\x00FAQ'
tRp4837
I00
S'http://web2py.com/AlterEgo'
p4838
tp4839
a(g4500
(S's\x06\x00\x00\x00Videos'
tRp4840
I00
S'http://www.web2py.com/examples/default/videos/'
p4841
tp4842
a(g4500
(S's\x11\x00\x00\x00Free Applications'
tRp4843
I00
S'http://web2py.com/appliances'
p4844
tp4845
a(g4500
(S's\x07\x00\x00\x00Plugins'
tRp4846
I00
S'http://web2py.com/plugins'
p4847
tp4848
a(g4500
(S's\x07\x00\x00\x00Layouts'
tRp4849
I00
S'http://web2py.com/layouts'
p4850
tp4851
a(g4500
(S's\x07\x00\x00\x00Recipes'
tRp4852
I00
S'http://web2pyslices.com/'
p4853
tp4854
a(g4500
(S's\x08\x00\x00\x00Semantic'
tRp4855
I00
S'http://web2py.com/semantic'
p4856
tp4857
aasbasbasbasbasbasbasbag69
(g85
g71
NtRp4858
(dp4859
g74
(dp4860
sg83
g4615
sg76
(lp4861
g69
(g90
g71
NtRp4862
(dp4863
g74
(dp4864
sg83
g4858
sg76
(lp4865
g69
(g70
g71
NtRp4866
(dp4867
g74
(dp4868
g82
I2
ssg83
g4862
sg76
(lp4869
g69
(g78
g71
NtRp4870
(dp4871
g74
(dp4872
g82
I1
ssg83
Nsg76
(lp4873
g69
(g85
g71
NtRp4874
(dp4875
g74
(dp4876
sg83
g4870
sg76
(lp4877
g69
(g90
g71
NtRp4878
(dp4879
g74
(dp4880
sg83
g4874
sg76
(lp4881
g69
(g70
g71
NtRp4882
(dp4883
g74
(dp4884
g82
I1
ssg83
g4878
sg76
(lp4885
g4500
(S's\r\x00\x00\x00Documentation'
tRp4886
asbasbasbag69
(g85
g71
NtRp4887
(dp4888
g74
(dp4889
sg83
g4870
sg76
(lp4890
g69
(g90
g71
NtRp4891
(dp4892
g74
(dp4893
sg83
g4887
sg76
(lp4894
g69
(g70
g71
NtRp4895
(dp4896
g74
(dp4897
g82
I1
ssg83
g4891
sg76
(lp4898
I00
asbasbasbag69
(g85
g71
NtRp4899
(dp4900
g74
(dp4901
sg83
g4870
sg76
(lp4902
g69
(g90
g71
NtRp4903
(dp4904
g74
(dp4905
sg83
g4899
sg76
(lp4906
g69
(g70
g71
NtRp4907
(dp4908
g74
(dp4909
g82
I1
ssg83
g4903
sg76
(lp4910
S'http://www.web2py.com/book'
p4911
asbasbasbag69
(g85
g71
NtRp4912
(dp4913
g74
(dp4914
sg83
g4870
sg76
(lp4915
g69
(g90
g71
NtRp4916
(dp4917
g74
(dp4918
sg83
g4912
sg76
(lp4919
g69
(g70
g71
NtRp4920
(dp4921
g74
(dp4922
g82
I1
ssg83
g4916
sg76
(lp4923
(lp4924
(g4500
(S's\x07\x00\x00\x00Preface'
tRp4925
I00
S'http://www.web2py.com/book/default/chapter/00'
p4926
tp4927
a(g4500
(S's\x0c\x00\x00\x00Introduction'
tRp4928
I00
S'http://www.web2py.com/book/default/chapter/01'
p4929
tp4930
a(g4500
(S's\x06\x00\x00\x00Python'
tRp4931
I00
S'http://www.web2py.com/book/default/chapter/02'
p4932
tp4933
a(g4500
(S's\x08\x00\x00\x00Overview'
tRp4934
I00
S'http://www.web2py.com/book/default/chapter/03'
p4935
tp4936
a(g4500
(S's\x08\x00\x00\x00The Core'
tRp4937
I00
S'http://www.web2py.com/book/default/chapter/04'
p4938
tp4939
a(g4500
(S's\t\x00\x00\x00The Views'
tRp4940
I00
S'http://www.web2py.com/book/default/chapter/05'
p4941
tp4942
a(g4500
(S's\x08\x00\x00\x00Database'
tRp4943
I00
S'http://www.web2py.com/book/default/chapter/06'
p4944
tp4945
a(g4500
(S's\x14\x00\x00\x00Forms and Validators'
tRp4946
I00
S'http://www.web2py.com/book/default/chapter/07'
p4947
tp4948
a(g4500
(S's\r\x00\x00\x00Email and SMS'
tRp4949
I00
S'http://www.web2py.com/book/default/chapter/08'
p4950
tp4951
a(g4500
(S's\x0e\x00\x00\x00Access Control'
tRp4952
I00
S'http://www.web2py.com/book/default/chapter/09'
p4953
tp4954
a(g4500
(S's\x08\x00\x00\x00Services'
tRp4955
I00
S'http://www.web2py.com/book/default/chapter/10'
p4956
tp4957
a(g4500
(S's\x0c\x00\x00\x00Ajax Recipes'
tRp4958
I00
S'http://www.web2py.com/book/default/chapter/11'
p4959
tp4960
a(g4500
(S's\x16\x00\x00\x00Components and Plugins'
tRp4961
I00
S'http://www.web2py.com/book/default/chapter/12'
p4962
tp4963
a(g4500
(S's\x12\x00\x00\x00Deployment Recipes'
tRp4964
I00
S'http://www.web2py.com/book/default/chapter/13'
p4965
tp4966
a(g4500
(S's\r\x00\x00\x00Other Recipes'
tRp4967
I00
S'http://www.web2py.com/book/default/chapter/14'
p4968
tp4969
a(g4500
(S's\r\x00\x00\x00Buy this book'
tRp4970
I00
S'http://stores.lulu.com/web2py'
p4971
tp4972
aasbasbasbasbasbasbasbag69
(g85
g71
NtRp4973
(dp4974
g74
(dp4975
sg83
g4615
sg76
(lp4976
g69
(g90
g71
NtRp4977
(dp4978
g74
(dp4979
sg83
g4973
sg76
(lp4980
g69
(g70
g71
NtRp4981
(dp4982
g74
(dp4983
g82
I2
ssg83
g4977
sg76
(lp4984
g69
(g78
g71
NtRp4985
(dp4986
g74
(dp4987
g82
I1
ssg83
Nsg76
(lp4988
g69
(g85
g71
NtRp4989
(dp4990
g74
(dp4991
sg83
g4985
sg76
(lp4992
g69
(g90
g71
NtRp4993
(dp4994
g74
(dp4995
sg83
g4989
sg76
(lp4996
g69
(g70
g71
NtRp4997
(dp4998
g74
(dp4999
g82
I1
ssg83
g4993
sg76
(lp5000
g4500
(S's\t\x00\x00\x00Community'
tRp5001
asbasbasbag69
(g85
g71
NtRp5002
(dp5003
g74
(dp5004
sg83
g4985
sg76
(lp5005
g69
(g90
g71
NtRp5006
(dp5007
g74
(dp5008
sg83
g5002
sg76
(lp5009
g69
(g70
g71
NtRp5010
(dp5011
g74
(dp5012
g82
I1
ssg83
g5006
sg76
(lp5013
I00
asbasbasbag69
(g85
g71
NtRp5014
(dp5015
g74
(dp5016
sg83
g4985
sg76
(lp5017
g69
(g90
g71
NtRp5018
(dp5019
g74
(dp5020
sg83
g5014
sg76
(lp5021
g69
(g70
g71
NtRp5022
(dp5023
g74
(dp5024
g82
I1
ssg83
g5018
sg76
(lp5025
Nasbasbasbag69
(g85
g71
NtRp5026
(dp5027
g74
(dp5028
sg83
g4985
sg76
(lp5029
g69
(g90
g71
NtRp5030
(dp5031
g74
(dp5032
sg83
g5026
sg76
(lp5033
g69
(g70
g71
NtRp5034
(dp5035
g74
(dp5036
g82
I1
ssg83
g5030
sg76
(lp5037
(lp5038
(g4500
(S's\x06\x00\x00\x00Groups'
tRp5039
I00
S'http://www.web2py.com/examples/default/usergroups'
p5040
tp5041
a(g4500
(S's\x07\x00\x00\x00Twitter'
tRp5042
I00
S'http://twitter.com/web2py'
p5043
tp5044
a(g4500
(S's\t\x00\x00\x00Live Chat'
tRp5045
I00
S'http://webchat.freenode.net/?channels=web2py'
p5046
tp5047
aasbasbasbasbasbasbasbag69
(g85
g71
NtRp5048
(dp5049
g74
(dp5050
sg83
g4615
sg76
(lp5051
g69
(g90
g71
NtRp5052
(dp5053
g74
(dp5054
sg83
g5048
sg76
(lp5055
g69
(g70
g71
NtRp5056
(dp5057
g74
(dp5058
g82
I2
ssg83
g5052
sg76
(lp5059
g69
(g78
g71
NtRp5060
(dp5061
g74
(dp5062
g82
I1
ssg83
Nsg76
(lp5063
g69
(g85
g71
NtRp5064
(dp5065
g74
(dp5066
sg83
g5060
sg76
(lp5067
g69
(g90
g71
NtRp5068
(dp5069
g74
(dp5070
sg83
g5064
sg76
(lp5071
g69
(g70
g71
NtRp5072
(dp5073
g74
(dp5074
g82
I1
ssg83
g5068
sg76
(lp5075
g4500
(S's\x07\x00\x00\x00Plugins'
tRp5076
asbasbasbag69
(g85
g71
NtRp5077
(dp5078
g74
(dp5079
sg83
g5060
sg76
(lp5080
g69
(g90
g71
NtRp5081
(dp5082
g74
(dp5083
sg83
g5077
sg76
(lp5084
g69
(g70
g71
NtRp5085
(dp5086
g74
(dp5087
g82
I1
ssg83
g5081
sg76
(lp5088
I00
asbasbasbag69
(g85
g71
NtRp5089
(dp5090
g74
(dp5091
sg83
g5060
sg76
(lp5092
g69
(g90
g71
NtRp5093
(dp5094
g74
(dp5095
sg83
g5089
sg76
(lp5096
g69
(g70
g71
NtRp5097
(dp5098
g74
(dp5099
g82
I1
ssg83
g5093
sg76
(lp5100
Nasbasbasbag69
(g85
g71
NtRp5101
(dp5102
g74
(dp5103
sg83
g5060
sg76
(lp5104
g69
(g90
g71
NtRp5105
(dp5106
g74
(dp5107
sg83
g5101
sg76
(lp5108
g69
(g70
g71
NtRp5109
(dp5110
g74
(dp5111
g82
I1
ssg83
g5105
sg76
(lp5112
(lp5113
(S'plugin_wiki'
p5114
I00
S'http://web2py.com/examples/default/download'
p5115
tp5116
a(g4500
(S's\r\x00\x00\x00Other Plugins'
tRp5117
I00
g4847
tp5118
a(g4500
(S's\x0e\x00\x00\x00Layout Plugins'
tRp5119
I00
g4850
tp5120
aasbasbasbasbasbasbasbasbasbasbasbasbasbasbasbasbasbasbasbag69
(g85
g71
NtRp5121
(dp5122
g74
(dp5123
sg83
g4010
sg76
(lp5124
g69
(g90
g71
NtRp5125
(dp5126
g74
(dp5127
g94
g95
ssg83
g5121
sg76
(lp5128
S'meta'
p5129
asbag69
(g90
g71
NtRp5130
(dp5131
g74
(dp5132
g101
g102
ssg83
g5121
sg76
(lp5133
S':'
asbag69
(g90
g71
NtRp5134
(dp5135
g74
(dp5136
sg83
g5121
sg76
(lp5137
g69
(g70
g71
NtRp5138
(dp5139
g74
(dp5140
g82
I5
ssg83
g5134
sg76
(lp5141
g69
(g78
g71
NtRp5142
(dp5143
g74
(dp5144
g82
I4
ssg83
Nsg76
(lp5145
g69
(g85
g71
NtRp5146
(dp5147
g74
(dp5148
sg83
g5142
sg76
(lp5149
g69
(g90
g71
NtRp5150
(dp5151
g74
(dp5152
g94
g95
ssg83
g5146
sg76
(lp5153
S'author'
p5154
asbag69
(g90
g71
NtRp5155
(dp5156
g74
(dp5157
g101
g102
ssg83
g5146
sg76
(lp5158
S':'
asbag69
(g90
g71
NtRp5159
(dp5160
g74
(dp5161
sg83
g5146
sg76
(lp5162
g69
(g70
g71
NtRp5163
(dp5164
g74
(dp5165
g82
I4
ssg83
g5159
sg76
(lp5166
S'Your Name <you@example.com>'
p5167
asbasbasbag69
(g85
g71
NtRp5168
(dp5169
g74
(dp5170
sg83
g5142
sg76
(lp5171
g69
(g90
g71
NtRp5172
(dp5173
g74
(dp5174
g94
g95
ssg83
g5168
sg76
(lp5175
S'description'
p5176
asbag69
(g90
g71
NtRp5177
(dp5178
g74
(dp5179
g101
g102
ssg83
g5168
sg76
(lp5180
S':'
asbag69
(g90
g71
NtRp5181
(dp5182
g74
(dp5183
sg83
g5168
sg76
(lp5184
g69
(g70
g71
NtRp5185
(dp5186
g74
(dp5187
g82
I4
ssg83
g5181
sg76
(lp5188
S'a cool new app'
p5189
asbasbasbag69
(g85
g71
NtRp5190
(dp5191
g74
(dp5192
sg83
g5142
sg76
(lp5193
g69
(g90
g71
NtRp5194
(dp5195
g74
(dp5196
g94
g95
ssg83
g5190
sg76
(lp5197
S'generator'
p5198
asbag69
(g90
g71
NtRp5199
(dp5200
g74
(dp5201
g101
g102
ssg83
g5190
sg76
(lp5202
S':'
asbag69
(g90
g71
NtRp5203
(dp5204
g74
(dp5205
sg83
g5190
sg76
(lp5206
g69
(g70
g71
NtRp5207
(dp5208
g74
(dp5209
g82
I4
ssg83
g5203
sg76
(lp5210
S'Web2py Web Framework'
p5211
asbasbasbag69
(g85
g71
NtRp5212
(dp5213
g74
(dp5214
sg83
g5142
sg76
(lp5215
g69
(g90
g71
NtRp5216
(dp5217
g74
(dp5218
g94
g95
ssg83
g5212
sg76
(lp5219
S'keywords'
p5220
asbag69
(g90
g71
NtRp5221
(dp5222
g74
(dp5223
g101
g102
ssg83
g5212
sg76
(lp5224
S':'
asbag69
(g90
g71
NtRp5225
(dp5226
g74
(dp5227
sg83
g5212
sg76
(lp5228
g69
(g70
g71
NtRp5229
(dp5230
g74
(dp5231
g82
I4
ssg83
g5225
sg76
(lp5232
S'web2py, python, framework'
p5233
asbasbasbasbasbasbasbag69
(g85
g71
NtRp5234
(dp5235
g74
(dp5236
sg83
g4010
sg76
(lp5237
g69
(g90
g71
NtRp5238
(dp5239
g74
(dp5240
g94
g95
ssg83
g5234
sg76
(lp5241
S'models_to_run'
p5242
asbag69
(g90
g71
NtRp5243
(dp5244
g74
(dp5245
g101
g102
ssg83
g5234
sg76
(lp5246
S':'
asbag69
(g90
g71
NtRp5247
(dp5248
g74
(dp5249
sg83
g5234
sg76
(lp5250
g69
(g70
g71
NtRp5251
(dp5252
g74
(dp5253
g82
I5
ssg83
g5247
sg76
(lp5254
g69
(g78
g71
NtRp5255
(dp5256
g74
(dp5257
g82
I4
ssg83
Nsg76
(lp5258
g69
(g85
g71
NtRp5259
(dp5260
g74
(dp5261
sg83
g5255
sg76
(lp5262
g69
(g90
g71
NtRp5263
(dp5264
g74
(dp5265
sg83
g5259
sg76
(lp5266
g69
(g70
g71
NtRp5267
(dp5268
g74
(dp5269
g82
I4
ssg83
g5263
sg76
(lp5270
S'^\\w+\\.py$'
p5271
asbasbasbag69
(g85
g71
NtRp5272
(dp5273
g74
(dp5274
sg83
g5255
sg76
(lp5275
g69
(g90
g71
NtRp5276
(dp5277
g74
(dp5278
sg83
g5272
sg76
(lp5279
g69
(g70
g71
NtRp5280
(dp5281
g74
(dp5282
g82
I4
ssg83
g5276
sg76
(lp5283
S'^default/\\w+\\.py$'
p5284
asbasbasbag69
(g85
g71
NtRp5285
(dp5286
g74
(dp5287
sg83
g5255
sg76
(lp5288
g69
(g90
g71
NtRp5289
(dp5290
g74
(dp5291
sg83
g5285
sg76
(lp5292
g69
(g70
g71
NtRp5293
(dp5294
g74
(dp5295
g82
I4
ssg83
g5289
sg76
(lp5296
S'^default/update_tut/\\w+\\.py$'
p5297
asbasbasbasbasbasbasbag69
(g85
g71
NtRp5298
(dp5299
g74
(dp5300
sg83
g4010
sg76
(lp5301
g69
(g90
g71
NtRp5302
(dp5303
g74
(dp5304
g94
g95
ssg83
g5298
sg76
(lp5305
S'postprocessing'
p5306
asbag69
(g90
g71
NtRp5307
(dp5308
g74
(dp5309
g101
g102
ssg83
g5298
sg76
(lp5310
S':'
asbag69
(g90
g71
NtRp5311
(dp5312
g74
(dp5313
sg83
g5298
sg76
(lp5314
g69
(g70
g71
NtRp5315
(dp5316
g74
(dp5317
g82
I5
ssg83
g5311
sg76
(lp5318
g69
(g78
g71
NtRp5319
(dp5320
g74
(dp5321
g82
I4
ssg83
Nsg76
(lp5322
sbasbasbasbag69
(g85
g71
NtRp5323
(dp5324
g74
(dp5325
sg83
g4010
sg76
(lp5326
g69
(g90
g71
NtRp5327
(dp5328
g74
(dp5329
g94
g95
ssg83
g5323
sg76
(lp5330
S'session_cookie_expires'
p5331
asbag69
(g90
g71
NtRp5332
(dp5333
g74
(dp5334
g101
g102
ssg83
g5323
sg76
(lp5335
S':'
asbag69
(g90
g71
NtRp5336
(dp5337
g74
(dp5338
sg83
g5323
sg76
(lp5339
g69
(g70
g71
NtRp5340
(dp5341
g74
(dp5342
g82
I5
ssg83
g5336
sg76
(lp5343
S'None'
p5344
asbasbasbag69
(g85
g71
NtRp5345
(dp5346
g74
(dp5347
sg83
g4010
sg76
(lp5348
g69
(g90
g71
NtRp5349
(dp5350
g74
(dp5351
g94
g95
ssg83
g5345
sg76
(lp5352
S'session_data_name'
p5353
asbag69
(g90
g71
NtRp5354
(dp5355
g74
(dp5356
g101
g102
ssg83
g5345
sg76
(lp5357
S':'
asbag69
(g90
g71
NtRp5358
(dp5359
g74
(dp5360
sg83
g5345
sg76
(lp5361
g69
(g70
g71
NtRp5362
(dp5363
g74
(dp5364
g82
I5
ssg83
g5358
sg76
(lp5365
S'session_data_myapp'
p5366
asbasbasbag69
(g85
g71
NtRp5367
(dp5368
g74
(dp5369
sg83
g4010
sg76
(lp5370
g69
(g90
g71
NtRp5371
(dp5372
g74
(dp5373
g94
g95
ssg83
g5367
sg76
(lp5374
S'session_file'
p5375
asbag69
(g90
g71
NtRp5376
(dp5377
g74
(dp5378
g101
g102
ssg83
g5367
sg76
(lp5379
S':'
asbag69
(g90
g71
NtRp5380
(dp5381
g74
(dp5382
sg83
g5367
sg76
(lp5383
g69
(g70
g71
NtRp5384
(dp5385
g74
(dp5386
g82
I5
ssg83
g5380
sg76
(lp5387
S"<open file '/Users/keshav/Desktop/web2py/applications/MyApp/sessions/127.0.0.1-c29873db-dcbb-4e1b-a3b4-5e8b27d0f857', mode 'rb+' at 0x118290d78>"
p5388
asbasbasbag69
(g85
g71
NtRp5389
(dp5390
g74
(dp5391
sg83
g4010
sg76
(lp5392
g69
(g90
g71
NtRp5393
(dp5394
g74
(dp5395
g94
g95
ssg83
g5389
sg76
(lp5396
S'session_filename'
p5397
asbag69
(g90
g71
NtRp5398
(dp5399
g74
(dp5400
g101
g102
ssg83
g5389
sg76
(lp5401
S':'
asbag69
(g90
g71
NtRp5402
(dp5403
g74
(dp5404
sg83
g5389
sg76
(lp5405
g69
(g70
g71
NtRp5406
(dp5407
g74
(dp5408
g82
I5
ssg83
g5402
sg76
(lp5409
S'/Users/keshav/Desktop/web2py/applications/MyApp/sessions/127.0.0.1-c29873db-dcbb-4e1b-a3b4-5e8b27d0f857'
p5410
asbasbasbag69
(g85
g71
NtRp5411
(dp5412
g74
(dp5413
sg83
g4010
sg76
(lp5414
g69
(g90
g71
NtRp5415
(dp5416
g74
(dp5417
g94
g95
ssg83
g5411
sg76
(lp5418
S'session_id'
p5419
asbag69
(g90
g71
NtRp5420
(dp5421
g74
(dp5422
g101
g102
ssg83
g5411
sg76
(lp5423
S':'
asbag69
(g90
g71
NtRp5424
(dp5425
g74
(dp5426
sg83
g5411
sg76
(lp5427
g69
(g70
g71
NtRp5428
(dp5429
g74
(dp5430
g82
I5
ssg83
g5424
sg76
(lp5431
g487
asbasbasbag69
(g85
g71
NtRp5432
(dp5433
g74
(dp5434
sg83
g4010
sg76
(lp5435
g69
(g90
g71
NtRp5436
(dp5437
g74
(dp5438
g94
g95
ssg83
g5432
sg76
(lp5439
S'session_id_name'
p5440
asbag69
(g90
g71
NtRp5441
(dp5442
g74
(dp5443
g101
g102
ssg83
g5432
sg76
(lp5444
S':'
asbag69
(g90
g71
NtRp5445
(dp5446
g74
(dp5447
sg83
g5432
sg76
(lp5448
g69
(g70
g71
NtRp5449
(dp5450
g74
(dp5451
g82
I5
ssg83
g5445
sg76
(lp5452
g4067
asbasbasbag69
(g85
g71
NtRp5453
(dp5454
g74
(dp5455
sg83
g4010
sg76
(lp5456
g69
(g90
g71
NtRp5457
(dp5458
g74
(dp5459
g94
g95
ssg83
g5453
sg76
(lp5460
S'session_locked'
p5461
asbag69
(g90
g71
NtRp5462
(dp5463
g74
(dp5464
g101
g102
ssg83
g5453
sg76
(lp5465
S':'
asbag69
(g90
g71
NtRp5466
(dp5467
g74
(dp5468
sg83
g5453
sg76
(lp5469
g69
(g70
g71
NtRp5470
(dp5471
g74
(dp5472
g82
I5
ssg83
g5466
sg76
(lp5473
g1887
asbasbasbag69
(g85
g71
NtRp5474
(dp5475
g74
(dp5476
sg83
g4010
sg76
(lp5477
g69
(g90
g71
NtRp5478
(dp5479
g74
(dp5480
g94
g95
ssg83
g5474
sg76
(lp5481
S'session_new'
p5482
asbag69
(g90
g71
NtRp5483
(dp5484
g74
(dp5485
g101
g102
ssg83
g5474
sg76
(lp5486
S':'
asbag69
(g90
g71
NtRp5487
(dp5488
g74
(dp5489
sg83
g5474
sg76
(lp5490
g69
(g70
g71
NtRp5491
(dp5492
g74
(dp5493
g82
I5
ssg83
g5487
sg76
(lp5494
g112
asbasbasbag69
(g85
g71
NtRp5495
(dp5496
g74
(dp5497
sg83
g4010
sg76
(lp5498
g69
(g90
g71
NtRp5499
(dp5500
g74
(dp5501
g94
g95
ssg83
g5495
sg76
(lp5502
S'session_storage_type'
p5503
asbag69
(g90
g71
NtRp5504
(dp5505
g74
(dp5506
g101
g102
ssg83
g5495
sg76
(lp5507
S':'
asbag69
(g90
g71
NtRp5508
(dp5509
g74
(dp5510
sg83
g5495
sg76
(lp5511
g69
(g70
g71
NtRp5512
(dp5513
g74
(dp5514
g82
I5
ssg83
g5508
sg76
(lp5515
g3464
asbasbasbag69
(g85
g71
NtRp5516
(dp5517
g74
(dp5518
sg83
g4010
sg76
(lp5519
g69
(g90
g71
NtRp5520
(dp5521
g74
(dp5522
g94
g95
ssg83
g5516
sg76
(lp5523
S'status'
p5524
asbag69
(g90
g71
NtRp5525
(dp5526
g74
(dp5527
g101
g102
ssg83
g5516
sg76
(lp5528
S':'
asbag69
(g90
g71
NtRp5529
(dp5530
g74
(dp5531
sg83
g5516
sg76
(lp5532
g69
(g70
g71
NtRp5533
(dp5534
g74
(dp5535
g82
I5
ssg83
g5529
sg76
(lp5536
S'200'
p5537
asbasbasbag69
(g85
g71
NtRp5538
(dp5539
g74
(dp5540
sg83
g4010
sg76
(lp5541
g69
(g90
g71
NtRp5542
(dp5543
g74
(dp5544
g94
g95
ssg83
g5538
sg76
(lp5545
S'subtitle'
p5546
asbag69
(g90
g71
NtRp5547
(dp5548
g74
(dp5549
g101
g102
ssg83
g5538
sg76
(lp5550
S':'
asbag69
(g90
g71
NtRp5551
(dp5552
g74
(dp5553
sg83
g5538
sg76
(lp5554
g69
(g70
g71
NtRp5555
(dp5556
g74
(dp5557
g82
I5
ssg83
g5551
sg76
(lp5558
g4500
(S's\r\x00\x00\x00customize me!'
tRp5559
asbasbasbag69
(g85
g71
NtRp5560
(dp5561
g74
(dp5562
sg83
g4010
sg76
(lp5563
g69
(g90
g71
NtRp5564
(dp5565
g74
(dp5566
g94
g95
ssg83
g5560
sg76
(lp5567
S'title'
p5568
asbag69
(g90
g71
NtRp5569
(dp5570
g74
(dp5571
g101
g102
ssg83
g5560
sg76
(lp5572
S':'
asbag69
(g90
g71
NtRp5573
(dp5574
g74
(dp5575
sg83
g5560
sg76
(lp5576
g69
(g70
g71
NtRp5577
(dp5578
g74
(dp5579
g82
I5
ssg83
g5573
sg76
(lp5580
S'Myapp'
p5581
asbasbasbag69
(g85
g71
NtRp5582
(dp5583
g74
(dp5584
sg83
g4010
sg76
(lp5585
g69
(g90
g71
NtRp5586
(dp5587
g74
(dp5588
g94
g95
ssg83
g5582
sg76
(lp5589
S'view'
p5590
asbag69
(g90
g71
NtRp5591
(dp5592
g74
(dp5593
g101
g102
ssg83
g5582
sg76
(lp5594
S':'
asbag69
(g90
g71
NtRp5595
(dp5596
g74
(dp5597
sg83
g5582
sg76
(lp5598
g69
(g70
g71
NtRp5599
(dp5600
g74
(dp5601
g82
I5
ssg83
g5595
sg76
(lp5602
S'default/update_tut.html'
p5603
asbasbasbasbasbsS'locals'
p5604
(dp5605
S'name'
p5606
S"'level'"
p5607
sS'fields'
p5608
S"{'id': 2, 'level': 5}"
p5609
sS'self'
p5610
S'<Table auth_user (id,first_name,last_name,email,...stration_key,reset_password_key,registration_id)>'
p5611
sS'update'
p5612
g112
sS'value'
p5613
S'2'
sS'field'
p5614
S'<gluon.dal.Field object at 0x11875e110>'
p5615
sS'new_fields'
p5616
S"{'id': (<gluon.dal.Field object at 0x11875e110>, 2)}"
p5617
sssS'traceback'
p5618
S'Traceback (most recent call last):\n  File "/Users/keshav/Desktop/web2py/gluon/restricted.py", line 212, in restricted\n    exec ccode in environment\n  File "/Users/keshav/Desktop/web2py/applications/MyApp/controllers/default.py", line 121, in <module>\n  File "/Users/keshav/Desktop/web2py/gluon/globals.py", line 188, in <lambda>\n    self._caller = lambda f: f()\n  File "/Users/keshav/Desktop/web2py/applications/MyApp/controllers/default.py", line 113, in update_tut\n    db.auth_user.insert(id=2,level=5)\n  File "/Users/keshav/Desktop/web2py/gluon/dal.py", line 7806, in insert\n    ret =  self._db._adapter.insert(self,self._listify(fields))\n  File "/Users/keshav/Desktop/web2py/gluon/dal.py", line 7744, in _listify\n    \'Field %s does not belong to the table\' % name\nSyntaxError: Field level does not belong to the table\n'
p5619
s.