(dp1
S'output'
p2
S"<type 'exceptions.IndentationError'> unindent does not match any outer indentation level (default.py, line 97)"
p3
sS'layer'
p4
S'/Users/keshav/Desktop/web2py/applications/MyApp/controllers/default.py'
p5
sS'code'
p6
S'# -*- coding: utf-8 -*-\n# this file is released under public domain and you can use without limitations\n\n#########################################################################\n## This is a samples controller\n## - index is the default action of any application\n## - user is required for authentication and authorization\n## - download is for downloading files uploaded in the db (does streaming)\n## - call exposes all registered services (none by default)\n#########################################################################\nimport StringIO, sys\nfrom contextlib import contextmanager\nfrom code import InteractiveConsole\n\n\n\n\ndef index():\n    """\n    example action using the internationalization operator T and flash\n    rendered by views/default/index.html or views/generic.html\n\n    if you need a simple wiki simple replace the two lines below with:\n    return auth.wiki()\n    """\n    #response.flash = T("Welcome to web2py!")\n    return dict(message=T(\'Hello World\'))\n    #return "Hello World"\n    #return dict(message=\'Hello World\',message1=\'Hello World again!!\')\n\n\ndef user():\n    """\n    exposes:\n    http://..../[app]/default/user/login\n    http://..../[app]/default/user/logout\n    http://..../[app]/default/user/register\n    http://..../[app]/default/user/profile\n    http://..../[app]/default/user/retrieve_password\n    http://..../[app]/default/user/change_password\n    use @auth.requires_login()\n        @auth.requires_membership(\'group name\')\n        @auth.requires_permission(\'read\',\'table name\',record_id)\n    to decorate functions that need access control\n    """\n    return dict(form=auth())\n\n\ndef download():\n    """\n    allows downloading of uploaded files\n    http://..../[app]/default/download/[filename]\n    """\n    return response.download(request, db)\n\n\ndef call():\n    """\n    exposes services. for example:\n    http://..../[app]/default/call/jsonrpc\n    decorate with @services.jsonrpc the functions to expose\n    supports xml, json, xmlrpc, jsonrpc, amfrpc, rss, csv\n    """\n    return service()\n\n\n@auth.requires_signature()\ndef data():\n    """\n    http://..../[app]/default/data/tables\n    http://..../[app]/default/data/create/[table]\n    http://..../[app]/default/data/read/[table]/[id]\n    http://..../[app]/default/data/update/[table]/[id]\n    http://..../[app]/default/data/delete/[table]/[id]\n    http://..../[app]/default/data/select/[table]\n    http://..../[app]/default/data/search/[table]\n    but URLs must be signed, i.e. linked with\n      A(\'table\',_href=URL(\'data/tables\',user_signature=True))\n    or with the signed load operator\n      LOAD(\'default\',\'data.load\',args=\'tables\',ajax=True,user_signature=True)\n    """\n    return dict(form=crud())\n\n\ndef echo():\n    return request.vars[\'name\']\n\n@contextmanager\ndef redirected(out=sys.stdout, err=sys.stderr):\n\t    saved = sys.stdout, sys.stderr\n\t    sys.stdout, sys.stderr = out, err\n\t    try:\n\t        yield\n\t    finally:\n\t        sys.stdout, sys.stderr = saved\n\n runner = InteractiveConsole()\ndef fun():\t\t\n\t   \n\t    out = StringIO.StringIO()\n\t    err = StringIO.StringIO()\n\t    with redirected(out=out, err=err):\n\t            code = request.vars[\'name\']\n\t            code.rstrip(\'\\n\')\n\t            runner.push(code)\n\t            output = out.getvalue()\n\t            error = err.getvalue()\n\t            return output+error\n\n\t\t\nresponse._vars=response._caller(index)\n'
p7
sS'snapshot'
p8
(dp9
S'exception'
p10
(dp11
S'__getslice__'
p12
S"<method-wrapper '__getslice__' of exceptions.IndentationError object at 0x1013d9b18>"
p13
sS'text'
p14
S"' runner = InteractiveConsole()\\n'"
p15
sS'__str__'
p16
S"<method-wrapper '__str__' of exceptions.IndentationError object at 0x1013d9b18>"
p17
sS'__reduce__'
p18
S'<built-in method __reduce__ of exceptions.IndentationError object at 0x1013d9b18>'
p19
sS'__dict__'
p20
S'{}'
p21
sS'__sizeof__'
p22
S'<built-in method __sizeof__ of exceptions.IndentationError object at 0x1013d9b18>'
p23
sS'__init__'
p24
S"<method-wrapper '__init__' of exceptions.IndentationError object at 0x1013d9b18>"
p25
sS'__setattr__'
p26
S"<method-wrapper '__setattr__' of exceptions.IndentationError object at 0x1013d9b18>"
p27
sS'__reduce_ex__'
p28
S'<built-in method __reduce_ex__ of exceptions.IndentationError object at 0x1013d9b18>'
p29
sS'__new__'
p30
S'<built-in method __new__ of type object at 0x10011bcc0>'
p31
sS'__format__'
p32
S'<built-in method __format__ of exceptions.IndentationError object at 0x1013d9b18>'
p33
sS'__class__'
p34
S"<type 'exceptions.IndentationError'>"
p35
sS'filename'
p36
S"'/Users/keshav/Desktop/web2py/applications/MyApp/controllers/default.py'"
p37
sS'lineno'
p38
S'97'
p39
sS'msg'
p40
S"'unindent does not match any outer indentation level'"
p41
sS'__doc__'
p42
S"'Improper indentation.'"
p43
sS'__getitem__'
p44
S"<method-wrapper '__getitem__' of exceptions.IndentationError object at 0x1013d9b18>"
p45
sS'__setstate__'
p46
S'<built-in method __setstate__ of exceptions.IndentationError object at 0x1013d9b18>'
p47
sS'__getattribute__'
p48
S"<method-wrapper '__getattribute__' of exceptions.IndentationError object at 0x1013d9b18>"
p49
sS'print_file_and_line'
p50
S'None'
p51
sS'args'
p52
S"('unindent does not match any outer indentation level', ('/Users/keshav/Desktop/web2py/applications/MyApp/controllers/default.py', 97, 31, ' runner = InteractiveConsole()\\n'))"
p53
sS'__subclasshook__'
p54
S'<built-in method __subclasshook__ of type object at 0x10011bcc0>'
p55
sS'offset'
p56
S'31'
p57
sS'__unicode__'
p58
S'<built-in method __unicode__ of exceptions.IndentationError object at 0x1013d9b18>'
p59
sS'__delattr__'
p60
S"<method-wrapper '__delattr__' of exceptions.IndentationError object at 0x1013d9b18>"
p61
sS'__repr__'
p62
S"<method-wrapper '__repr__' of exceptions.IndentationError object at 0x1013d9b18>"
p63
sS'__hash__'
p64
S"<method-wrapper '__hash__' of exceptions.IndentationError object at 0x1013d9b18>"
p65
ssS'evalue'
p66
S'unindent does not match any outer indentation level (default.py, line 97)'
p67
sS'request'
p68
ccopy_reg
_reconstructor
p69
(cgluon.html
BEAUTIFY
p70
c__builtin__
object
p71
NtRp72
(dp73
S'attributes'
p74
(dp75
sS'components'
p76
(lp77
g69
(cgluon.html
TABLE
p78
g71
NtRp79
(dp80
g74
(dp81
S'level'
p82
I5
ssS'parent'
p83
Nsg76
(lp84
g69
(cgluon.html
TR
p85
g71
NtRp86
(dp87
g74
(dp88
sg83
g79
sg76
(lp89
g69
(cgluon.html
TD
p90
g71
NtRp91
(dp92
g74
(dp93
S'_style'
p94
S'font-weight:bold;vertical-align:top'
p95
ssg83
g86
sg76
(lp96
S'ajax'
p97
asbag69
(g90
g71
NtRp98
(dp99
g74
(dp100
S'_valign'
p101
S'top'
p102
ssg83
g86
sg76
(lp103
S':'
asbag69
(g90
g71
NtRp104
(dp105
g74
(dp106
sg83
g86
sg76
(lp107
g69
(g70
g71
NtRp108
(dp109
g74
(dp110
g82
I5
ssg83
g104
sg76
(lp111
S'False'
p112
asbasbasbag69
(g85
g71
NtRp113
(dp114
g74
(dp115
sg83
g79
sg76
(lp116
g69
(g90
g71
NtRp117
(dp118
g74
(dp119
g94
g95
ssg83
g113
sg76
(lp120
S'application'
p121
asbag69
(g90
g71
NtRp122
(dp123
g74
(dp124
g101
g102
ssg83
g113
sg76
(lp125
S':'
asbag69
(g90
g71
NtRp126
(dp127
g74
(dp128
sg83
g113
sg76
(lp129
g69
(g70
g71
NtRp130
(dp131
g74
(dp132
g82
I5
ssg83
g126
sg76
(lp133
S'MyApp'
p134
asbasbasbag69
(g85
g71
NtRp135
(dp136
g74
(dp137
sg83
g79
sg76
(lp138
g69
(g90
g71
NtRp139
(dp140
g74
(dp141
g94
g95
ssg83
g135
sg76
(lp142
g52
asbag69
(g90
g71
NtRp143
(dp144
g74
(dp145
g101
g102
ssg83
g135
sg76
(lp146
S':'
asbag69
(g90
g71
NtRp147
(dp148
g74
(dp149
sg83
g135
sg76
(lp150
g69
(g70
g71
NtRp151
(dp152
g74
(dp153
g82
I5
ssg83
g147
sg76
(lp154
g69
(g78
g71
NtRp155
(dp156
g74
(dp157
g82
I4
ssg83
Nsg76
(lp158
sbasbasbasbag69
(g85
g71
NtRp159
(dp160
g74
(dp161
sg83
g79
sg76
(lp162
g69
(g90
g71
NtRp163
(dp164
g74
(dp165
g94
g95
ssg83
g159
sg76
(lp166
S'body'
p167
asbag69
(g90
g71
NtRp168
(dp169
g74
(dp170
g101
g102
ssg83
g159
sg76
(lp171
S':'
asbag69
(g90
g71
NtRp172
(dp173
g74
(dp174
sg83
g159
sg76
(lp175
g69
(g70
g71
NtRp176
(dp177
g74
(dp178
g82
I5
ssg83
g172
sg76
(lp179
S'<cStringIO.StringO object at 0x117feef48>'
p180
asbasbasbag69
(g85
g71
NtRp181
(dp182
g74
(dp183
sg83
g79
sg76
(lp184
g69
(g90
g71
NtRp185
(dp186
g74
(dp187
g94
g95
ssg83
g181
sg76
(lp188
S'cid'
p189
asbag69
(g90
g71
NtRp190
(dp191
g74
(dp192
g101
g102
ssg83
g181
sg76
(lp193
S':'
asbag69
(g90
g71
NtRp194
(dp195
g74
(dp196
sg83
g181
sg76
(lp197
g69
(g70
g71
NtRp198
(dp199
g74
(dp200
g82
I5
ssg83
g194
sg76
(lp201
S'None'
p202
asbasbasbag69
(g85
g71
NtRp203
(dp204
g74
(dp205
sg83
g79
sg76
(lp206
g69
(g90
g71
NtRp207
(dp208
g74
(dp209
g94
g95
ssg83
g203
sg76
(lp210
S'client'
p211
asbag69
(g90
g71
NtRp212
(dp213
g74
(dp214
g101
g102
ssg83
g203
sg76
(lp215
S':'
asbag69
(g90
g71
NtRp216
(dp217
g74
(dp218
sg83
g203
sg76
(lp219
g69
(g70
g71
NtRp220
(dp221
g74
(dp222
g82
I5
ssg83
g216
sg76
(lp223
S'127.0.0.1'
p224
asbasbasbag69
(g85
g71
NtRp225
(dp226
g74
(dp227
sg83
g79
sg76
(lp228
g69
(g90
g71
NtRp229
(dp230
g74
(dp231
g94
g95
ssg83
g225
sg76
(lp232
S'controller'
p233
asbag69
(g90
g71
NtRp234
(dp235
g74
(dp236
g101
g102
ssg83
g225
sg76
(lp237
S':'
asbag69
(g90
g71
NtRp238
(dp239
g74
(dp240
sg83
g225
sg76
(lp241
g69
(g70
g71
NtRp242
(dp243
g74
(dp244
g82
I5
ssg83
g238
sg76
(lp245
S'default'
p246
asbasbasbag69
(g85
g71
NtRp247
(dp248
g74
(dp249
sg83
g79
sg76
(lp250
g69
(g90
g71
NtRp251
(dp252
g74
(dp253
g94
g95
ssg83
g247
sg76
(lp254
S'cookies'
p255
asbag69
(g90
g71
NtRp256
(dp257
g74
(dp258
g101
g102
ssg83
g247
sg76
(lp259
S':'
asbag69
(g90
g71
NtRp260
(dp261
g74
(dp262
sg83
g247
sg76
(lp263
g69
(g70
g71
NtRp264
(dp265
g74
(dp266
g82
I5
ssg83
g260
sg76
(lp267
g69
(g78
g71
NtRp268
(dp269
g74
(dp270
g82
I4
ssg83
Nsg76
(lp271
g69
(g85
g71
NtRp272
(dp273
g74
(dp274
sg83
g268
sg76
(lp275
g69
(g90
g71
NtRp276
(dp277
g74
(dp278
g94
g95
ssg83
g272
sg76
(lp279
S'session_id_admin'
p280
asbag69
(g90
g71
NtRp281
(dp282
g74
(dp283
g101
g102
ssg83
g272
sg76
(lp284
S':'
asbag69
(g90
g71
NtRp285
(dp286
g74
(dp287
sg83
g272
sg76
(lp288
g69
(g70
g71
NtRp289
(dp290
g74
(dp291
g82
I4
ssg83
g285
sg76
(lp292
S'127.0.0.1-68799cf9-44c1-4d19-b76b-f626ae576484'
p293
ag69
(g78
g71
NtRp294
(dp295
g74
(dp296
g82
I3
ssg83
Nsg76
(lp297
g69
(g85
g71
NtRp298
(dp299
g74
(dp300
sg83
g294
sg76
(lp301
g69
(g90
g71
NtRp302
(dp303
g74
(dp304
g94
g95
ssg83
g298
sg76
(lp305
S'comment'
p306
asbag69
(g90
g71
NtRp307
(dp308
g74
(dp309
g101
g102
ssg83
g298
sg76
(lp310
S':'
asbag69
(g90
g71
NtRp311
(dp312
g74
(dp313
sg83
g298
sg76
(lp314
g69
(g70
g71
NtRp315
(dp316
g74
(dp317
g82
I3
ssg83
g311
sg76
(lp318
S''
asbasbasbag69
(g85
g71
NtRp319
(dp320
g74
(dp321
sg83
g294
sg76
(lp322
g69
(g90
g71
NtRp323
(dp324
g74
(dp325
g94
g95
ssg83
g319
sg76
(lp326
S'domain'
p327
asbag69
(g90
g71
NtRp328
(dp329
g74
(dp330
g101
g102
ssg83
g319
sg76
(lp331
S':'
asbag69
(g90
g71
NtRp332
(dp333
g74
(dp334
sg83
g319
sg76
(lp335
g69
(g70
g71
NtRp336
(dp337
g74
(dp338
g82
I3
ssg83
g332
sg76
(lp339
S''
asbasbasbag69
(g85
g71
NtRp340
(dp341
g74
(dp342
sg83
g294
sg76
(lp343
g69
(g90
g71
NtRp344
(dp345
g74
(dp346
g94
g95
ssg83
g340
sg76
(lp347
S'expires'
p348
asbag69
(g90
g71
NtRp349
(dp350
g74
(dp351
g101
g102
ssg83
g340
sg76
(lp352
S':'
asbag69
(g90
g71
NtRp353
(dp354
g74
(dp355
sg83
g340
sg76
(lp356
g69
(g70
g71
NtRp357
(dp358
g74
(dp359
g82
I3
ssg83
g353
sg76
(lp360
S''
asbasbasbag69
(g85
g71
NtRp361
(dp362
g74
(dp363
sg83
g294
sg76
(lp364
g69
(g90
g71
NtRp365
(dp366
g74
(dp367
g94
g95
ssg83
g361
sg76
(lp368
S'httponly'
p369
asbag69
(g90
g71
NtRp370
(dp371
g74
(dp372
g101
g102
ssg83
g361
sg76
(lp373
S':'
asbag69
(g90
g71
NtRp374
(dp375
g74
(dp376
sg83
g361
sg76
(lp377
g69
(g70
g71
NtRp378
(dp379
g74
(dp380
g82
I3
ssg83
g374
sg76
(lp381
S''
asbasbasbag69
(g85
g71
NtRp382
(dp383
g74
(dp384
sg83
g294
sg76
(lp385
g69
(g90
g71
NtRp386
(dp387
g74
(dp388
g94
g95
ssg83
g382
sg76
(lp389
S'max-age'
p390
asbag69
(g90
g71
NtRp391
(dp392
g74
(dp393
g101
g102
ssg83
g382
sg76
(lp394
S':'
asbag69
(g90
g71
NtRp395
(dp396
g74
(dp397
sg83
g382
sg76
(lp398
g69
(g70
g71
NtRp399
(dp400
g74
(dp401
g82
I3
ssg83
g395
sg76
(lp402
S''
asbasbasbag69
(g85
g71
NtRp403
(dp404
g74
(dp405
sg83
g294
sg76
(lp406
g69
(g90
g71
NtRp407
(dp408
g74
(dp409
g94
g95
ssg83
g403
sg76
(lp410
S'path'
p411
asbag69
(g90
g71
NtRp412
(dp413
g74
(dp414
g101
g102
ssg83
g403
sg76
(lp415
S':'
asbag69
(g90
g71
NtRp416
(dp417
g74
(dp418
sg83
g403
sg76
(lp419
g69
(g70
g71
NtRp420
(dp421
g74
(dp422
g82
I3
ssg83
g416
sg76
(lp423
S''
asbasbasbag69
(g85
g71
NtRp424
(dp425
g74
(dp426
sg83
g294
sg76
(lp427
g69
(g90
g71
NtRp428
(dp429
g74
(dp430
g94
g95
ssg83
g424
sg76
(lp431
S'secure'
p432
asbag69
(g90
g71
NtRp433
(dp434
g74
(dp435
g101
g102
ssg83
g424
sg76
(lp436
S':'
asbag69
(g90
g71
NtRp437
(dp438
g74
(dp439
sg83
g424
sg76
(lp440
g69
(g70
g71
NtRp441
(dp442
g74
(dp443
g82
I3
ssg83
g437
sg76
(lp444
S''
asbasbasbag69
(g85
g71
NtRp445
(dp446
g74
(dp447
sg83
g294
sg76
(lp448
g69
(g90
g71
NtRp449
(dp450
g74
(dp451
g94
g95
ssg83
g445
sg76
(lp452
S'version'
p453
asbag69
(g90
g71
NtRp454
(dp455
g74
(dp456
g101
g102
ssg83
g445
sg76
(lp457
S':'
asbag69
(g90
g71
NtRp458
(dp459
g74
(dp460
sg83
g445
sg76
(lp461
g69
(g70
g71
NtRp462
(dp463
g74
(dp464
g82
I3
ssg83
g458
sg76
(lp465
S''
asbasbasbasbasbasbasbag69
(g85
g71
NtRp466
(dp467
g74
(dp468
sg83
g268
sg76
(lp469
g69
(g90
g71
NtRp470
(dp471
g74
(dp472
g94
g95
ssg83
g466
sg76
(lp473
S'session_id_myapp'
p474
asbag69
(g90
g71
NtRp475
(dp476
g74
(dp477
g101
g102
ssg83
g466
sg76
(lp478
S':'
asbag69
(g90
g71
NtRp479
(dp480
g74
(dp481
sg83
g466
sg76
(lp482
g69
(g70
g71
NtRp483
(dp484
g74
(dp485
g82
I4
ssg83
g479
sg76
(lp486
S'127.0.0.1-5b2e0fd0-3c12-466e-83b2-57d33603c506'
p487
ag69
(g78
g71
NtRp488
(dp489
g74
(dp490
g82
I3
ssg83
Nsg76
(lp491
g69
(g85
g71
NtRp492
(dp493
g74
(dp494
sg83
g488
sg76
(lp495
g69
(g90
g71
NtRp496
(dp497
g74
(dp498
g94
g95
ssg83
g492
sg76
(lp499
g306
asbag69
(g90
g71
NtRp500
(dp501
g74
(dp502
g101
g102
ssg83
g492
sg76
(lp503
S':'
asbag69
(g90
g71
NtRp504
(dp505
g74
(dp506
sg83
g492
sg76
(lp507
g69
(g70
g71
NtRp508
(dp509
g74
(dp510
g82
I3
ssg83
g504
sg76
(lp511
S''
asbasbasbag69
(g85
g71
NtRp512
(dp513
g74
(dp514
sg83
g488
sg76
(lp515
g69
(g90
g71
NtRp516
(dp517
g74
(dp518
g94
g95
ssg83
g512
sg76
(lp519
g327
asbag69
(g90
g71
NtRp520
(dp521
g74
(dp522
g101
g102
ssg83
g512
sg76
(lp523
S':'
asbag69
(g90
g71
NtRp524
(dp525
g74
(dp526
sg83
g512
sg76
(lp527
g69
(g70
g71
NtRp528
(dp529
g74
(dp530
g82
I3
ssg83
g524
sg76
(lp531
S''
asbasbasbag69
(g85
g71
NtRp532
(dp533
g74
(dp534
sg83
g488
sg76
(lp535
g69
(g90
g71
NtRp536
(dp537
g74
(dp538
g94
g95
ssg83
g532
sg76
(lp539
g348
asbag69
(g90
g71
NtRp540
(dp541
g74
(dp542
g101
g102
ssg83
g532
sg76
(lp543
S':'
asbag69
(g90
g71
NtRp544
(dp545
g74
(dp546
sg83
g532
sg76
(lp547
g69
(g70
g71
NtRp548
(dp549
g74
(dp550
g82
I3
ssg83
g544
sg76
(lp551
S''
asbasbasbag69
(g85
g71
NtRp552
(dp553
g74
(dp554
sg83
g488
sg76
(lp555
g69
(g90
g71
NtRp556
(dp557
g74
(dp558
g94
g95
ssg83
g552
sg76
(lp559
g369
asbag69
(g90
g71
NtRp560
(dp561
g74
(dp562
g101
g102
ssg83
g552
sg76
(lp563
S':'
asbag69
(g90
g71
NtRp564
(dp565
g74
(dp566
sg83
g552
sg76
(lp567
g69
(g70
g71
NtRp568
(dp569
g74
(dp570
g82
I3
ssg83
g564
sg76
(lp571
S''
asbasbasbag69
(g85
g71
NtRp572
(dp573
g74
(dp574
sg83
g488
sg76
(lp575
g69
(g90
g71
NtRp576
(dp577
g74
(dp578
g94
g95
ssg83
g572
sg76
(lp579
g390
asbag69
(g90
g71
NtRp580
(dp581
g74
(dp582
g101
g102
ssg83
g572
sg76
(lp583
S':'
asbag69
(g90
g71
NtRp584
(dp585
g74
(dp586
sg83
g572
sg76
(lp587
g69
(g70
g71
NtRp588
(dp589
g74
(dp590
g82
I3
ssg83
g584
sg76
(lp591
S''
asbasbasbag69
(g85
g71
NtRp592
(dp593
g74
(dp594
sg83
g488
sg76
(lp595
g69
(g90
g71
NtRp596
(dp597
g74
(dp598
g94
g95
ssg83
g592
sg76
(lp599
g411
asbag69
(g90
g71
NtRp600
(dp601
g74
(dp602
g101
g102
ssg83
g592
sg76
(lp603
S':'
asbag69
(g90
g71
NtRp604
(dp605
g74
(dp606
sg83
g592
sg76
(lp607
g69
(g70
g71
NtRp608
(dp609
g74
(dp610
g82
I3
ssg83
g604
sg76
(lp611
S''
asbasbasbag69
(g85
g71
NtRp612
(dp613
g74
(dp614
sg83
g488
sg76
(lp615
g69
(g90
g71
NtRp616
(dp617
g74
(dp618
g94
g95
ssg83
g612
sg76
(lp619
g432
asbag69
(g90
g71
NtRp620
(dp621
g74
(dp622
g101
g102
ssg83
g612
sg76
(lp623
S':'
asbag69
(g90
g71
NtRp624
(dp625
g74
(dp626
sg83
g612
sg76
(lp627
g69
(g70
g71
NtRp628
(dp629
g74
(dp630
g82
I3
ssg83
g624
sg76
(lp631
S''
asbasbasbag69
(g85
g71
NtRp632
(dp633
g74
(dp634
sg83
g488
sg76
(lp635
g69
(g90
g71
NtRp636
(dp637
g74
(dp638
g94
g95
ssg83
g632
sg76
(lp639
g453
asbag69
(g90
g71
NtRp640
(dp641
g74
(dp642
g101
g102
ssg83
g632
sg76
(lp643
S':'
asbag69
(g90
g71
NtRp644
(dp645
g74
(dp646
sg83
g632
sg76
(lp647
g69
(g70
g71
NtRp648
(dp649
g74
(dp650
g82
I3
ssg83
g644
sg76
(lp651
S''
asbasbasbasbasbasbasbasbasbasbasbag69
(g85
g71
NtRp652
(dp653
g74
(dp654
sg83
g79
sg76
(lp655
g69
(g90
g71
NtRp656
(dp657
g74
(dp658
g94
g95
ssg83
g652
sg76
(lp659
S'env'
p660
asbag69
(g90
g71
NtRp661
(dp662
g74
(dp663
g101
g102
ssg83
g652
sg76
(lp664
S':'
asbag69
(g90
g71
NtRp665
(dp666
g74
(dp667
sg83
g652
sg76
(lp668
g69
(g70
g71
NtRp669
(dp670
g74
(dp671
g82
I5
ssg83
g665
sg76
(lp672
g69
(g78
g71
NtRp673
(dp674
g74
(dp675
g82
I4
ssg83
Nsg76
(lp676
g69
(g85
g71
NtRp677
(dp678
g74
(dp679
sg83
g673
sg76
(lp680
g69
(g90
g71
NtRp681
(dp682
g74
(dp683
g94
g95
ssg83
g677
sg76
(lp684
S'app_folders'
p685
asbag69
(g90
g71
NtRp686
(dp687
g74
(dp688
g101
g102
ssg83
g677
sg76
(lp689
S':'
asbag69
(g90
g71
NtRp690
(dp691
g74
(dp692
sg83
g677
sg76
(lp693
g69
(g70
g71
NtRp694
(dp695
g74
(dp696
g82
I4
ssg83
g690
sg76
(lp697
S"set(['/Users/keshav/Desktop/web2py/applications/MyApp/', '/Users/keshav/Desktop/web2py/applications/admin/', '/Users/keshav/Desktop/web2py/applications/welcome/'])"
p698
asbasbasbag69
(g85
g71
NtRp699
(dp700
g74
(dp701
sg83
g673
sg76
(lp702
g69
(g90
g71
NtRp703
(dp704
g74
(dp705
g94
g95
ssg83
g699
sg76
(lp706
S'applications_parent'
p707
asbag69
(g90
g71
NtRp708
(dp709
g74
(dp710
g101
g102
ssg83
g699
sg76
(lp711
S':'
asbag69
(g90
g71
NtRp712
(dp713
g74
(dp714
sg83
g699
sg76
(lp715
g69
(g70
g71
NtRp716
(dp717
g74
(dp718
g82
I4
ssg83
g712
sg76
(lp719
S'/Users/keshav/Desktop/web2py'
p720
asbasbasbag69
(g85
g71
NtRp721
(dp722
g74
(dp723
sg83
g673
sg76
(lp724
g69
(g90
g71
NtRp725
(dp726
g74
(dp727
g94
g95
ssg83
g721
sg76
(lp728
S'cmd_args'
p729
asbag69
(g90
g71
NtRp730
(dp731
g74
(dp732
g101
g102
ssg83
g721
sg76
(lp733
S':'
asbag69
(g90
g71
NtRp734
(dp735
g74
(dp736
sg83
g721
sg76
(lp737
g69
(g70
g71
NtRp738
(dp739
g74
(dp740
g82
I4
ssg83
g734
sg76
(lp741
g69
(g78
g71
NtRp742
(dp743
g74
(dp744
g82
I3
ssg83
Nsg76
(lp745
sbasbasbasbag69
(g85
g71
NtRp746
(dp747
g74
(dp748
sg83
g673
sg76
(lp749
g69
(g90
g71
NtRp750
(dp751
g74
(dp752
g94
g95
ssg83
g746
sg76
(lp753
S'cmd_options'
p754
asbag69
(g90
g71
NtRp755
(dp756
g74
(dp757
g101
g102
ssg83
g746
sg76
(lp758
S':'
asbag69
(g90
g71
NtRp759
(dp760
g74
(dp761
sg83
g746
sg76
(lp762
g69
(g70
g71
NtRp763
(dp764
g74
(dp765
g82
I4
ssg83
g759
sg76
(lp766
S"<Values at 0x101acb638: {'verbose': False, 'ip': '127.0.0.1', 'with_scheduler': False, 'ips': ['10.160.0.40'], 'shutdown_timeout': 5, 'taskbar': False, 'port': 8000, 'maxthreads': None, 'softcron': False, 'server_name': 'Keshav-Choudharys-MacBook.local', 'bpython': False, 'nogui': False, 'pid_filename': 'httpserver.pid', 'extcron': False, 'runcron': False, 'run_system_tests': False, 'test': None, 'folder': '/Users/keshav/Desktop/web2py', 'config': '', 'minthreads': None, 'winservice': '', 'shell': None, 'run': '', 'log_filename': 'httpserver.log', 'debuglevel': 30, 'args': [''], 'socket_timeout': 5, 'ssl_ca_certificate': None, 'scheduler': None, 'profiler_filename': None, 'ssl_private_key': '', 'scheduler_groups': None, 'password': '<ask>', 'request_queue_size': 5, 'ssl_certificate': '', 'cronjob': False, 'numthreads': None, 'quiet': False, 'interfaces': None, 'import_models': False, 'timeout': 10, 'plain': False, 'nobanner': False}>"
p767
asbasbasbag69
(g85
g71
NtRp768
(dp769
g74
(dp770
sg83
g673
sg76
(lp771
g69
(g90
g71
NtRp772
(dp773
g74
(dp774
g94
g95
ssg83
g768
sg76
(lp775
S'db_sessions'
p776
asbag69
(g90
g71
NtRp777
(dp778
g74
(dp779
g101
g102
ssg83
g768
sg76
(lp780
S':'
asbag69
(g90
g71
NtRp781
(dp782
g74
(dp783
sg83
g768
sg76
(lp784
g69
(g70
g71
NtRp785
(dp786
g74
(dp787
g82
I4
ssg83
g781
sg76
(lp788
S'set([])'
p789
asbasbasbag69
(g85
g71
NtRp790
(dp791
g74
(dp792
sg83
g673
sg76
(lp793
g69
(g90
g71
NtRp794
(dp795
g74
(dp796
g94
g95
ssg83
g790
sg76
(lp797
S'debugging'
p798
asbag69
(g90
g71
NtRp799
(dp800
g74
(dp801
g101
g102
ssg83
g790
sg76
(lp802
S':'
asbag69
(g90
g71
NtRp803
(dp804
g74
(dp805
sg83
g790
sg76
(lp806
g69
(g70
g71
NtRp807
(dp808
g74
(dp809
g82
I4
ssg83
g803
sg76
(lp810
g112
asbasbasbag69
(g85
g71
NtRp811
(dp812
g74
(dp813
sg83
g673
sg76
(lp814
g69
(g90
g71
NtRp815
(dp816
g74
(dp817
g94
g95
ssg83
g811
sg76
(lp818
S'gluon_parent'
p819
asbag69
(g90
g71
NtRp820
(dp821
g74
(dp822
g101
g102
ssg83
g811
sg76
(lp823
S':'
asbag69
(g90
g71
NtRp824
(dp825
g74
(dp826
sg83
g811
sg76
(lp827
g69
(g70
g71
NtRp828
(dp829
g74
(dp830
g82
I4
ssg83
g824
sg76
(lp831
S'/Users/keshav/Desktop/web2py'
p832
asbasbasbag69
(g85
g71
NtRp833
(dp834
g74
(dp835
sg83
g673
sg76
(lp836
g69
(g90
g71
NtRp837
(dp838
g74
(dp839
g94
g95
ssg83
g833
sg76
(lp840
S'http_accept'
p841
asbag69
(g90
g71
NtRp842
(dp843
g74
(dp844
g101
g102
ssg83
g833
sg76
(lp845
S':'
asbag69
(g90
g71
NtRp846
(dp847
g74
(dp848
sg83
g833
sg76
(lp849
g69
(g70
g71
NtRp850
(dp851
g74
(dp852
g82
I4
ssg83
g846
sg76
(lp853
S'text/html,application/xhtml+xml,application/xml;q=0.9,*/*;q=0.8'
p854
asbasbasbag69
(g85
g71
NtRp855
(dp856
g74
(dp857
sg83
g673
sg76
(lp858
g69
(g90
g71
NtRp859
(dp860
g74
(dp861
g94
g95
ssg83
g855
sg76
(lp862
S'http_accept_charset'
p863
asbag69
(g90
g71
NtRp864
(dp865
g74
(dp866
g101
g102
ssg83
g855
sg76
(lp867
S':'
asbag69
(g90
g71
NtRp868
(dp869
g74
(dp870
sg83
g855
sg76
(lp871
g69
(g70
g71
NtRp872
(dp873
g74
(dp874
g82
I4
ssg83
g868
sg76
(lp875
S'ISO-8859-1,utf-8;q=0.7,*;q=0.3'
p876
asbasbasbag69
(g85
g71
NtRp877
(dp878
g74
(dp879
sg83
g673
sg76
(lp880
g69
(g90
g71
NtRp881
(dp882
g74
(dp883
g94
g95
ssg83
g877
sg76
(lp884
S'http_accept_encoding'
p885
asbag69
(g90
g71
NtRp886
(dp887
g74
(dp888
g101
g102
ssg83
g877
sg76
(lp889
S':'
asbag69
(g90
g71
NtRp890
(dp891
g74
(dp892
sg83
g877
sg76
(lp893
g69
(g70
g71
NtRp894
(dp895
g74
(dp896
g82
I4
ssg83
g890
sg76
(lp897
S'gzip,deflate,sdch'
p898
asbasbasbag69
(g85
g71
NtRp899
(dp900
g74
(dp901
sg83
g673
sg76
(lp902
g69
(g90
g71
NtRp903
(dp904
g74
(dp905
g94
g95
ssg83
g899
sg76
(lp906
S'http_accept_language'
p907
asbag69
(g90
g71
NtRp908
(dp909
g74
(dp910
g101
g102
ssg83
g899
sg76
(lp911
S':'
asbag69
(g90
g71
NtRp912
(dp913
g74
(dp914
sg83
g899
sg76
(lp915
g69
(g70
g71
NtRp916
(dp917
g74
(dp918
g82
I4
ssg83
g912
sg76
(lp919
S'en-US,en;q=0.8'
p920
asbasbasbag69
(g85
g71
NtRp921
(dp922
g74
(dp923
sg83
g673
sg76
(lp924
g69
(g90
g71
NtRp925
(dp926
g74
(dp927
g94
g95
ssg83
g921
sg76
(lp928
S'http_cache_control'
p929
asbag69
(g90
g71
NtRp930
(dp931
g74
(dp932
g101
g102
ssg83
g921
sg76
(lp933
S':'
asbag69
(g90
g71
NtRp934
(dp935
g74
(dp936
sg83
g921
sg76
(lp937
g69
(g70
g71
NtRp938
(dp939
g74
(dp940
g82
I4
ssg83
g934
sg76
(lp941
S'max-age=0'
p942
asbasbasbag69
(g85
g71
NtRp943
(dp944
g74
(dp945
sg83
g673
sg76
(lp946
g69
(g90
g71
NtRp947
(dp948
g74
(dp949
g94
g95
ssg83
g943
sg76
(lp950
S'http_connection'
p951
asbag69
(g90
g71
NtRp952
(dp953
g74
(dp954
g101
g102
ssg83
g943
sg76
(lp955
S':'
asbag69
(g90
g71
NtRp956
(dp957
g74
(dp958
sg83
g943
sg76
(lp959
g69
(g70
g71
NtRp960
(dp961
g74
(dp962
g82
I4
ssg83
g956
sg76
(lp963
S'keep-alive'
p964
asbasbasbag69
(g85
g71
NtRp965
(dp966
g74
(dp967
sg83
g673
sg76
(lp968
g69
(g90
g71
NtRp969
(dp970
g74
(dp971
g94
g95
ssg83
g965
sg76
(lp972
S'http_cookie'
p973
asbag69
(g90
g71
NtRp974
(dp975
g74
(dp976
g101
g102
ssg83
g965
sg76
(lp977
S':'
asbag69
(g90
g71
NtRp978
(dp979
g74
(dp980
sg83
g965
sg76
(lp981
g69
(g70
g71
NtRp982
(dp983
g74
(dp984
g82
I4
ssg83
g978
sg76
(lp985
S'session_id_admin=127.0.0.1-68799cf9-44c1-4d19-b76b-f626ae576484; session_id_myapp=127.0.0.1-5b2e0fd0-3c12-466e-83b2-57d33603c506'
p986
asbasbasbag69
(g85
g71
NtRp987
(dp988
g74
(dp989
sg83
g673
sg76
(lp990
g69
(g90
g71
NtRp991
(dp992
g74
(dp993
g94
g95
ssg83
g987
sg76
(lp994
S'http_host'
p995
asbag69
(g90
g71
NtRp996
(dp997
g74
(dp998
g101
g102
ssg83
g987
sg76
(lp999
S':'
asbag69
(g90
g71
NtRp1000
(dp1001
g74
(dp1002
sg83
g987
sg76
(lp1003
g69
(g70
g71
NtRp1004
(dp1005
g74
(dp1006
g82
I4
ssg83
g1000
sg76
(lp1007
S'127.0.0.1:8000'
p1008
asbasbasbag69
(g85
g71
NtRp1009
(dp1010
g74
(dp1011
sg83
g673
sg76
(lp1012
g69
(g90
g71
NtRp1013
(dp1014
g74
(dp1015
g94
g95
ssg83
g1009
sg76
(lp1016
S'http_user_agent'
p1017
asbag69
(g90
g71
NtRp1018
(dp1019
g74
(dp1020
g101
g102
ssg83
g1009
sg76
(lp1021
S':'
asbag69
(g90
g71
NtRp1022
(dp1023
g74
(dp1024
sg83
g1009
sg76
(lp1025
g69
(g70
g71
NtRp1026
(dp1027
g74
(dp1028
g82
I4
ssg83
g1022
sg76
(lp1029
S'Mozilla/5.0 (Macintosh; Intel Mac OS X 10_6_8) AppleWebKit/537.18 (KHTML, like Gecko) Chrome/25.0.1317.0 Safari/537.18'
p1030
asbasbasbag69
(g85
g71
NtRp1031
(dp1032
g74
(dp1033
sg83
g673
sg76
(lp1034
g69
(g90
g71
NtRp1035
(dp1036
g74
(dp1037
g94
g95
ssg83
g1031
sg76
(lp1038
S'is_jython'
p1039
asbag69
(g90
g71
NtRp1040
(dp1041
g74
(dp1042
g101
g102
ssg83
g1031
sg76
(lp1043
S':'
asbag69
(g90
g71
NtRp1044
(dp1045
g74
(dp1046
sg83
g1031
sg76
(lp1047
g69
(g70
g71
NtRp1048
(dp1049
g74
(dp1050
g82
I4
ssg83
g1044
sg76
(lp1051
g112
asbasbasbag69
(g85
g71
NtRp1052
(dp1053
g74
(dp1054
sg83
g673
sg76
(lp1055
g69
(g90
g71
NtRp1056
(dp1057
g74
(dp1058
g94
g95
ssg83
g1052
sg76
(lp1059
S'is_pypy'
p1060
asbag69
(g90
g71
NtRp1061
(dp1062
g74
(dp1063
g101
g102
ssg83
g1052
sg76
(lp1064
S':'
asbag69
(g90
g71
NtRp1065
(dp1066
g74
(dp1067
sg83
g1052
sg76
(lp1068
g69
(g70
g71
NtRp1069
(dp1070
g74
(dp1071
g82
I4
ssg83
g1065
sg76
(lp1072
g112
asbasbasbag69
(g85
g71
NtRp1073
(dp1074
g74
(dp1075
sg83
g673
sg76
(lp1076
g69
(g90
g71
NtRp1077
(dp1078
g74
(dp1079
g94
g95
ssg83
g1073
sg76
(lp1080
S'local_hosts'
p1081
asbag69
(g90
g71
NtRp1082
(dp1083
g74
(dp1084
g101
g102
ssg83
g1073
sg76
(lp1085
S':'
asbag69
(g90
g71
NtRp1086
(dp1087
g74
(dp1088
sg83
g1073
sg76
(lp1089
g69
(g70
g71
NtRp1090
(dp1091
g74
(dp1092
g82
I4
ssg83
g1086
sg76
(lp1093
g69
(g78
g71
NtRp1094
(dp1095
g74
(dp1096
g82
I3
ssg83
Nsg76
(lp1097
g69
(g85
g71
NtRp1098
(dp1099
g74
(dp1100
sg83
g1094
sg76
(lp1101
g69
(g90
g71
NtRp1102
(dp1103
g74
(dp1104
sg83
g1098
sg76
(lp1105
g69
(g70
g71
NtRp1106
(dp1107
g74
(dp1108
g82
I3
ssg83
g1102
sg76
(lp1109
S'127.0.0.1'
p1110
asbasbasbag69
(g85
g71
NtRp1111
(dp1112
g74
(dp1113
sg83
g1094
sg76
(lp1114
g69
(g90
g71
NtRp1115
(dp1116
g74
(dp1117
sg83
g1111
sg76
(lp1118
g69
(g70
g71
NtRp1119
(dp1120
g74
(dp1121
g82
I3
ssg83
g1115
sg76
(lp1122
S'::ffff:127.0.0.1'
p1123
asbasbasbag69
(g85
g71
NtRp1124
(dp1125
g74
(dp1126
sg83
g1094
sg76
(lp1127
g69
(g90
g71
NtRp1128
(dp1129
g74
(dp1130
sg83
g1124
sg76
(lp1131
g69
(g70
g71
NtRp1132
(dp1133
g74
(dp1134
g82
I3
ssg83
g1128
sg76
(lp1135
S'Keshav-Choudharys-MacBook.local'
p1136
asbasbasbag69
(g85
g71
NtRp1137
(dp1138
g74
(dp1139
sg83
g1094
sg76
(lp1140
g69
(g90
g71
NtRp1141
(dp1142
g74
(dp1143
sg83
g1137
sg76
(lp1144
g69
(g70
g71
NtRp1145
(dp1146
g74
(dp1147
g82
I3
ssg83
g1141
sg76
(lp1148
S'Keshav-Choudharys-MacBook.local'
p1149
asbasbasbag69
(g85
g71
NtRp1150
(dp1151
g74
(dp1152
sg83
g1094
sg76
(lp1153
g69
(g90
g71
NtRp1154
(dp1155
g74
(dp1156
sg83
g1150
sg76
(lp1157
g69
(g70
g71
NtRp1158
(dp1159
g74
(dp1160
g82
I3
ssg83
g1154
sg76
(lp1161
S'10.160.0.40'
p1162
asbasbasbasbasbasbasbag69
(g85
g71
NtRp1163
(dp1164
g74
(dp1165
sg83
g673
sg76
(lp1166
g69
(g90
g71
NtRp1167
(dp1168
g74
(dp1169
g94
g95
ssg83
g1163
sg76
(lp1170
S'path_info'
p1171
asbag69
(g90
g71
NtRp1172
(dp1173
g74
(dp1174
g101
g102
ssg83
g1163
sg76
(lp1175
S':'
asbag69
(g90
g71
NtRp1176
(dp1177
g74
(dp1178
sg83
g1163
sg76
(lp1179
g69
(g70
g71
NtRp1180
(dp1181
g74
(dp1182
g82
I4
ssg83
g1176
sg76
(lp1183
S'/MyApp/default/index'
p1184
asbasbasbag69
(g85
g71
NtRp1185
(dp1186
g74
(dp1187
sg83
g673
sg76
(lp1188
g69
(g90
g71
NtRp1189
(dp1190
g74
(dp1191
g94
g95
ssg83
g1185
sg76
(lp1192
S'query_string'
p1193
asbag69
(g90
g71
NtRp1194
(dp1195
g74
(dp1196
g101
g102
ssg83
g1185
sg76
(lp1197
S':'
asbag69
(g90
g71
NtRp1198
(dp1199
g74
(dp1200
sg83
g1185
sg76
(lp1201
g69
(g70
g71
NtRp1202
(dp1203
g74
(dp1204
g82
I4
ssg83
g1198
sg76
(lp1205
S''
asbasbasbag69
(g85
g71
NtRp1206
(dp1207
g74
(dp1208
sg83
g673
sg76
(lp1209
g69
(g90
g71
NtRp1210
(dp1211
g74
(dp1212
g94
g95
ssg83
g1206
sg76
(lp1213
S'remote_addr'
p1214
asbag69
(g90
g71
NtRp1215
(dp1216
g74
(dp1217
g101
g102
ssg83
g1206
sg76
(lp1218
S':'
asbag69
(g90
g71
NtRp1219
(dp1220
g74
(dp1221
sg83
g1206
sg76
(lp1222
g69
(g70
g71
NtRp1223
(dp1224
g74
(dp1225
g82
I4
ssg83
g1219
sg76
(lp1226
g224
asbasbasbag69
(g85
g71
NtRp1227
(dp1228
g74
(dp1229
sg83
g673
sg76
(lp1230
g69
(g90
g71
NtRp1231
(dp1232
g74
(dp1233
g94
g95
ssg83
g1227
sg76
(lp1234
S'remote_port'
p1235
asbag69
(g90
g71
NtRp1236
(dp1237
g74
(dp1238
g101
g102
ssg83
g1227
sg76
(lp1239
S':'
asbag69
(g90
g71
NtRp1240
(dp1241
g74
(dp1242
sg83
g1227
sg76
(lp1243
g69
(g70
g71
NtRp1244
(dp1245
g74
(dp1246
g82
I4
ssg83
g1240
sg76
(lp1247
S'54709'
p1248
asbasbasbag69
(g85
g71
NtRp1249
(dp1250
g74
(dp1251
sg83
g673
sg76
(lp1252
g69
(g90
g71
NtRp1253
(dp1254
g74
(dp1255
g94
g95
ssg83
g1249
sg76
(lp1256
S'request_method'
p1257
asbag69
(g90
g71
NtRp1258
(dp1259
g74
(dp1260
g101
g102
ssg83
g1249
sg76
(lp1261
S':'
asbag69
(g90
g71
NtRp1262
(dp1263
g74
(dp1264
sg83
g1249
sg76
(lp1265
g69
(g70
g71
NtRp1266
(dp1267
g74
(dp1268
g82
I4
ssg83
g1262
sg76
(lp1269
S'GET'
p1270
asbasbasbag69
(g85
g71
NtRp1271
(dp1272
g74
(dp1273
sg83
g673
sg76
(lp1274
g69
(g90
g71
NtRp1275
(dp1276
g74
(dp1277
g94
g95
ssg83
g1271
sg76
(lp1278
S'request_uri'
p1279
asbag69
(g90
g71
NtRp1280
(dp1281
g74
(dp1282
g101
g102
ssg83
g1271
sg76
(lp1283
S':'
asbag69
(g90
g71
NtRp1284
(dp1285
g74
(dp1286
sg83
g1271
sg76
(lp1287
g69
(g70
g71
NtRp1288
(dp1289
g74
(dp1290
g82
I4
ssg83
g1284
sg76
(lp1291
g1184
asbasbasbag69
(g85
g71
NtRp1292
(dp1293
g74
(dp1294
sg83
g673
sg76
(lp1295
g69
(g90
g71
NtRp1296
(dp1297
g74
(dp1298
g94
g95
ssg83
g1292
sg76
(lp1299
S'script_name'
p1300
asbag69
(g90
g71
NtRp1301
(dp1302
g74
(dp1303
g101
g102
ssg83
g1292
sg76
(lp1304
S':'
asbag69
(g90
g71
NtRp1305
(dp1306
g74
(dp1307
sg83
g1292
sg76
(lp1308
g69
(g70
g71
NtRp1309
(dp1310
g74
(dp1311
g82
I4
ssg83
g1305
sg76
(lp1312
S''
asbasbasbag69
(g85
g71
NtRp1313
(dp1314
g74
(dp1315
sg83
g673
sg76
(lp1316
g69
(g90
g71
NtRp1317
(dp1318
g74
(dp1319
g94
g95
ssg83
g1313
sg76
(lp1320
S'server_name'
p1321
asbag69
(g90
g71
NtRp1322
(dp1323
g74
(dp1324
g101
g102
ssg83
g1313
sg76
(lp1325
S':'
asbag69
(g90
g71
NtRp1326
(dp1327
g74
(dp1328
sg83
g1313
sg76
(lp1329
g69
(g70
g71
NtRp1330
(dp1331
g74
(dp1332
g82
I4
ssg83
g1326
sg76
(lp1333
g1149
asbasbasbag69
(g85
g71
NtRp1334
(dp1335
g74
(dp1336
sg83
g673
sg76
(lp1337
g69
(g90
g71
NtRp1338
(dp1339
g74
(dp1340
g94
g95
ssg83
g1334
sg76
(lp1341
S'server_port'
p1342
asbag69
(g90
g71
NtRp1343
(dp1344
g74
(dp1345
g101
g102
ssg83
g1334
sg76
(lp1346
S':'
asbag69
(g90
g71
NtRp1347
(dp1348
g74
(dp1349
sg83
g1334
sg76
(lp1350
g69
(g70
g71
NtRp1351
(dp1352
g74
(dp1353
g82
I4
ssg83
g1347
sg76
(lp1354
S'8000'
p1355
asbasbasbag69
(g85
g71
NtRp1356
(dp1357
g74
(dp1358
sg83
g673
sg76
(lp1359
g69
(g90
g71
NtRp1360
(dp1361
g74
(dp1362
g94
g95
ssg83
g1356
sg76
(lp1363
S'server_protocol'
p1364
asbag69
(g90
g71
NtRp1365
(dp1366
g74
(dp1367
g101
g102
ssg83
g1356
sg76
(lp1368
S':'
asbag69
(g90
g71
NtRp1369
(dp1370
g74
(dp1371
sg83
g1356
sg76
(lp1372
g69
(g70
g71
NtRp1373
(dp1374
g74
(dp1375
g82
I4
ssg83
g1369
sg76
(lp1376
S'HTTP/1.1'
p1377
asbasbasbag69
(g85
g71
NtRp1378
(dp1379
g74
(dp1380
sg83
g673
sg76
(lp1381
g69
(g90
g71
NtRp1382
(dp1383
g74
(dp1384
g94
g95
ssg83
g1378
sg76
(lp1385
S'server_software'
p1386
asbag69
(g90
g71
NtRp1387
(dp1388
g74
(dp1389
g101
g102
ssg83
g1378
sg76
(lp1390
S':'
asbag69
(g90
g71
NtRp1391
(dp1392
g74
(dp1393
sg83
g1378
sg76
(lp1394
g69
(g70
g71
NtRp1395
(dp1396
g74
(dp1397
g82
I4
ssg83
g1391
sg76
(lp1398
S'Rocket 1.2.5'
p1399
asbasbasbag69
(g85
g71
NtRp1400
(dp1401
g74
(dp1402
sg83
g673
sg76
(lp1403
g69
(g90
g71
NtRp1404
(dp1405
g74
(dp1406
g94
g95
ssg83
g1400
sg76
(lp1407
S'web2py_path'
p1408
asbag69
(g90
g71
NtRp1409
(dp1410
g74
(dp1411
g101
g102
ssg83
g1400
sg76
(lp1412
S':'
asbag69
(g90
g71
NtRp1413
(dp1414
g74
(dp1415
sg83
g1400
sg76
(lp1416
g69
(g70
g71
NtRp1417
(dp1418
g74
(dp1419
g82
I4
ssg83
g1413
sg76
(lp1420
g720
asbasbasbag69
(g85
g71
NtRp1421
(dp1422
g74
(dp1423
sg83
g673
sg76
(lp1424
g69
(g90
g71
NtRp1425
(dp1426
g74
(dp1427
g94
g95
ssg83
g1421
sg76
(lp1428
S'web2py_version'
p1429
asbag69
(g90
g71
NtRp1430
(dp1431
g74
(dp1432
g101
g102
ssg83
g1421
sg76
(lp1433
S':'
asbag69
(g90
g71
NtRp1434
(dp1435
g74
(dp1436
sg83
g1421
sg76
(lp1437
g69
(g70
g71
NtRp1438
(dp1439
g74
(dp1440
g82
I4
ssg83
g1434
sg76
(lp1441
g69
(g78
g71
NtRp1442
(dp1443
g74
(dp1444
g82
I3
ssg83
Nsg76
(lp1445
g69
(g85
g71
NtRp1446
(dp1447
g74
(dp1448
sg83
g1442
sg76
(lp1449
g69
(g90
g71
NtRp1450
(dp1451
g74
(dp1452
sg83
g1446
sg76
(lp1453
g69
(g70
g71
NtRp1454
(dp1455
g74
(dp1456
g82
I3
ssg83
g1450
sg76
(lp1457
S'2'
asbasbasbag69
(g85
g71
NtRp1458
(dp1459
g74
(dp1460
sg83
g1442
sg76
(lp1461
g69
(g90
g71
NtRp1462
(dp1463
g74
(dp1464
sg83
g1458
sg76
(lp1465
g69
(g70
g71
NtRp1466
(dp1467
g74
(dp1468
g82
I3
ssg83
g1462
sg76
(lp1469
S'2'
asbasbasbag69
(g85
g71
NtRp1470
(dp1471
g74
(dp1472
sg83
g1442
sg76
(lp1473
g69
(g90
g71
NtRp1474
(dp1475
g74
(dp1476
sg83
g1470
sg76
(lp1477
g69
(g70
g71
NtRp1478
(dp1479
g74
(dp1480
g82
I3
ssg83
g1474
sg76
(lp1481
S'1'
asbasbasbag69
(g85
g71
NtRp1482
(dp1483
g74
(dp1484
sg83
g1442
sg76
(lp1485
g69
(g90
g71
NtRp1486
(dp1487
g74
(dp1488
sg83
g1482
sg76
(lp1489
g69
(g70
g71
NtRp1490
(dp1491
g74
(dp1492
g82
I3
ssg83
g1486
sg76
(lp1493
S'datetime.datetime(2012, 10, 21, 16, 57, 4)'
p1494
asbasbasbag69
(g85
g71
NtRp1495
(dp1496
g74
(dp1497
sg83
g1442
sg76
(lp1498
g69
(g90
g71
NtRp1499
(dp1500
g74
(dp1501
sg83
g1495
sg76
(lp1502
g69
(g70
g71
NtRp1503
(dp1504
g74
(dp1505
g82
I3
ssg83
g1499
sg76
(lp1506
S'stable'
p1507
asbasbasbasbasbasbasbag69
(g85
g71
NtRp1508
(dp1509
g74
(dp1510
sg83
g673
sg76
(lp1511
g69
(g90
g71
NtRp1512
(dp1513
g74
(dp1514
g94
g95
ssg83
g1508
sg76
(lp1515
S'wsgi_errors'
p1516
asbag69
(g90
g71
NtRp1517
(dp1518
g74
(dp1519
g101
g102
ssg83
g1508
sg76
(lp1520
S':'
asbag69
(g90
g71
NtRp1521
(dp1522
g74
(dp1523
sg83
g1508
sg76
(lp1524
g69
(g70
g71
NtRp1525
(dp1526
g74
(dp1527
g82
I4
ssg83
g1521
sg76
(lp1528
S"<open file '<stderr>', mode 'w' at 0x100416140>"
p1529
asbasbasbag69
(g85
g71
NtRp1530
(dp1531
g74
(dp1532
sg83
g673
sg76
(lp1533
g69
(g90
g71
NtRp1534
(dp1535
g74
(dp1536
g94
g95
ssg83
g1530
sg76
(lp1537
S'wsgi_file_wrapper'
p1538
asbag69
(g90
g71
NtRp1539
(dp1540
g74
(dp1541
g101
g102
ssg83
g1530
sg76
(lp1542
S':'
asbag69
(g90
g71
NtRp1543
(dp1544
g74
(dp1545
sg83
g1530
sg76
(lp1546
g69
(g70
g71
NtRp1547
(dp1548
g74
(dp1549
g82
I4
ssg83
g1543
sg76
(lp1550
S'<class wsgiref.util.FileWrapper at 0x101a57c50>'
p1551
asbasbasbag69
(g85
g71
NtRp1552
(dp1553
g74
(dp1554
sg83
g673
sg76
(lp1555
g69
(g90
g71
NtRp1556
(dp1557
g74
(dp1558
g94
g95
ssg83
g1552
sg76
(lp1559
S'wsgi_input'
p1560
asbag69
(g90
g71
NtRp1561
(dp1562
g74
(dp1563
g101
g102
ssg83
g1552
sg76
(lp1564
S':'
asbag69
(g90
g71
NtRp1565
(dp1566
g74
(dp1567
sg83
g1552
sg76
(lp1568
g69
(g70
g71
NtRp1569
(dp1570
g74
(dp1571
g82
I4
ssg83
g1565
sg76
(lp1572
S'<socket._fileobject object at 0x1013fe050>'
p1573
asbasbasbag69
(g85
g71
NtRp1574
(dp1575
g74
(dp1576
sg83
g673
sg76
(lp1577
g69
(g90
g71
NtRp1578
(dp1579
g74
(dp1580
g94
g95
ssg83
g1574
sg76
(lp1581
S'wsgi_multiprocess'
p1582
asbag69
(g90
g71
NtRp1583
(dp1584
g74
(dp1585
g101
g102
ssg83
g1574
sg76
(lp1586
S':'
asbag69
(g90
g71
NtRp1587
(dp1588
g74
(dp1589
sg83
g1574
sg76
(lp1590
g69
(g70
g71
NtRp1591
(dp1592
g74
(dp1593
g82
I4
ssg83
g1587
sg76
(lp1594
g112
asbasbasbag69
(g85
g71
NtRp1595
(dp1596
g74
(dp1597
sg83
g673
sg76
(lp1598
g69
(g90
g71
NtRp1599
(dp1600
g74
(dp1601
g94
g95
ssg83
g1595
sg76
(lp1602
S'wsgi_multithread'
p1603
asbag69
(g90
g71
NtRp1604
(dp1605
g74
(dp1606
g101
g102
ssg83
g1595
sg76
(lp1607
S':'
asbag69
(g90
g71
NtRp1608
(dp1609
g74
(dp1610
sg83
g1595
sg76
(lp1611
g69
(g70
g71
NtRp1612
(dp1613
g74
(dp1614
g82
I4
ssg83
g1608
sg76
(lp1615
S'True'
p1616
asbasbasbag69
(g85
g71
NtRp1617
(dp1618
g74
(dp1619
sg83
g673
sg76
(lp1620
g69
(g90
g71
NtRp1621
(dp1622
g74
(dp1623
g94
g95
ssg83
g1617
sg76
(lp1624
S'wsgi_run_once'
p1625
asbag69
(g90
g71
NtRp1626
(dp1627
g74
(dp1628
g101
g102
ssg83
g1617
sg76
(lp1629
S':'
asbag69
(g90
g71
NtRp1630
(dp1631
g74
(dp1632
sg83
g1617
sg76
(lp1633
g69
(g70
g71
NtRp1634
(dp1635
g74
(dp1636
g82
I4
ssg83
g1630
sg76
(lp1637
g112
asbasbasbag69
(g85
g71
NtRp1638
(dp1639
g74
(dp1640
sg83
g673
sg76
(lp1641
g69
(g90
g71
NtRp1642
(dp1643
g74
(dp1644
g94
g95
ssg83
g1638
sg76
(lp1645
S'wsgi_url_scheme'
p1646
asbag69
(g90
g71
NtRp1647
(dp1648
g74
(dp1649
g101
g102
ssg83
g1638
sg76
(lp1650
S':'
asbag69
(g90
g71
NtRp1651
(dp1652
g74
(dp1653
sg83
g1638
sg76
(lp1654
g69
(g70
g71
NtRp1655
(dp1656
g74
(dp1657
g82
I4
ssg83
g1651
sg76
(lp1658
S'http'
p1659
asbasbasbag69
(g85
g71
NtRp1660
(dp1661
g74
(dp1662
sg83
g673
sg76
(lp1663
g69
(g90
g71
NtRp1664
(dp1665
g74
(dp1666
g94
g95
ssg83
g1660
sg76
(lp1667
S'wsgi_version'
p1668
asbag69
(g90
g71
NtRp1669
(dp1670
g74
(dp1671
g101
g102
ssg83
g1660
sg76
(lp1672
S':'
asbag69
(g90
g71
NtRp1673
(dp1674
g74
(dp1675
sg83
g1660
sg76
(lp1676
g69
(g70
g71
NtRp1677
(dp1678
g74
(dp1679
g82
I4
ssg83
g1673
sg76
(lp1680
g69
(g78
g71
NtRp1681
(dp1682
g74
(dp1683
g82
I3
ssg83
Nsg76
(lp1684
g69
(g85
g71
NtRp1685
(dp1686
g74
(dp1687
sg83
g1681
sg76
(lp1688
g69
(g90
g71
NtRp1689
(dp1690
g74
(dp1691
sg83
g1685
sg76
(lp1692
g69
(g70
g71
NtRp1693
(dp1694
g74
(dp1695
g82
I3
ssg83
g1689
sg76
(lp1696
S'1'
asbasbasbag69
(g85
g71
NtRp1697
(dp1698
g74
(dp1699
sg83
g1681
sg76
(lp1700
g69
(g90
g71
NtRp1701
(dp1702
g74
(dp1703
sg83
g1697
sg76
(lp1704
g69
(g70
g71
NtRp1705
(dp1706
g74
(dp1707
g82
I3
ssg83
g1701
sg76
(lp1708
S'0'
asbasbasbasbasbasbasbasbasbasbasbag69
(g85
g71
NtRp1709
(dp1710
g74
(dp1711
sg83
g79
sg76
(lp1712
g69
(g90
g71
NtRp1713
(dp1714
g74
(dp1715
g94
g95
ssg83
g1709
sg76
(lp1716
S'extension'
p1717
asbag69
(g90
g71
NtRp1718
(dp1719
g74
(dp1720
g101
g102
ssg83
g1709
sg76
(lp1721
S':'
asbag69
(g90
g71
NtRp1722
(dp1723
g74
(dp1724
sg83
g1709
sg76
(lp1725
g69
(g70
g71
NtRp1726
(dp1727
g74
(dp1728
g82
I5
ssg83
g1722
sg76
(lp1729
S'html'
p1730
asbasbasbag69
(g85
g71
NtRp1731
(dp1732
g74
(dp1733
sg83
g79
sg76
(lp1734
g69
(g90
g71
NtRp1735
(dp1736
g74
(dp1737
g94
g95
ssg83
g1731
sg76
(lp1738
S'folder'
p1739
asbag69
(g90
g71
NtRp1740
(dp1741
g74
(dp1742
g101
g102
ssg83
g1731
sg76
(lp1743
S':'
asbag69
(g90
g71
NtRp1744
(dp1745
g74
(dp1746
sg83
g1731
sg76
(lp1747
g69
(g70
g71
NtRp1748
(dp1749
g74
(dp1750
g82
I5
ssg83
g1744
sg76
(lp1751
S'/Users/keshav/Desktop/web2py/applications/MyApp/'
p1752
asbasbasbag69
(g85
g71
NtRp1753
(dp1754
g74
(dp1755
sg83
g79
sg76
(lp1756
g69
(g90
g71
NtRp1757
(dp1758
g74
(dp1759
g94
g95
ssg83
g1753
sg76
(lp1760
S'function'
p1761
asbag69
(g90
g71
NtRp1762
(dp1763
g74
(dp1764
g101
g102
ssg83
g1753
sg76
(lp1765
S':'
asbag69
(g90
g71
NtRp1766
(dp1767
g74
(dp1768
sg83
g1753
sg76
(lp1769
g69
(g70
g71
NtRp1770
(dp1771
g74
(dp1772
g82
I5
ssg83
g1766
sg76
(lp1773
S'index'
p1774
asbasbasbag69
(g85
g71
NtRp1775
(dp1776
g74
(dp1777
sg83
g79
sg76
(lp1778
g69
(g90
g71
NtRp1779
(dp1780
g74
(dp1781
g94
g95
ssg83
g1775
sg76
(lp1782
S'get_vars'
p1783
asbag69
(g90
g71
NtRp1784
(dp1785
g74
(dp1786
g101
g102
ssg83
g1775
sg76
(lp1787
S':'
asbag69
(g90
g71
NtRp1788
(dp1789
g74
(dp1790
sg83
g1775
sg76
(lp1791
g69
(g70
g71
NtRp1792
(dp1793
g74
(dp1794
g82
I5
ssg83
g1788
sg76
(lp1795
g69
(g78
g71
NtRp1796
(dp1797
g74
(dp1798
g82
I4
ssg83
Nsg76
(lp1799
sbasbasbasbag69
(g85
g71
NtRp1800
(dp1801
g74
(dp1802
sg83
g79
sg76
(lp1803
g69
(g90
g71
NtRp1804
(dp1805
g74
(dp1806
g94
g95
ssg83
g1800
sg76
(lp1807
S'global_settings'
p1808
asbag69
(g90
g71
NtRp1809
(dp1810
g74
(dp1811
g101
g102
ssg83
g1800
sg76
(lp1812
S':'
asbag69
(g90
g71
NtRp1813
(dp1814
g74
(dp1815
sg83
g1800
sg76
(lp1816
g69
(g70
g71
NtRp1817
(dp1818
g74
(dp1819
g82
I5
ssg83
g1813
sg76
(lp1820
g69
(g78
g71
NtRp1821
(dp1822
g74
(dp1823
g82
I4
ssg83
Nsg76
(lp1824
g69
(g85
g71
NtRp1825
(dp1826
g74
(dp1827
sg83
g1821
sg76
(lp1828
g69
(g90
g71
NtRp1829
(dp1830
g74
(dp1831
g94
g95
ssg83
g1825
sg76
(lp1832
g685
asbag69
(g90
g71
NtRp1833
(dp1834
g74
(dp1835
g101
g102
ssg83
g1825
sg76
(lp1836
S':'
asbag69
(g90
g71
NtRp1837
(dp1838
g74
(dp1839
sg83
g1825
sg76
(lp1840
g69
(g70
g71
NtRp1841
(dp1842
g74
(dp1843
g82
I4
ssg83
g1837
sg76
(lp1844
S"set(['/Users/keshav/Desktop/web2py/applications/MyApp/', '/Users/keshav/Desktop/web2py/applications/admin/', '/Users/keshav/Desktop/web2py/applications/welcome/'])"
p1845
asbasbasbag69
(g85
g71
NtRp1846
(dp1847
g74
(dp1848
sg83
g1821
sg76
(lp1849
g69
(g90
g71
NtRp1850
(dp1851
g74
(dp1852
g94
g95
ssg83
g1846
sg76
(lp1853
g707
asbag69
(g90
g71
NtRp1854
(dp1855
g74
(dp1856
g101
g102
ssg83
g1846
sg76
(lp1857
S':'
asbag69
(g90
g71
NtRp1858
(dp1859
g74
(dp1860
sg83
g1846
sg76
(lp1861
g69
(g70
g71
NtRp1862
(dp1863
g74
(dp1864
g82
I4
ssg83
g1858
sg76
(lp1865
g720
asbasbasbag69
(g85
g71
NtRp1866
(dp1867
g74
(dp1868
sg83
g1821
sg76
(lp1869
g69
(g90
g71
NtRp1870
(dp1871
g74
(dp1872
g94
g95
ssg83
g1866
sg76
(lp1873
g729
asbag69
(g90
g71
NtRp1874
(dp1875
g74
(dp1876
g101
g102
ssg83
g1866
sg76
(lp1877
S':'
asbag69
(g90
g71
NtRp1878
(dp1879
g74
(dp1880
sg83
g1866
sg76
(lp1881
g69
(g70
g71
NtRp1882
(dp1883
g74
(dp1884
g82
I4
ssg83
g1878
sg76
(lp1885
g69
(g78
g71
NtRp1886
(dp1887
g74
(dp1888
g82
I3
ssg83
Nsg76
(lp1889
sbasbasbasbag69
(g85
g71
NtRp1890
(dp1891
g74
(dp1892
sg83
g1821
sg76
(lp1893
g69
(g90
g71
NtRp1894
(dp1895
g74
(dp1896
g94
g95
ssg83
g1890
sg76
(lp1897
g754
asbag69
(g90
g71
NtRp1898
(dp1899
g74
(dp1900
g101
g102
ssg83
g1890
sg76
(lp1901
S':'
asbag69
(g90
g71
NtRp1902
(dp1903
g74
(dp1904
sg83
g1890
sg76
(lp1905
g69
(g70
g71
NtRp1906
(dp1907
g74
(dp1908
g82
I4
ssg83
g1902
sg76
(lp1909
S"<Values at 0x101acb638: {'verbose': False, 'ip': '127.0.0.1', 'with_scheduler': False, 'ips': ['10.160.0.40'], 'shutdown_timeout': 5, 'taskbar': False, 'port': 8000, 'maxthreads': None, 'softcron': False, 'server_name': 'Keshav-Choudharys-MacBook.local', 'bpython': False, 'nogui': False, 'pid_filename': 'httpserver.pid', 'extcron': False, 'runcron': False, 'run_system_tests': False, 'test': None, 'folder': '/Users/keshav/Desktop/web2py', 'config': '', 'minthreads': None, 'winservice': '', 'shell': None, 'run': '', 'log_filename': 'httpserver.log', 'debuglevel': 30, 'args': [''], 'socket_timeout': 5, 'ssl_ca_certificate': None, 'scheduler': None, 'profiler_filename': None, 'ssl_private_key': '', 'scheduler_groups': None, 'password': '<ask>', 'request_queue_size': 5, 'ssl_certificate': '', 'cronjob': False, 'numthreads': None, 'quiet': False, 'interfaces': None, 'import_models': False, 'timeout': 10, 'plain': False, 'nobanner': False}>"
p1910
asbasbasbag69
(g85
g71
NtRp1911
(dp1912
g74
(dp1913
sg83
g1821
sg76
(lp1914
g69
(g90
g71
NtRp1915
(dp1916
g74
(dp1917
g94
g95
ssg83
g1911
sg76
(lp1918
g776
asbag69
(g90
g71
NtRp1919
(dp1920
g74
(dp1921
g101
g102
ssg83
g1911
sg76
(lp1922
S':'
asbag69
(g90
g71
NtRp1923
(dp1924
g74
(dp1925
sg83
g1911
sg76
(lp1926
g69
(g70
g71
NtRp1927
(dp1928
g74
(dp1929
g82
I4
ssg83
g1923
sg76
(lp1930
S'set([])'
p1931
asbasbasbag69
(g85
g71
NtRp1932
(dp1933
g74
(dp1934
sg83
g1821
sg76
(lp1935
g69
(g90
g71
NtRp1936
(dp1937
g74
(dp1938
g94
g95
ssg83
g1932
sg76
(lp1939
g798
asbag69
(g90
g71
NtRp1940
(dp1941
g74
(dp1942
g101
g102
ssg83
g1932
sg76
(lp1943
S':'
asbag69
(g90
g71
NtRp1944
(dp1945
g74
(dp1946
sg83
g1932
sg76
(lp1947
g69
(g70
g71
NtRp1948
(dp1949
g74
(dp1950
g82
I4
ssg83
g1944
sg76
(lp1951
g112
asbasbasbag69
(g85
g71
NtRp1952
(dp1953
g74
(dp1954
sg83
g1821
sg76
(lp1955
g69
(g90
g71
NtRp1956
(dp1957
g74
(dp1958
g94
g95
ssg83
g1952
sg76
(lp1959
g819
asbag69
(g90
g71
NtRp1960
(dp1961
g74
(dp1962
g101
g102
ssg83
g1952
sg76
(lp1963
S':'
asbag69
(g90
g71
NtRp1964
(dp1965
g74
(dp1966
sg83
g1952
sg76
(lp1967
g69
(g70
g71
NtRp1968
(dp1969
g74
(dp1970
g82
I4
ssg83
g1964
sg76
(lp1971
g832
asbasbasbag69
(g85
g71
NtRp1972
(dp1973
g74
(dp1974
sg83
g1821
sg76
(lp1975
g69
(g90
g71
NtRp1976
(dp1977
g74
(dp1978
g94
g95
ssg83
g1972
sg76
(lp1979
g1039
asbag69
(g90
g71
NtRp1980
(dp1981
g74
(dp1982
g101
g102
ssg83
g1972
sg76
(lp1983
S':'
asbag69
(g90
g71
NtRp1984
(dp1985
g74
(dp1986
sg83
g1972
sg76
(lp1987
g69
(g70
g71
NtRp1988
(dp1989
g74
(dp1990
g82
I4
ssg83
g1984
sg76
(lp1991
g112
asbasbasbag69
(g85
g71
NtRp1992
(dp1993
g74
(dp1994
sg83
g1821
sg76
(lp1995
g69
(g90
g71
NtRp1996
(dp1997
g74
(dp1998
g94
g95
ssg83
g1992
sg76
(lp1999
g1060
asbag69
(g90
g71
NtRp2000
(dp2001
g74
(dp2002
g101
g102
ssg83
g1992
sg76
(lp2003
S':'
asbag69
(g90
g71
NtRp2004
(dp2005
g74
(dp2006
sg83
g1992
sg76
(lp2007
g69
(g70
g71
NtRp2008
(dp2009
g74
(dp2010
g82
I4
ssg83
g2004
sg76
(lp2011
g112
asbasbasbag69
(g85
g71
NtRp2012
(dp2013
g74
(dp2014
sg83
g1821
sg76
(lp2015
g69
(g90
g71
NtRp2016
(dp2017
g74
(dp2018
g94
g95
ssg83
g2012
sg76
(lp2019
g1081
asbag69
(g90
g71
NtRp2020
(dp2021
g74
(dp2022
g101
g102
ssg83
g2012
sg76
(lp2023
S':'
asbag69
(g90
g71
NtRp2024
(dp2025
g74
(dp2026
sg83
g2012
sg76
(lp2027
g69
(g70
g71
NtRp2028
(dp2029
g74
(dp2030
g82
I4
ssg83
g2024
sg76
(lp2031
g69
(g78
g71
NtRp2032
(dp2033
g74
(dp2034
g82
I3
ssg83
Nsg76
(lp2035
g69
(g85
g71
NtRp2036
(dp2037
g74
(dp2038
sg83
g2032
sg76
(lp2039
g69
(g90
g71
NtRp2040
(dp2041
g74
(dp2042
sg83
g2036
sg76
(lp2043
g69
(g70
g71
NtRp2044
(dp2045
g74
(dp2046
g82
I3
ssg83
g2040
sg76
(lp2047
g1110
asbasbasbag69
(g85
g71
NtRp2048
(dp2049
g74
(dp2050
sg83
g2032
sg76
(lp2051
g69
(g90
g71
NtRp2052
(dp2053
g74
(dp2054
sg83
g2048
sg76
(lp2055
g69
(g70
g71
NtRp2056
(dp2057
g74
(dp2058
g82
I3
ssg83
g2052
sg76
(lp2059
g1123
asbasbasbag69
(g85
g71
NtRp2060
(dp2061
g74
(dp2062
sg83
g2032
sg76
(lp2063
g69
(g90
g71
NtRp2064
(dp2065
g74
(dp2066
sg83
g2060
sg76
(lp2067
g69
(g70
g71
NtRp2068
(dp2069
g74
(dp2070
g82
I3
ssg83
g2064
sg76
(lp2071
g1136
asbasbasbag69
(g85
g71
NtRp2072
(dp2073
g74
(dp2074
sg83
g2032
sg76
(lp2075
g69
(g90
g71
NtRp2076
(dp2077
g74
(dp2078
sg83
g2072
sg76
(lp2079
g69
(g70
g71
NtRp2080
(dp2081
g74
(dp2082
g82
I3
ssg83
g2076
sg76
(lp2083
g1149
asbasbasbag69
(g85
g71
NtRp2084
(dp2085
g74
(dp2086
sg83
g2032
sg76
(lp2087
g69
(g90
g71
NtRp2088
(dp2089
g74
(dp2090
sg83
g2084
sg76
(lp2091
g69
(g70
g71
NtRp2092
(dp2093
g74
(dp2094
g82
I3
ssg83
g2088
sg76
(lp2095
g1162
asbasbasbasbasbasbasbag69
(g85
g71
NtRp2096
(dp2097
g74
(dp2098
sg83
g1821
sg76
(lp2099
g69
(g90
g71
NtRp2100
(dp2101
g74
(dp2102
g94
g95
ssg83
g2096
sg76
(lp2103
g1429
asbag69
(g90
g71
NtRp2104
(dp2105
g74
(dp2106
g101
g102
ssg83
g2096
sg76
(lp2107
S':'
asbag69
(g90
g71
NtRp2108
(dp2109
g74
(dp2110
sg83
g2096
sg76
(lp2111
g69
(g70
g71
NtRp2112
(dp2113
g74
(dp2114
g82
I4
ssg83
g2108
sg76
(lp2115
g69
(g78
g71
NtRp2116
(dp2117
g74
(dp2118
g82
I3
ssg83
Nsg76
(lp2119
g69
(g85
g71
NtRp2120
(dp2121
g74
(dp2122
sg83
g2116
sg76
(lp2123
g69
(g90
g71
NtRp2124
(dp2125
g74
(dp2126
sg83
g2120
sg76
(lp2127
g69
(g70
g71
NtRp2128
(dp2129
g74
(dp2130
g82
I3
ssg83
g2124
sg76
(lp2131
S'2'
asbasbasbag69
(g85
g71
NtRp2132
(dp2133
g74
(dp2134
sg83
g2116
sg76
(lp2135
g69
(g90
g71
NtRp2136
(dp2137
g74
(dp2138
sg83
g2132
sg76
(lp2139
g69
(g70
g71
NtRp2140
(dp2141
g74
(dp2142
g82
I3
ssg83
g2136
sg76
(lp2143
S'2'
asbasbasbag69
(g85
g71
NtRp2144
(dp2145
g74
(dp2146
sg83
g2116
sg76
(lp2147
g69
(g90
g71
NtRp2148
(dp2149
g74
(dp2150
sg83
g2144
sg76
(lp2151
g69
(g70
g71
NtRp2152
(dp2153
g74
(dp2154
g82
I3
ssg83
g2148
sg76
(lp2155
S'1'
asbasbasbag69
(g85
g71
NtRp2156
(dp2157
g74
(dp2158
sg83
g2116
sg76
(lp2159
g69
(g90
g71
NtRp2160
(dp2161
g74
(dp2162
sg83
g2156
sg76
(lp2163
g69
(g70
g71
NtRp2164
(dp2165
g74
(dp2166
g82
I3
ssg83
g2160
sg76
(lp2167
S'datetime.datetime(2012, 10, 21, 16, 57, 4)'
p2168
asbasbasbag69
(g85
g71
NtRp2169
(dp2170
g74
(dp2171
sg83
g2116
sg76
(lp2172
g69
(g90
g71
NtRp2173
(dp2174
g74
(dp2175
sg83
g2169
sg76
(lp2176
g69
(g70
g71
NtRp2177
(dp2178
g74
(dp2179
g82
I3
ssg83
g2173
sg76
(lp2180
g1507
asbasbasbasbasbasbasbasbasbasbasbag69
(g85
g71
NtRp2181
(dp2182
g74
(dp2183
sg83
g79
sg76
(lp2184
g69
(g90
g71
NtRp2185
(dp2186
g74
(dp2187
g94
g95
ssg83
g2181
sg76
(lp2188
S'is_https'
p2189
asbag69
(g90
g71
NtRp2190
(dp2191
g74
(dp2192
g101
g102
ssg83
g2181
sg76
(lp2193
S':'
asbag69
(g90
g71
NtRp2194
(dp2195
g74
(dp2196
sg83
g2181
sg76
(lp2197
g69
(g70
g71
NtRp2198
(dp2199
g74
(dp2200
g82
I5
ssg83
g2194
sg76
(lp2201
g112
asbasbasbag69
(g85
g71
NtRp2202
(dp2203
g74
(dp2204
sg83
g79
sg76
(lp2205
g69
(g90
g71
NtRp2206
(dp2207
g74
(dp2208
g94
g95
ssg83
g2202
sg76
(lp2209
S'is_local'
p2210
asbag69
(g90
g71
NtRp2211
(dp2212
g74
(dp2213
g101
g102
ssg83
g2202
sg76
(lp2214
S':'
asbag69
(g90
g71
NtRp2215
(dp2216
g74
(dp2217
sg83
g2202
sg76
(lp2218
g69
(g70
g71
NtRp2219
(dp2220
g74
(dp2221
g82
I5
ssg83
g2215
sg76
(lp2222
g1616
asbasbasbag69
(g85
g71
NtRp2223
(dp2224
g74
(dp2225
sg83
g79
sg76
(lp2226
g69
(g90
g71
NtRp2227
(dp2228
g74
(dp2229
g94
g95
ssg83
g2223
sg76
(lp2230
S'is_restful'
p2231
asbag69
(g90
g71
NtRp2232
(dp2233
g74
(dp2234
g101
g102
ssg83
g2223
sg76
(lp2235
S':'
asbag69
(g90
g71
NtRp2236
(dp2237
g74
(dp2238
sg83
g2223
sg76
(lp2239
g69
(g70
g71
NtRp2240
(dp2241
g74
(dp2242
g82
I5
ssg83
g2236
sg76
(lp2243
g112
asbasbasbag69
(g85
g71
NtRp2244
(dp2245
g74
(dp2246
sg83
g79
sg76
(lp2247
g69
(g90
g71
NtRp2248
(dp2249
g74
(dp2250
g94
g95
ssg83
g2244
sg76
(lp2251
S'now'
p2252
asbag69
(g90
g71
NtRp2253
(dp2254
g74
(dp2255
g101
g102
ssg83
g2244
sg76
(lp2256
S':'
asbag69
(g90
g71
NtRp2257
(dp2258
g74
(dp2259
sg83
g2244
sg76
(lp2260
g69
(g70
g71
NtRp2261
(dp2262
g74
(dp2263
g82
I5
ssg83
g2257
sg76
(lp2264
S'datetime.datetime(2012, 11, 6, 18, 49, 55, 623156)'
p2265
asbasbasbag69
(g85
g71
NtRp2266
(dp2267
g74
(dp2268
sg83
g79
sg76
(lp2269
g69
(g90
g71
NtRp2270
(dp2271
g74
(dp2272
g94
g95
ssg83
g2266
sg76
(lp2273
S'post_vars'
p2274
asbag69
(g90
g71
NtRp2275
(dp2276
g74
(dp2277
g101
g102
ssg83
g2266
sg76
(lp2278
S':'
asbag69
(g90
g71
NtRp2279
(dp2280
g74
(dp2281
sg83
g2266
sg76
(lp2282
g69
(g70
g71
NtRp2283
(dp2284
g74
(dp2285
g82
I5
ssg83
g2279
sg76
(lp2286
g69
(g78
g71
NtRp2287
(dp2288
g74
(dp2289
g82
I4
ssg83
Nsg76
(lp2290
sbasbasbasbag69
(g85
g71
NtRp2291
(dp2292
g74
(dp2293
sg83
g79
sg76
(lp2294
g69
(g90
g71
NtRp2295
(dp2296
g74
(dp2297
g94
g95
ssg83
g2291
sg76
(lp2298
S'raw_args'
p2299
asbag69
(g90
g71
NtRp2300
(dp2301
g74
(dp2302
g101
g102
ssg83
g2291
sg76
(lp2303
S':'
asbag69
(g90
g71
NtRp2304
(dp2305
g74
(dp2306
sg83
g2291
sg76
(lp2307
g69
(g70
g71
NtRp2308
(dp2309
g74
(dp2310
g82
I5
ssg83
g2304
sg76
(lp2311
S''
asbasbasbag69
(g85
g71
NtRp2312
(dp2313
g74
(dp2314
sg83
g79
sg76
(lp2315
g69
(g90
g71
NtRp2316
(dp2317
g74
(dp2318
g94
g95
ssg83
g2312
sg76
(lp2319
S'raw_extension'
p2320
asbag69
(g90
g71
NtRp2321
(dp2322
g74
(dp2323
g101
g102
ssg83
g2312
sg76
(lp2324
S':'
asbag69
(g90
g71
NtRp2325
(dp2326
g74
(dp2327
sg83
g2312
sg76
(lp2328
g69
(g70
g71
NtRp2329
(dp2330
g74
(dp2331
g82
I5
ssg83
g2325
sg76
(lp2332
S'None'
p2333
asbasbasbag69
(g85
g71
NtRp2334
(dp2335
g74
(dp2336
sg83
g79
sg76
(lp2337
g69
(g90
g71
NtRp2338
(dp2339
g74
(dp2340
g94
g95
ssg83
g2334
sg76
(lp2341
S'url'
p2342
asbag69
(g90
g71
NtRp2343
(dp2344
g74
(dp2345
g101
g102
ssg83
g2334
sg76
(lp2346
S':'
asbag69
(g90
g71
NtRp2347
(dp2348
g74
(dp2349
sg83
g2334
sg76
(lp2350
g69
(g70
g71
NtRp2351
(dp2352
g74
(dp2353
g82
I5
ssg83
g2347
sg76
(lp2354
g1184
asbasbasbag69
(g85
g71
NtRp2355
(dp2356
g74
(dp2357
sg83
g79
sg76
(lp2358
g69
(g90
g71
NtRp2359
(dp2360
g74
(dp2361
g94
g95
ssg83
g2355
sg76
(lp2362
S'utcnow'
p2363
asbag69
(g90
g71
NtRp2364
(dp2365
g74
(dp2366
g101
g102
ssg83
g2355
sg76
(lp2367
S':'
asbag69
(g90
g71
NtRp2368
(dp2369
g74
(dp2370
sg83
g2355
sg76
(lp2371
g69
(g70
g71
NtRp2372
(dp2373
g74
(dp2374
g82
I5
ssg83
g2368
sg76
(lp2375
S'datetime.datetime(2012, 11, 6, 13, 19, 55, 623166)'
p2376
asbasbasbag69
(g85
g71
NtRp2377
(dp2378
g74
(dp2379
sg83
g79
sg76
(lp2380
g69
(g90
g71
NtRp2381
(dp2382
g74
(dp2383
g94
g95
ssg83
g2377
sg76
(lp2384
S'uuid'
p2385
asbag69
(g90
g71
NtRp2386
(dp2387
g74
(dp2388
g101
g102
ssg83
g2377
sg76
(lp2389
S':'
asbag69
(g90
g71
NtRp2390
(dp2391
g74
(dp2392
sg83
g2377
sg76
(lp2393
g69
(g70
g71
NtRp2394
(dp2395
g74
(dp2396
g82
I5
ssg83
g2390
sg76
(lp2397
S'MyApp/127.0.0.1.2012-11-06.18-49-55.ffd2fe4a-06fd-422d-9b06-02700581dd86'
p2398
asbasbasbag69
(g85
g71
NtRp2399
(dp2400
g74
(dp2401
sg83
g79
sg76
(lp2402
g69
(g90
g71
NtRp2403
(dp2404
g74
(dp2405
g94
g95
ssg83
g2399
sg76
(lp2406
S'vars'
p2407
asbag69
(g90
g71
NtRp2408
(dp2409
g74
(dp2410
g101
g102
ssg83
g2399
sg76
(lp2411
S':'
asbag69
(g90
g71
NtRp2412
(dp2413
g74
(dp2414
sg83
g2399
sg76
(lp2415
g69
(g70
g71
NtRp2416
(dp2417
g74
(dp2418
g82
I5
ssg83
g2412
sg76
(lp2419
g69
(g78
g71
NtRp2420
(dp2421
g74
(dp2422
g82
I4
ssg83
Nsg76
(lp2423
sbasbasbasbag69
(g85
g71
NtRp2424
(dp2425
g74
(dp2426
sg83
g79
sg76
(lp2427
g69
(g90
g71
NtRp2428
(dp2429
g74
(dp2430
g94
g95
ssg83
g2424
sg76
(lp2431
S'wsgi'
p2432
asbag69
(g90
g71
NtRp2433
(dp2434
g74
(dp2435
g101
g102
ssg83
g2424
sg76
(lp2436
S':'
asbag69
(g90
g71
NtRp2437
(dp2438
g74
(dp2439
sg83
g2424
sg76
(lp2440
g69
(g70
g71
NtRp2441
(dp2442
g74
(dp2443
g82
I5
ssg83
g2437
sg76
(lp2444
g69
(g78
g71
NtRp2445
(dp2446
g74
(dp2447
g82
I4
ssg83
Nsg76
(lp2448
g69
(g85
g71
NtRp2449
(dp2450
g74
(dp2451
sg83
g2445
sg76
(lp2452
g69
(g90
g71
NtRp2453
(dp2454
g74
(dp2455
g94
g95
ssg83
g2449
sg76
(lp2456
S'environ'
p2457
asbag69
(g90
g71
NtRp2458
(dp2459
g74
(dp2460
g101
g102
ssg83
g2449
sg76
(lp2461
S':'
asbag69
(g90
g71
NtRp2462
(dp2463
g74
(dp2464
sg83
g2449
sg76
(lp2465
g69
(g70
g71
NtRp2466
(dp2467
g74
(dp2468
g82
I4
ssg83
g2462
sg76
(lp2469
g69
(g78
g71
NtRp2470
(dp2471
g74
(dp2472
g82
I3
ssg83
Nsg76
(lp2473
g69
(g85
g71
NtRp2474
(dp2475
g74
(dp2476
sg83
g2470
sg76
(lp2477
g69
(g90
g71
NtRp2478
(dp2479
g74
(dp2480
g94
g95
ssg83
g2474
sg76
(lp2481
S'HTTP_ACCEPT'
p2482
asbag69
(g90
g71
NtRp2483
(dp2484
g74
(dp2485
g101
g102
ssg83
g2474
sg76
(lp2486
S':'
asbag69
(g90
g71
NtRp2487
(dp2488
g74
(dp2489
sg83
g2474
sg76
(lp2490
g69
(g70
g71
NtRp2491
(dp2492
g74
(dp2493
g82
I3
ssg83
g2487
sg76
(lp2494
g854
asbasbasbag69
(g85
g71
NtRp2495
(dp2496
g74
(dp2497
sg83
g2470
sg76
(lp2498
g69
(g90
g71
NtRp2499
(dp2500
g74
(dp2501
g94
g95
ssg83
g2495
sg76
(lp2502
S'HTTP_ACCEPT_CHARSET'
p2503
asbag69
(g90
g71
NtRp2504
(dp2505
g74
(dp2506
g101
g102
ssg83
g2495
sg76
(lp2507
S':'
asbag69
(g90
g71
NtRp2508
(dp2509
g74
(dp2510
sg83
g2495
sg76
(lp2511
g69
(g70
g71
NtRp2512
(dp2513
g74
(dp2514
g82
I3
ssg83
g2508
sg76
(lp2515
g876
asbasbasbag69
(g85
g71
NtRp2516
(dp2517
g74
(dp2518
sg83
g2470
sg76
(lp2519
g69
(g90
g71
NtRp2520
(dp2521
g74
(dp2522
g94
g95
ssg83
g2516
sg76
(lp2523
S'HTTP_ACCEPT_ENCODING'
p2524
asbag69
(g90
g71
NtRp2525
(dp2526
g74
(dp2527
g101
g102
ssg83
g2516
sg76
(lp2528
S':'
asbag69
(g90
g71
NtRp2529
(dp2530
g74
(dp2531
sg83
g2516
sg76
(lp2532
g69
(g70
g71
NtRp2533
(dp2534
g74
(dp2535
g82
I3
ssg83
g2529
sg76
(lp2536
g898
asbasbasbag69
(g85
g71
NtRp2537
(dp2538
g74
(dp2539
sg83
g2470
sg76
(lp2540
g69
(g90
g71
NtRp2541
(dp2542
g74
(dp2543
g94
g95
ssg83
g2537
sg76
(lp2544
S'HTTP_ACCEPT_LANGUAGE'
p2545
asbag69
(g90
g71
NtRp2546
(dp2547
g74
(dp2548
g101
g102
ssg83
g2537
sg76
(lp2549
S':'
asbag69
(g90
g71
NtRp2550
(dp2551
g74
(dp2552
sg83
g2537
sg76
(lp2553
g69
(g70
g71
NtRp2554
(dp2555
g74
(dp2556
g82
I3
ssg83
g2550
sg76
(lp2557
g920
asbasbasbag69
(g85
g71
NtRp2558
(dp2559
g74
(dp2560
sg83
g2470
sg76
(lp2561
g69
(g90
g71
NtRp2562
(dp2563
g74
(dp2564
g94
g95
ssg83
g2558
sg76
(lp2565
S'HTTP_CACHE_CONTROL'
p2566
asbag69
(g90
g71
NtRp2567
(dp2568
g74
(dp2569
g101
g102
ssg83
g2558
sg76
(lp2570
S':'
asbag69
(g90
g71
NtRp2571
(dp2572
g74
(dp2573
sg83
g2558
sg76
(lp2574
g69
(g70
g71
NtRp2575
(dp2576
g74
(dp2577
g82
I3
ssg83
g2571
sg76
(lp2578
g942
asbasbasbag69
(g85
g71
NtRp2579
(dp2580
g74
(dp2581
sg83
g2470
sg76
(lp2582
g69
(g90
g71
NtRp2583
(dp2584
g74
(dp2585
g94
g95
ssg83
g2579
sg76
(lp2586
S'HTTP_CONNECTION'
p2587
asbag69
(g90
g71
NtRp2588
(dp2589
g74
(dp2590
g101
g102
ssg83
g2579
sg76
(lp2591
S':'
asbag69
(g90
g71
NtRp2592
(dp2593
g74
(dp2594
sg83
g2579
sg76
(lp2595
g69
(g70
g71
NtRp2596
(dp2597
g74
(dp2598
g82
I3
ssg83
g2592
sg76
(lp2599
g964
asbasbasbag69
(g85
g71
NtRp2600
(dp2601
g74
(dp2602
sg83
g2470
sg76
(lp2603
g69
(g90
g71
NtRp2604
(dp2605
g74
(dp2606
g94
g95
ssg83
g2600
sg76
(lp2607
S'HTTP_COOKIE'
p2608
asbag69
(g90
g71
NtRp2609
(dp2610
g74
(dp2611
g101
g102
ssg83
g2600
sg76
(lp2612
S':'
asbag69
(g90
g71
NtRp2613
(dp2614
g74
(dp2615
sg83
g2600
sg76
(lp2616
g69
(g70
g71
NtRp2617
(dp2618
g74
(dp2619
g82
I3
ssg83
g2613
sg76
(lp2620
g986
asbasbasbag69
(g85
g71
NtRp2621
(dp2622
g74
(dp2623
sg83
g2470
sg76
(lp2624
g69
(g90
g71
NtRp2625
(dp2626
g74
(dp2627
g94
g95
ssg83
g2621
sg76
(lp2628
S'HTTP_HOST'
p2629
asbag69
(g90
g71
NtRp2630
(dp2631
g74
(dp2632
g101
g102
ssg83
g2621
sg76
(lp2633
S':'
asbag69
(g90
g71
NtRp2634
(dp2635
g74
(dp2636
sg83
g2621
sg76
(lp2637
g69
(g70
g71
NtRp2638
(dp2639
g74
(dp2640
g82
I3
ssg83
g2634
sg76
(lp2641
g1008
asbasbasbag69
(g85
g71
NtRp2642
(dp2643
g74
(dp2644
sg83
g2470
sg76
(lp2645
g69
(g90
g71
NtRp2646
(dp2647
g74
(dp2648
g94
g95
ssg83
g2642
sg76
(lp2649
S'HTTP_USER_AGENT'
p2650
asbag69
(g90
g71
NtRp2651
(dp2652
g74
(dp2653
g101
g102
ssg83
g2642
sg76
(lp2654
S':'
asbag69
(g90
g71
NtRp2655
(dp2656
g74
(dp2657
sg83
g2642
sg76
(lp2658
g69
(g70
g71
NtRp2659
(dp2660
g74
(dp2661
g82
I3
ssg83
g2655
sg76
(lp2662
g1030
asbasbasbag69
(g85
g71
NtRp2663
(dp2664
g74
(dp2665
sg83
g2470
sg76
(lp2666
g69
(g90
g71
NtRp2667
(dp2668
g74
(dp2669
g94
g95
ssg83
g2663
sg76
(lp2670
S'PATH_INFO'
p2671
asbag69
(g90
g71
NtRp2672
(dp2673
g74
(dp2674
g101
g102
ssg83
g2663
sg76
(lp2675
S':'
asbag69
(g90
g71
NtRp2676
(dp2677
g74
(dp2678
sg83
g2663
sg76
(lp2679
g69
(g70
g71
NtRp2680
(dp2681
g74
(dp2682
g82
I3
ssg83
g2676
sg76
(lp2683
g1184
asbasbasbag69
(g85
g71
NtRp2684
(dp2685
g74
(dp2686
sg83
g2470
sg76
(lp2687
g69
(g90
g71
NtRp2688
(dp2689
g74
(dp2690
g94
g95
ssg83
g2684
sg76
(lp2691
S'QUERY_STRING'
p2692
asbag69
(g90
g71
NtRp2693
(dp2694
g74
(dp2695
g101
g102
ssg83
g2684
sg76
(lp2696
S':'
asbag69
(g90
g71
NtRp2697
(dp2698
g74
(dp2699
sg83
g2684
sg76
(lp2700
g69
(g70
g71
NtRp2701
(dp2702
g74
(dp2703
g82
I3
ssg83
g2697
sg76
(lp2704
S''
asbasbasbag69
(g85
g71
NtRp2705
(dp2706
g74
(dp2707
sg83
g2470
sg76
(lp2708
g69
(g90
g71
NtRp2709
(dp2710
g74
(dp2711
g94
g95
ssg83
g2705
sg76
(lp2712
S'REMOTE_ADDR'
p2713
asbag69
(g90
g71
NtRp2714
(dp2715
g74
(dp2716
g101
g102
ssg83
g2705
sg76
(lp2717
S':'
asbag69
(g90
g71
NtRp2718
(dp2719
g74
(dp2720
sg83
g2705
sg76
(lp2721
g69
(g70
g71
NtRp2722
(dp2723
g74
(dp2724
g82
I3
ssg83
g2718
sg76
(lp2725
g224
asbasbasbag69
(g85
g71
NtRp2726
(dp2727
g74
(dp2728
sg83
g2470
sg76
(lp2729
g69
(g90
g71
NtRp2730
(dp2731
g74
(dp2732
g94
g95
ssg83
g2726
sg76
(lp2733
S'REMOTE_PORT'
p2734
asbag69
(g90
g71
NtRp2735
(dp2736
g74
(dp2737
g101
g102
ssg83
g2726
sg76
(lp2738
S':'
asbag69
(g90
g71
NtRp2739
(dp2740
g74
(dp2741
sg83
g2726
sg76
(lp2742
g69
(g70
g71
NtRp2743
(dp2744
g74
(dp2745
g82
I3
ssg83
g2739
sg76
(lp2746
g1248
asbasbasbag69
(g85
g71
NtRp2747
(dp2748
g74
(dp2749
sg83
g2470
sg76
(lp2750
g69
(g90
g71
NtRp2751
(dp2752
g74
(dp2753
g94
g95
ssg83
g2747
sg76
(lp2754
S'REQUEST_METHOD'
p2755
asbag69
(g90
g71
NtRp2756
(dp2757
g74
(dp2758
g101
g102
ssg83
g2747
sg76
(lp2759
S':'
asbag69
(g90
g71
NtRp2760
(dp2761
g74
(dp2762
sg83
g2747
sg76
(lp2763
g69
(g70
g71
NtRp2764
(dp2765
g74
(dp2766
g82
I3
ssg83
g2760
sg76
(lp2767
g1270
asbasbasbag69
(g85
g71
NtRp2768
(dp2769
g74
(dp2770
sg83
g2470
sg76
(lp2771
g69
(g90
g71
NtRp2772
(dp2773
g74
(dp2774
g94
g95
ssg83
g2768
sg76
(lp2775
S'REQUEST_URI'
p2776
asbag69
(g90
g71
NtRp2777
(dp2778
g74
(dp2779
g101
g102
ssg83
g2768
sg76
(lp2780
S':'
asbag69
(g90
g71
NtRp2781
(dp2782
g74
(dp2783
sg83
g2768
sg76
(lp2784
g69
(g70
g71
NtRp2785
(dp2786
g74
(dp2787
g82
I3
ssg83
g2781
sg76
(lp2788
g1184
asbasbasbag69
(g85
g71
NtRp2789
(dp2790
g74
(dp2791
sg83
g2470
sg76
(lp2792
g69
(g90
g71
NtRp2793
(dp2794
g74
(dp2795
g94
g95
ssg83
g2789
sg76
(lp2796
S'SCRIPT_NAME'
p2797
asbag69
(g90
g71
NtRp2798
(dp2799
g74
(dp2800
g101
g102
ssg83
g2789
sg76
(lp2801
S':'
asbag69
(g90
g71
NtRp2802
(dp2803
g74
(dp2804
sg83
g2789
sg76
(lp2805
g69
(g70
g71
NtRp2806
(dp2807
g74
(dp2808
g82
I3
ssg83
g2802
sg76
(lp2809
S''
asbasbasbag69
(g85
g71
NtRp2810
(dp2811
g74
(dp2812
sg83
g2470
sg76
(lp2813
g69
(g90
g71
NtRp2814
(dp2815
g74
(dp2816
g94
g95
ssg83
g2810
sg76
(lp2817
S'SERVER_NAME'
p2818
asbag69
(g90
g71
NtRp2819
(dp2820
g74
(dp2821
g101
g102
ssg83
g2810
sg76
(lp2822
S':'
asbag69
(g90
g71
NtRp2823
(dp2824
g74
(dp2825
sg83
g2810
sg76
(lp2826
g69
(g70
g71
NtRp2827
(dp2828
g74
(dp2829
g82
I3
ssg83
g2823
sg76
(lp2830
g1149
asbasbasbag69
(g85
g71
NtRp2831
(dp2832
g74
(dp2833
sg83
g2470
sg76
(lp2834
g69
(g90
g71
NtRp2835
(dp2836
g74
(dp2837
g94
g95
ssg83
g2831
sg76
(lp2838
S'SERVER_PORT'
p2839
asbag69
(g90
g71
NtRp2840
(dp2841
g74
(dp2842
g101
g102
ssg83
g2831
sg76
(lp2843
S':'
asbag69
(g90
g71
NtRp2844
(dp2845
g74
(dp2846
sg83
g2831
sg76
(lp2847
g69
(g70
g71
NtRp2848
(dp2849
g74
(dp2850
g82
I3
ssg83
g2844
sg76
(lp2851
g1355
asbasbasbag69
(g85
g71
NtRp2852
(dp2853
g74
(dp2854
sg83
g2470
sg76
(lp2855
g69
(g90
g71
NtRp2856
(dp2857
g74
(dp2858
g94
g95
ssg83
g2852
sg76
(lp2859
S'SERVER_PROTOCOL'
p2860
asbag69
(g90
g71
NtRp2861
(dp2862
g74
(dp2863
g101
g102
ssg83
g2852
sg76
(lp2864
S':'
asbag69
(g90
g71
NtRp2865
(dp2866
g74
(dp2867
sg83
g2852
sg76
(lp2868
g69
(g70
g71
NtRp2869
(dp2870
g74
(dp2871
g82
I3
ssg83
g2865
sg76
(lp2872
g1377
asbasbasbag69
(g85
g71
NtRp2873
(dp2874
g74
(dp2875
sg83
g2470
sg76
(lp2876
g69
(g90
g71
NtRp2877
(dp2878
g74
(dp2879
g94
g95
ssg83
g2873
sg76
(lp2880
S'SERVER_SOFTWARE'
p2881
asbag69
(g90
g71
NtRp2882
(dp2883
g74
(dp2884
g101
g102
ssg83
g2873
sg76
(lp2885
S':'
asbag69
(g90
g71
NtRp2886
(dp2887
g74
(dp2888
sg83
g2873
sg76
(lp2889
g69
(g70
g71
NtRp2890
(dp2891
g74
(dp2892
g82
I3
ssg83
g2886
sg76
(lp2893
g1399
asbasbasbag69
(g85
g71
NtRp2894
(dp2895
g74
(dp2896
sg83
g2470
sg76
(lp2897
g69
(g90
g71
NtRp2898
(dp2899
g74
(dp2900
g94
g95
ssg83
g2894
sg76
(lp2901
S'wsgi.errors'
p2902
asbag69
(g90
g71
NtRp2903
(dp2904
g74
(dp2905
g101
g102
ssg83
g2894
sg76
(lp2906
S':'
asbag69
(g90
g71
NtRp2907
(dp2908
g74
(dp2909
sg83
g2894
sg76
(lp2910
g69
(g70
g71
NtRp2911
(dp2912
g74
(dp2913
g82
I3
ssg83
g2907
sg76
(lp2914
S"<open file '<stderr>', mode 'w' at 0x100416140>"
p2915
asbasbasbag69
(g85
g71
NtRp2916
(dp2917
g74
(dp2918
sg83
g2470
sg76
(lp2919
g69
(g90
g71
NtRp2920
(dp2921
g74
(dp2922
g94
g95
ssg83
g2916
sg76
(lp2923
S'wsgi.file_wrapper'
p2924
asbag69
(g90
g71
NtRp2925
(dp2926
g74
(dp2927
g101
g102
ssg83
g2916
sg76
(lp2928
S':'
asbag69
(g90
g71
NtRp2929
(dp2930
g74
(dp2931
sg83
g2916
sg76
(lp2932
g69
(g70
g71
NtRp2933
(dp2934
g74
(dp2935
g82
I3
ssg83
g2929
sg76
(lp2936
S'<class wsgiref.util.FileWrapper at 0x101a57c50>'
p2937
asbasbasbag69
(g85
g71
NtRp2938
(dp2939
g74
(dp2940
sg83
g2470
sg76
(lp2941
g69
(g90
g71
NtRp2942
(dp2943
g74
(dp2944
g94
g95
ssg83
g2938
sg76
(lp2945
S'wsgi.input'
p2946
asbag69
(g90
g71
NtRp2947
(dp2948
g74
(dp2949
g101
g102
ssg83
g2938
sg76
(lp2950
S':'
asbag69
(g90
g71
NtRp2951
(dp2952
g74
(dp2953
sg83
g2938
sg76
(lp2954
g69
(g70
g71
NtRp2955
(dp2956
g74
(dp2957
g82
I3
ssg83
g2951
sg76
(lp2958
S'<cStringIO.StringO object at 0x117feef48>'
p2959
asbasbasbag69
(g85
g71
NtRp2960
(dp2961
g74
(dp2962
sg83
g2470
sg76
(lp2963
g69
(g90
g71
NtRp2964
(dp2965
g74
(dp2966
g94
g95
ssg83
g2960
sg76
(lp2967
S'wsgi.multiprocess'
p2968
asbag69
(g90
g71
NtRp2969
(dp2970
g74
(dp2971
g101
g102
ssg83
g2960
sg76
(lp2972
S':'
asbag69
(g90
g71
NtRp2973
(dp2974
g74
(dp2975
sg83
g2960
sg76
(lp2976
g69
(g70
g71
NtRp2977
(dp2978
g74
(dp2979
g82
I3
ssg83
g2973
sg76
(lp2980
g112
asbasbasbag69
(g85
g71
NtRp2981
(dp2982
g74
(dp2983
sg83
g2470
sg76
(lp2984
g69
(g90
g71
NtRp2985
(dp2986
g74
(dp2987
g94
g95
ssg83
g2981
sg76
(lp2988
S'wsgi.multithread'
p2989
asbag69
(g90
g71
NtRp2990
(dp2991
g74
(dp2992
g101
g102
ssg83
g2981
sg76
(lp2993
S':'
asbag69
(g90
g71
NtRp2994
(dp2995
g74
(dp2996
sg83
g2981
sg76
(lp2997
g69
(g70
g71
NtRp2998
(dp2999
g74
(dp3000
g82
I3
ssg83
g2994
sg76
(lp3001
g1616
asbasbasbag69
(g85
g71
NtRp3002
(dp3003
g74
(dp3004
sg83
g2470
sg76
(lp3005
g69
(g90
g71
NtRp3006
(dp3007
g74
(dp3008
g94
g95
ssg83
g3002
sg76
(lp3009
S'wsgi.run_once'
p3010
asbag69
(g90
g71
NtRp3011
(dp3012
g74
(dp3013
g101
g102
ssg83
g3002
sg76
(lp3014
S':'
asbag69
(g90
g71
NtRp3015
(dp3016
g74
(dp3017
sg83
g3002
sg76
(lp3018
g69
(g70
g71
NtRp3019
(dp3020
g74
(dp3021
g82
I3
ssg83
g3015
sg76
(lp3022
g112
asbasbasbag69
(g85
g71
NtRp3023
(dp3024
g74
(dp3025
sg83
g2470
sg76
(lp3026
g69
(g90
g71
NtRp3027
(dp3028
g74
(dp3029
g94
g95
ssg83
g3023
sg76
(lp3030
S'wsgi.url_scheme'
p3031
asbag69
(g90
g71
NtRp3032
(dp3033
g74
(dp3034
g101
g102
ssg83
g3023
sg76
(lp3035
S':'
asbag69
(g90
g71
NtRp3036
(dp3037
g74
(dp3038
sg83
g3023
sg76
(lp3039
g69
(g70
g71
NtRp3040
(dp3041
g74
(dp3042
g82
I3
ssg83
g3036
sg76
(lp3043
g1659
asbasbasbag69
(g85
g71
NtRp3044
(dp3045
g74
(dp3046
sg83
g2470
sg76
(lp3047
g69
(g90
g71
NtRp3048
(dp3049
g74
(dp3050
g94
g95
ssg83
g3044
sg76
(lp3051
S'wsgi.version'
p3052
asbag69
(g90
g71
NtRp3053
(dp3054
g74
(dp3055
g101
g102
ssg83
g3044
sg76
(lp3056
S':'
asbag69
(g90
g71
NtRp3057
(dp3058
g74
(dp3059
sg83
g3044
sg76
(lp3060
g69
(g70
g71
NtRp3061
(dp3062
g74
(dp3063
g82
I3
ssg83
g3057
sg76
(lp3064
S'1'
asbasbasbasbasbasbasbasbasbasbasbasbasbsS'frames'
p3065
(lp3066
(dp3067
S'file'
p3068
S'/Users/keshav/Desktop/web2py/gluon/restricted.py'
p3069
sS'dump'
p3070
(dp3071
S'code'
p3072
S"'# -*- coding: utf-8 -*-\\n# this file is released ...error\\n\\n\\t\\t\\nresponse._vars=response._caller(index)\\n'"
p3073
sS'layer'
p3074
S"'/Users/keshav/Desktop/web2py/applications/MyApp/controllers/default.py'"
p3075
sS'global compile2'
p3076
S'<function compile2 at 0x10167d0c8>'
p3077
sS'ccode'
p3078
S'undefined'
p3079
ssS'lnum'
p3080
I211
sS'lines'
p3081
(dp3082
I206
S"    environment['__name__'] = '__restricted__'"
p3083
sI207
S'    try:'
p3084
sI208
S'        if isinstance(code, types.CodeType):'
p3085
sI209
S'            ccode = code'
p3086
sI210
S'        else:'
p3087
sI211
S'            ccode = compile2(code, layer)'
p3088
sI212
S'        exec ccode in environment'
p3089
sI213
S'    except HTTP:'
p3090
sI214
S'        raise'
p3091
sI215
S'    except RestrictedError:'
p3092
ssS'call'
p3093
S"(code='# -*- coding: utf-8 -*-\\n# this file is released ...error\\n\\n\\t\\t\\nresponse._vars=response._caller(index)\\n', environment={'A': <class 'gluon.html.A'>, 'Auth': <class 'gluon.tools.Auth'>, 'B': <class 'gluon.html.B'>, 'BEAUTIFY': <class 'gluon.html.BEAUTIFY'>, 'BODY': <class 'gluon.html.BODY'>, 'BR': <class 'gluon.html.BR'>, 'BUTTON': <class 'gluon.html.BUTTON'>, 'CAT': <class 'gluon.html.CAT'>, 'CENTER': <class 'gluon.html.CENTER'>, 'CLEANUP': <class 'gluon.validators.CLEANUP'>, ...}, layer='/Users/keshav/Desktop/web2py/applications/MyApp/controllers/default.py')"
p3094
sS'func'
p3095
S'restricted'
p3096
sa(dp3097
g3068
S'/Users/keshav/Desktop/web2py/gluon/restricted.py'
p3098
sg3070
(dp3099
S'builtincompile'
p3100
S'<built-in function compile>'
p3101
sS'code'
p3102
S"'# -*- coding: utf-8 -*-\\n# this file is released ...error\\n\\n\\t\\t\\nresponse._vars=response._caller(index)\\n'"
p3103
sS'code.rstrip'
p3104
S'<built-in method rstrip of str object at 0x103260e00>'
p3105
sS').replace'
p3106
g3079
sS'layer'
p3107
S"'/Users/keshav/Desktop/web2py/applications/MyApp/controllers/default.py'"
p3108
ssg3080
I194
sg3081
(dp3109
I192
S"    The +'\\n' is necessary else compile fails when code ends in a comment."
p3110
sI193
S'    """'
p3111
sI194
S"    return compile(code.rstrip().replace('\\r\\n', '\\n') + '\\n', layer, 'exec')"
p3112
sI195
S''
sI196
S''
sI197
S"def restricted(code, environment=None, layer='Unknown'):"
p3113
sI198
S'    """'
p3114
sI189
S''
sI190
S'def compile2(code, layer):'
p3115
sI191
S'    """'
p3116
ssg3093
S"(code='# -*- coding: utf-8 -*-\\n# this file is released ...error\\n\\n\\t\\t\\nresponse._vars=response._caller(index)\\n', layer='/Users/keshav/Desktop/web2py/applications/MyApp/controllers/default.py')"
p3117
sg3095
S'compile2'
p3118
sasS'pyver'
p3119
S'Python 2.6.1: /usr/bin/python'
p3120
sS'session'
p3121
g69
(g70
g71
NtRp3122
(dp3123
g74
(dp3124
sg76
(lp3125
g69
(g78
g71
NtRp3126
(dp3127
g74
(dp3128
g82
I5
ssg83
Nsg76
(lp3129
sbasbsS'etype'
p3130
S"<type 'exceptions.IndentationError'>"
p3131
sS'date'
p3132
S'Tue Nov  6 18:49:55 2012'
p3133
sS'response'
p3134
g69
(g70
g71
NtRp3135
(dp3136
g74
(dp3137
sg76
(lp3138
g69
(g78
g71
NtRp3139
(dp3140
g74
(dp3141
g82
I5
ssg83
Nsg76
(lp3142
g69
(g85
g71
NtRp3143
(dp3144
g74
(dp3145
sg83
g3139
sg76
(lp3146
g69
(g90
g71
NtRp3147
(dp3148
g74
(dp3149
g94
g95
ssg83
g3143
sg76
(lp3150
g167
asbag69
(g90
g71
NtRp3151
(dp3152
g74
(dp3153
g101
g102
ssg83
g3143
sg76
(lp3154
S':'
asbag69
(g90
g71
NtRp3155
(dp3156
g74
(dp3157
sg83
g3143
sg76
(lp3158
g69
(g70
g71
NtRp3159
(dp3160
g74
(dp3161
g82
I5
ssg83
g3155
sg76
(lp3162
S'<cStringIO.StringO object at 0x117feef80>'
p3163
asbasbasbag69
(g85
g71
NtRp3164
(dp3165
g74
(dp3166
sg83
g3139
sg76
(lp3167
g69
(g90
g71
NtRp3168
(dp3169
g74
(dp3170
g94
g95
ssg83
g3164
sg76
(lp3171
g255
asbag69
(g90
g71
NtRp3172
(dp3173
g74
(dp3174
g101
g102
ssg83
g3164
sg76
(lp3175
S':'
asbag69
(g90
g71
NtRp3176
(dp3177
g74
(dp3178
sg83
g3164
sg76
(lp3179
g69
(g70
g71
NtRp3180
(dp3181
g74
(dp3182
g82
I5
ssg83
g3176
sg76
(lp3183
g69
(g78
g71
NtRp3184
(dp3185
g74
(dp3186
g82
I4
ssg83
Nsg76
(lp3187
g69
(g85
g71
NtRp3188
(dp3189
g74
(dp3190
sg83
g3184
sg76
(lp3191
g69
(g90
g71
NtRp3192
(dp3193
g74
(dp3194
g94
g95
ssg83
g3188
sg76
(lp3195
S'session_id_myapp'
p3196
asbag69
(g90
g71
NtRp3197
(dp3198
g74
(dp3199
g101
g102
ssg83
g3188
sg76
(lp3200
S':'
asbag69
(g90
g71
NtRp3201
(dp3202
g74
(dp3203
sg83
g3188
sg76
(lp3204
g69
(g70
g71
NtRp3205
(dp3206
g74
(dp3207
g82
I4
ssg83
g3201
sg76
(lp3208
S'127.0.0.1-2e724553-0c02-465f-b258-dbdada808c9f'
p3209
ag69
(g78
g71
NtRp3210
(dp3211
g74
(dp3212
g82
I3
ssg83
Nsg76
(lp3213
g69
(g85
g71
NtRp3214
(dp3215
g74
(dp3216
sg83
g3210
sg76
(lp3217
g69
(g90
g71
NtRp3218
(dp3219
g74
(dp3220
g94
g95
ssg83
g3214
sg76
(lp3221
g306
asbag69
(g90
g71
NtRp3222
(dp3223
g74
(dp3224
g101
g102
ssg83
g3214
sg76
(lp3225
S':'
asbag69
(g90
g71
NtRp3226
(dp3227
g74
(dp3228
sg83
g3214
sg76
(lp3229
g69
(g70
g71
NtRp3230
(dp3231
g74
(dp3232
g82
I3
ssg83
g3226
sg76
(lp3233
S''
asbasbasbag69
(g85
g71
NtRp3234
(dp3235
g74
(dp3236
sg83
g3210
sg76
(lp3237
g69
(g90
g71
NtRp3238
(dp3239
g74
(dp3240
g94
g95
ssg83
g3234
sg76
(lp3241
g327
asbag69
(g90
g71
NtRp3242
(dp3243
g74
(dp3244
g101
g102
ssg83
g3234
sg76
(lp3245
S':'
asbag69
(g90
g71
NtRp3246
(dp3247
g74
(dp3248
sg83
g3234
sg76
(lp3249
g69
(g70
g71
NtRp3250
(dp3251
g74
(dp3252
g82
I3
ssg83
g3246
sg76
(lp3253
S''
asbasbasbag69
(g85
g71
NtRp3254
(dp3255
g74
(dp3256
sg83
g3210
sg76
(lp3257
g69
(g90
g71
NtRp3258
(dp3259
g74
(dp3260
g94
g95
ssg83
g3254
sg76
(lp3261
g348
asbag69
(g90
g71
NtRp3262
(dp3263
g74
(dp3264
g101
g102
ssg83
g3254
sg76
(lp3265
S':'
asbag69
(g90
g71
NtRp3266
(dp3267
g74
(dp3268
sg83
g3254
sg76
(lp3269
g69
(g70
g71
NtRp3270
(dp3271
g74
(dp3272
g82
I3
ssg83
g3266
sg76
(lp3273
S''
asbasbasbag69
(g85
g71
NtRp3274
(dp3275
g74
(dp3276
sg83
g3210
sg76
(lp3277
g69
(g90
g71
NtRp3278
(dp3279
g74
(dp3280
g94
g95
ssg83
g3274
sg76
(lp3281
g369
asbag69
(g90
g71
NtRp3282
(dp3283
g74
(dp3284
g101
g102
ssg83
g3274
sg76
(lp3285
S':'
asbag69
(g90
g71
NtRp3286
(dp3287
g74
(dp3288
sg83
g3274
sg76
(lp3289
g69
(g70
g71
NtRp3290
(dp3291
g74
(dp3292
g82
I3
ssg83
g3286
sg76
(lp3293
S''
asbasbasbag69
(g85
g71
NtRp3294
(dp3295
g74
(dp3296
sg83
g3210
sg76
(lp3297
g69
(g90
g71
NtRp3298
(dp3299
g74
(dp3300
g94
g95
ssg83
g3294
sg76
(lp3301
g390
asbag69
(g90
g71
NtRp3302
(dp3303
g74
(dp3304
g101
g102
ssg83
g3294
sg76
(lp3305
S':'
asbag69
(g90
g71
NtRp3306
(dp3307
g74
(dp3308
sg83
g3294
sg76
(lp3309
g69
(g70
g71
NtRp3310
(dp3311
g74
(dp3312
g82
I3
ssg83
g3306
sg76
(lp3313
S''
asbasbasbag69
(g85
g71
NtRp3314
(dp3315
g74
(dp3316
sg83
g3210
sg76
(lp3317
g69
(g90
g71
NtRp3318
(dp3319
g74
(dp3320
g94
g95
ssg83
g3314
sg76
(lp3321
g411
asbag69
(g90
g71
NtRp3322
(dp3323
g74
(dp3324
g101
g102
ssg83
g3314
sg76
(lp3325
S':'
asbag69
(g90
g71
NtRp3326
(dp3327
g74
(dp3328
sg83
g3314
sg76
(lp3329
g69
(g70
g71
NtRp3330
(dp3331
g74
(dp3332
g82
I3
ssg83
g3326
sg76
(lp3333
S'/'
asbasbasbag69
(g85
g71
NtRp3334
(dp3335
g74
(dp3336
sg83
g3210
sg76
(lp3337
g69
(g90
g71
NtRp3338
(dp3339
g74
(dp3340
g94
g95
ssg83
g3334
sg76
(lp3341
g432
asbag69
(g90
g71
NtRp3342
(dp3343
g74
(dp3344
g101
g102
ssg83
g3334
sg76
(lp3345
S':'
asbag69
(g90
g71
NtRp3346
(dp3347
g74
(dp3348
sg83
g3334
sg76
(lp3349
g69
(g70
g71
NtRp3350
(dp3351
g74
(dp3352
g82
I3
ssg83
g3346
sg76
(lp3353
S''
asbasbasbag69
(g85
g71
NtRp3354
(dp3355
g74
(dp3356
sg83
g3210
sg76
(lp3357
g69
(g90
g71
NtRp3358
(dp3359
g74
(dp3360
g94
g95
ssg83
g3354
sg76
(lp3361
g453
asbag69
(g90
g71
NtRp3362
(dp3363
g74
(dp3364
g101
g102
ssg83
g3354
sg76
(lp3365
S':'
asbag69
(g90
g71
NtRp3366
(dp3367
g74
(dp3368
sg83
g3354
sg76
(lp3369
g69
(g70
g71
NtRp3370
(dp3371
g74
(dp3372
g82
I3
ssg83
g3366
sg76
(lp3373
S''
asbasbasbasbasbasbasbasbasbasbasbag69
(g85
g71
NtRp3374
(dp3375
g74
(dp3376
sg83
g3139
sg76
(lp3377
g69
(g90
g71
NtRp3378
(dp3379
g74
(dp3380
g94
g95
ssg83
g3374
sg76
(lp3381
S'delimiters'
p3382
asbag69
(g90
g71
NtRp3383
(dp3384
g74
(dp3385
g101
g102
ssg83
g3374
sg76
(lp3386
S':'
asbag69
(g90
g71
NtRp3387
(dp3388
g74
(dp3389
sg83
g3374
sg76
(lp3390
g69
(g70
g71
NtRp3391
(dp3392
g74
(dp3393
g82
I5
ssg83
g3387
sg76
(lp3394
g69
(g78
g71
NtRp3395
(dp3396
g74
(dp3397
g82
I4
ssg83
Nsg76
(lp3398
g69
(g85
g71
NtRp3399
(dp3400
g74
(dp3401
sg83
g3395
sg76
(lp3402
g69
(g90
g71
NtRp3403
(dp3404
g74
(dp3405
sg83
g3399
sg76
(lp3406
g69
(g70
g71
NtRp3407
(dp3408
g74
(dp3409
g82
I4
ssg83
g3403
sg76
(lp3410
S'{{'
p3411
asbasbasbag69
(g85
g71
NtRp3412
(dp3413
g74
(dp3414
sg83
g3395
sg76
(lp3415
g69
(g90
g71
NtRp3416
(dp3417
g74
(dp3418
sg83
g3412
sg76
(lp3419
g69
(g70
g71
NtRp3420
(dp3421
g74
(dp3422
g82
I4
ssg83
g3416
sg76
(lp3423
S'}}'
p3424
asbasbasbasbasbasbasbag69
(g85
g71
NtRp3425
(dp3426
g74
(dp3427
sg83
g3139
sg76
(lp3428
g69
(g90
g71
NtRp3429
(dp3430
g74
(dp3431
g94
g95
ssg83
g3425
sg76
(lp3432
S'files'
p3433
asbag69
(g90
g71
NtRp3434
(dp3435
g74
(dp3436
g101
g102
ssg83
g3425
sg76
(lp3437
S':'
asbag69
(g90
g71
NtRp3438
(dp3439
g74
(dp3440
sg83
g3425
sg76
(lp3441
g69
(g70
g71
NtRp3442
(dp3443
g74
(dp3444
g82
I5
ssg83
g3438
sg76
(lp3445
g69
(g78
g71
NtRp3446
(dp3447
g74
(dp3448
g82
I4
ssg83
Nsg76
(lp3449
sbasbasbasbag69
(g85
g71
NtRp3450
(dp3451
g74
(dp3452
sg83
g3139
sg76
(lp3453
g69
(g90
g71
NtRp3454
(dp3455
g74
(dp3456
g94
g95
ssg83
g3450
sg76
(lp3457
S'flash'
p3458
asbag69
(g90
g71
NtRp3459
(dp3460
g74
(dp3461
g101
g102
ssg83
g3450
sg76
(lp3462
S':'
asbag69
(g90
g71
NtRp3463
(dp3464
g74
(dp3465
sg83
g3450
sg76
(lp3466
g69
(g70
g71
NtRp3467
(dp3468
g74
(dp3469
g82
I5
ssg83
g3463
sg76
(lp3470
S''
asbasbasbag69
(g85
g71
NtRp3471
(dp3472
g74
(dp3473
sg83
g3139
sg76
(lp3474
g69
(g90
g71
NtRp3475
(dp3476
g74
(dp3477
g94
g95
ssg83
g3471
sg76
(lp3478
S'generic_patterns'
p3479
asbag69
(g90
g71
NtRp3480
(dp3481
g74
(dp3482
g101
g102
ssg83
g3471
sg76
(lp3483
S':'
asbag69
(g90
g71
NtRp3484
(dp3485
g74
(dp3486
sg83
g3471
sg76
(lp3487
g69
(g70
g71
NtRp3488
(dp3489
g74
(dp3490
g82
I5
ssg83
g3484
sg76
(lp3491
g69
(g78
g71
NtRp3492
(dp3493
g74
(dp3494
g82
I4
ssg83
Nsg76
(lp3495
g69
(g85
g71
NtRp3496
(dp3497
g74
(dp3498
sg83
g3492
sg76
(lp3499
g69
(g90
g71
NtRp3500
(dp3501
g74
(dp3502
sg83
g3496
sg76
(lp3503
g69
(g70
g71
NtRp3504
(dp3505
g74
(dp3506
g82
I4
ssg83
g3500
sg76
(lp3507
S'*'
asbasbasbasbasbasbasbag69
(g85
g71
NtRp3508
(dp3509
g74
(dp3510
sg83
g3139
sg76
(lp3511
g69
(g90
g71
NtRp3512
(dp3513
g74
(dp3514
g94
g95
ssg83
g3508
sg76
(lp3515
S'google_analytics_id'
p3516
asbag69
(g90
g71
NtRp3517
(dp3518
g74
(dp3519
g101
g102
ssg83
g3508
sg76
(lp3520
S':'
asbag69
(g90
g71
NtRp3521
(dp3522
g74
(dp3523
sg83
g3508
sg76
(lp3524
g69
(g70
g71
NtRp3525
(dp3526
g74
(dp3527
g82
I5
ssg83
g3521
sg76
(lp3528
S'None'
p3529
asbasbasbag69
(g85
g71
NtRp3530
(dp3531
g74
(dp3532
sg83
g3139
sg76
(lp3533
g69
(g90
g71
NtRp3534
(dp3535
g74
(dp3536
g94
g95
ssg83
g3530
sg76
(lp3537
S'headers'
p3538
asbag69
(g90
g71
NtRp3539
(dp3540
g74
(dp3541
g101
g102
ssg83
g3530
sg76
(lp3542
S':'
asbag69
(g90
g71
NtRp3543
(dp3544
g74
(dp3545
sg83
g3530
sg76
(lp3546
g69
(g70
g71
NtRp3547
(dp3548
g74
(dp3549
g82
I5
ssg83
g3543
sg76
(lp3550
g69
(g78
g71
NtRp3551
(dp3552
g74
(dp3553
g82
I4
ssg83
Nsg76
(lp3554
g69
(g85
g71
NtRp3555
(dp3556
g74
(dp3557
sg83
g3551
sg76
(lp3558
g69
(g90
g71
NtRp3559
(dp3560
g74
(dp3561
g94
g95
ssg83
g3555
sg76
(lp3562
S'X-Powered-By'
p3563
asbag69
(g90
g71
NtRp3564
(dp3565
g74
(dp3566
g101
g102
ssg83
g3555
sg76
(lp3567
S':'
asbag69
(g90
g71
NtRp3568
(dp3569
g74
(dp3570
sg83
g3555
sg76
(lp3571
g69
(g70
g71
NtRp3572
(dp3573
g74
(dp3574
g82
I4
ssg83
g3568
sg76
(lp3575
S'web2py'
p3576
asbasbasbasbasbasbasbag69
(g85
g71
NtRp3577
(dp3578
g74
(dp3579
sg83
g3139
sg76
(lp3580
g69
(g90
g71
NtRp3581
(dp3582
g74
(dp3583
g94
g95
ssg83
g3577
sg76
(lp3584
S'menu'
p3585
asbag69
(g90
g71
NtRp3586
(dp3587
g74
(dp3588
g101
g102
ssg83
g3577
sg76
(lp3589
S':'
asbag69
(g90
g71
NtRp3590
(dp3591
g74
(dp3592
sg83
g3577
sg76
(lp3593
g69
(g70
g71
NtRp3594
(dp3595
g74
(dp3596
g82
I5
ssg83
g3590
sg76
(lp3597
g69
(g78
g71
NtRp3598
(dp3599
g74
(dp3600
g82
I4
ssg83
Nsg76
(lp3601
g69
(g85
g71
NtRp3602
(dp3603
g74
(dp3604
sg83
g3598
sg76
(lp3605
g69
(g90
g71
NtRp3606
(dp3607
g74
(dp3608
sg83
g3602
sg76
(lp3609
g69
(g70
g71
NtRp3610
(dp3611
g74
(dp3612
g82
I4
ssg83
g3606
sg76
(lp3613
g69
(g78
g71
NtRp3614
(dp3615
g74
(dp3616
g82
I3
ssg83
Nsg76
(lp3617
g69
(g85
g71
NtRp3618
(dp3619
g74
(dp3620
sg83
g3614
sg76
(lp3621
g69
(g90
g71
NtRp3622
(dp3623
g74
(dp3624
sg83
g3618
sg76
(lp3625
g69
(g70
g71
NtRp3626
(dp3627
g74
(dp3628
g82
I3
ssg83
g3622
sg76
(lp3629
cgluon.languages
lazyT_unpickle
p3630
(S's\x04\x00\x00\x00Home'
tRp3631
asbasbasbag69
(g85
g71
NtRp3632
(dp3633
g74
(dp3634
sg83
g3614
sg76
(lp3635
g69
(g90
g71
NtRp3636
(dp3637
g74
(dp3638
sg83
g3632
sg76
(lp3639
g69
(g70
g71
NtRp3640
(dp3641
g74
(dp3642
g82
I3
ssg83
g3636
sg76
(lp3643
g112
asbasbasbag69
(g85
g71
NtRp3644
(dp3645
g74
(dp3646
sg83
g3614
sg76
(lp3647
g69
(g90
g71
NtRp3648
(dp3649
g74
(dp3650
sg83
g3644
sg76
(lp3651
g69
(g70
g71
NtRp3652
(dp3653
g74
(dp3654
g82
I3
ssg83
g3648
sg76
(lp3655
S'/MyApp/default/index'
p3656
asbasbasbag69
(g85
g71
NtRp3657
(dp3658
g74
(dp3659
sg83
g3614
sg76
(lp3660
g69
(g90
g71
NtRp3661
(dp3662
g74
(dp3663
sg83
g3657
sg76
(lp3664
g69
(g70
g71
NtRp3665
(dp3666
g74
(dp3667
g82
I3
ssg83
g3661
sg76
(lp3668
g69
(g78
g71
NtRp3669
(dp3670
g74
(dp3671
g82
I2
ssg83
Nsg76
(lp3672
sbasbasbasbasbasbasbasbag69
(g85
g71
NtRp3673
(dp3674
g74
(dp3675
sg83
g3598
sg76
(lp3676
g69
(g90
g71
NtRp3677
(dp3678
g74
(dp3679
sg83
g3673
sg76
(lp3680
g69
(g70
g71
NtRp3681
(dp3682
g74
(dp3683
g82
I4
ssg83
g3677
sg76
(lp3684
g69
(g78
g71
NtRp3685
(dp3686
g74
(dp3687
g82
I3
ssg83
Nsg76
(lp3688
g69
(g85
g71
NtRp3689
(dp3690
g74
(dp3691
sg83
g3685
sg76
(lp3692
g69
(g90
g71
NtRp3693
(dp3694
g74
(dp3695
sg83
g3689
sg76
(lp3696
g69
(g70
g71
NtRp3697
(dp3698
g74
(dp3699
g82
I3
ssg83
g3693
sg76
(lp3700
g69
(cgluon.html
SPAN
p3701
g71
NtRp3702
(dp3703
g74
(dp3704
S'_class'
p3705
S'highlighted'
p3706
ssg83
Nsg76
(lp3707
g3576
asbasbasbasbag69
(g85
g71
NtRp3708
(dp3709
g74
(dp3710
sg83
g3685
sg76
(lp3711
g69
(g90
g71
NtRp3712
(dp3713
g74
(dp3714
sg83
g3708
sg76
(lp3715
g69
(g70
g71
NtRp3716
(dp3717
g74
(dp3718
g82
I3
ssg83
g3712
sg76
(lp3719
g112
asbasbasbag69
(g85
g71
NtRp3720
(dp3721
g74
(dp3722
sg83
g3685
sg76
(lp3723
g69
(g90
g71
NtRp3724
(dp3725
g74
(dp3726
sg83
g3720
sg76
(lp3727
g69
(g70
g71
NtRp3728
(dp3729
g74
(dp3730
g82
I3
ssg83
g3724
sg76
(lp3731
S'http://web2py.com'
p3732
asbasbasbag69
(g85
g71
NtRp3733
(dp3734
g74
(dp3735
sg83
g3685
sg76
(lp3736
g69
(g90
g71
NtRp3737
(dp3738
g74
(dp3739
sg83
g3733
sg76
(lp3740
g69
(g70
g71
NtRp3741
(dp3742
g74
(dp3743
g82
I3
ssg83
g3737
sg76
(lp3744
g69
(g78
g71
NtRp3745
(dp3746
g74
(dp3747
g82
I2
ssg83
Nsg76
(lp3748
g69
(g85
g71
NtRp3749
(dp3750
g74
(dp3751
sg83
g3745
sg76
(lp3752
g69
(g90
g71
NtRp3753
(dp3754
g74
(dp3755
sg83
g3749
sg76
(lp3756
g69
(g70
g71
NtRp3757
(dp3758
g74
(dp3759
g82
I2
ssg83
g3753
sg76
(lp3760
g69
(g78
g71
NtRp3761
(dp3762
g74
(dp3763
g82
I1
ssg83
Nsg76
(lp3764
g69
(g85
g71
NtRp3765
(dp3766
g74
(dp3767
sg83
g3761
sg76
(lp3768
g69
(g90
g71
NtRp3769
(dp3770
g74
(dp3771
sg83
g3765
sg76
(lp3772
g69
(g70
g71
NtRp3773
(dp3774
g74
(dp3775
g82
I1
ssg83
g3769
sg76
(lp3776
g3630
(S's\x08\x00\x00\x00My Sites'
tRp3777
asbasbasbag69
(g85
g71
NtRp3778
(dp3779
g74
(dp3780
sg83
g3761
sg76
(lp3781
g69
(g90
g71
NtRp3782
(dp3783
g74
(dp3784
sg83
g3778
sg76
(lp3785
g69
(g70
g71
NtRp3786
(dp3787
g74
(dp3788
g82
I1
ssg83
g3782
sg76
(lp3789
I00
asbasbasbag69
(g85
g71
NtRp3790
(dp3791
g74
(dp3792
sg83
g3761
sg76
(lp3793
g69
(g90
g71
NtRp3794
(dp3795
g74
(dp3796
sg83
g3790
sg76
(lp3797
g69
(g70
g71
NtRp3798
(dp3799
g74
(dp3800
g82
I1
ssg83
g3794
sg76
(lp3801
S'/admin/default/site'
p3802
asbasbasbasbasbasbasbag69
(g85
g71
NtRp3803
(dp3804
g74
(dp3805
sg83
g3745
sg76
(lp3806
g69
(g90
g71
NtRp3807
(dp3808
g74
(dp3809
sg83
g3803
sg76
(lp3810
g69
(g70
g71
NtRp3811
(dp3812
g74
(dp3813
g82
I2
ssg83
g3807
sg76
(lp3814
g69
(g78
g71
NtRp3815
(dp3816
g74
(dp3817
g82
I1
ssg83
Nsg76
(lp3818
g69
(g85
g71
NtRp3819
(dp3820
g74
(dp3821
sg83
g3815
sg76
(lp3822
g69
(g90
g71
NtRp3823
(dp3824
g74
(dp3825
sg83
g3819
sg76
(lp3826
g69
(g70
g71
NtRp3827
(dp3828
g74
(dp3829
g82
I1
ssg83
g3823
sg76
(lp3830
g3630
(S's\x08\x00\x00\x00This App'
tRp3831
asbasbasbag69
(g85
g71
NtRp3832
(dp3833
g74
(dp3834
sg83
g3815
sg76
(lp3835
g69
(g90
g71
NtRp3836
(dp3837
g74
(dp3838
sg83
g3832
sg76
(lp3839
g69
(g70
g71
NtRp3840
(dp3841
g74
(dp3842
g82
I1
ssg83
g3836
sg76
(lp3843
I00
asbasbasbag69
(g85
g71
NtRp3844
(dp3845
g74
(dp3846
sg83
g3815
sg76
(lp3847
g69
(g90
g71
NtRp3848
(dp3849
g74
(dp3850
sg83
g3844
sg76
(lp3851
g69
(g70
g71
NtRp3852
(dp3853
g74
(dp3854
g82
I1
ssg83
g3848
sg76
(lp3855
S'/admin/default/design/MyApp'
p3856
asbasbasbag69
(g85
g71
NtRp3857
(dp3858
g74
(dp3859
sg83
g3815
sg76
(lp3860
g69
(g90
g71
NtRp3861
(dp3862
g74
(dp3863
sg83
g3857
sg76
(lp3864
g69
(g70
g71
NtRp3865
(dp3866
g74
(dp3867
g82
I1
ssg83
g3861
sg76
(lp3868
(lp3869
(g3630
(S's\n\x00\x00\x00Controller'
tRp3870
I00
S'/admin/default/edit/MyApp/controllers/default.py'
tp3871
a(g3630
(S's\x04\x00\x00\x00View'
tRp3872
I00
S'/admin/default/edit/MyApp/views/default/index.html'
tp3873
a(g3630
(S's\x06\x00\x00\x00Layout'
tRp3874
I00
S'/admin/default/edit/MyApp/views/layout.html'
tp3875
a(g3630
(S's\n\x00\x00\x00Stylesheet'
tRp3876
I00
S'/admin/default/edit/MyApp/static/css/web2py.css'
tp3877
a(g3630
(S's\x08\x00\x00\x00DB Model'
tRp3878
I00
S'/admin/default/edit/MyApp/models/db.py'
tp3879
a(g3630
(S's\n\x00\x00\x00Menu Model'
tRp3880
I00
S'/admin/default/edit/MyApp/models/menu.py'
tp3881
a(g3630
(S's\x08\x00\x00\x00Database'
tRp3882
I00
S'/MyApp/appadmin/index'
tp3883
a(g3630
(S's\x06\x00\x00\x00Errors'
tRp3884
I00
S'/admin/default/errors/MyApp'
tp3885
a(g3630
(S's\x05\x00\x00\x00About'
tRp3886
I00
S'/admin/default/about/MyApp'
tp3887
aasbasbasbasbasbasbasbag69
(g85
g71
NtRp3888
(dp3889
g74
(dp3890
sg83
g3745
sg76
(lp3891
g69
(g90
g71
NtRp3892
(dp3893
g74
(dp3894
sg83
g3888
sg76
(lp3895
g69
(g70
g71
NtRp3896
(dp3897
g74
(dp3898
g82
I2
ssg83
g3892
sg76
(lp3899
g69
(g78
g71
NtRp3900
(dp3901
g74
(dp3902
g82
I1
ssg83
Nsg76
(lp3903
g69
(g85
g71
NtRp3904
(dp3905
g74
(dp3906
sg83
g3900
sg76
(lp3907
g69
(g90
g71
NtRp3908
(dp3909
g74
(dp3910
sg83
g3904
sg76
(lp3911
g69
(g70
g71
NtRp3912
(dp3913
g74
(dp3914
g82
I1
ssg83
g3908
sg76
(lp3915
S'web2py.com'
p3916
asbasbasbag69
(g85
g71
NtRp3917
(dp3918
g74
(dp3919
sg83
g3900
sg76
(lp3920
g69
(g90
g71
NtRp3921
(dp3922
g74
(dp3923
sg83
g3917
sg76
(lp3924
g69
(g70
g71
NtRp3925
(dp3926
g74
(dp3927
g82
I1
ssg83
g3921
sg76
(lp3928
I00
asbasbasbag69
(g85
g71
NtRp3929
(dp3930
g74
(dp3931
sg83
g3900
sg76
(lp3932
g69
(g90
g71
NtRp3933
(dp3934
g74
(dp3935
sg83
g3929
sg76
(lp3936
g69
(g70
g71
NtRp3937
(dp3938
g74
(dp3939
g82
I1
ssg83
g3933
sg76
(lp3940
S'http://www.web2py.com'
p3941
asbasbasbag69
(g85
g71
NtRp3942
(dp3943
g74
(dp3944
sg83
g3900
sg76
(lp3945
g69
(g90
g71
NtRp3946
(dp3947
g74
(dp3948
sg83
g3942
sg76
(lp3949
g69
(g70
g71
NtRp3950
(dp3951
g74
(dp3952
g82
I1
ssg83
g3946
sg76
(lp3953
(lp3954
(g3630
(S's\x08\x00\x00\x00Download'
tRp3955
I00
S'http://www.web2py.com/examples/default/download'
p3956
tp3957
a(g3630
(S's\x07\x00\x00\x00Support'
tRp3958
I00
S'http://www.web2py.com/examples/default/support'
p3959
tp3960
a(g3630
(S's\x04\x00\x00\x00Demo'
tRp3961
I00
S'http://web2py.com/demo_admin'
p3962
tp3963
a(g3630
(S's\x0e\x00\x00\x00Quick Examples'
tRp3964
I00
S'http://web2py.com/examples/default/examples'
p3965
tp3966
a(g3630
(S's\x03\x00\x00\x00FAQ'
tRp3967
I00
S'http://web2py.com/AlterEgo'
p3968
tp3969
a(g3630
(S's\x06\x00\x00\x00Videos'
tRp3970
I00
S'http://www.web2py.com/examples/default/videos/'
p3971
tp3972
a(g3630
(S's\x11\x00\x00\x00Free Applications'
tRp3973
I00
S'http://web2py.com/appliances'
p3974
tp3975
a(g3630
(S's\x07\x00\x00\x00Plugins'
tRp3976
I00
S'http://web2py.com/plugins'
p3977
tp3978
a(g3630
(S's\x07\x00\x00\x00Layouts'
tRp3979
I00
S'http://web2py.com/layouts'
p3980
tp3981
a(g3630
(S's\x07\x00\x00\x00Recipes'
tRp3982
I00
S'http://web2pyslices.com/'
p3983
tp3984
a(g3630
(S's\x08\x00\x00\x00Semantic'
tRp3985
I00
S'http://web2py.com/semantic'
p3986
tp3987
aasbasbasbasbasbasbasbag69
(g85
g71
NtRp3988
(dp3989
g74
(dp3990
sg83
g3745
sg76
(lp3991
g69
(g90
g71
NtRp3992
(dp3993
g74
(dp3994
sg83
g3988
sg76
(lp3995
g69
(g70
g71
NtRp3996
(dp3997
g74
(dp3998
g82
I2
ssg83
g3992
sg76
(lp3999
g69
(g78
g71
NtRp4000
(dp4001
g74
(dp4002
g82
I1
ssg83
Nsg76
(lp4003
g69
(g85
g71
NtRp4004
(dp4005
g74
(dp4006
sg83
g4000
sg76
(lp4007
g69
(g90
g71
NtRp4008
(dp4009
g74
(dp4010
sg83
g4004
sg76
(lp4011
g69
(g70
g71
NtRp4012
(dp4013
g74
(dp4014
g82
I1
ssg83
g4008
sg76
(lp4015
g3630
(S's\r\x00\x00\x00Documentation'
tRp4016
asbasbasbag69
(g85
g71
NtRp4017
(dp4018
g74
(dp4019
sg83
g4000
sg76
(lp4020
g69
(g90
g71
NtRp4021
(dp4022
g74
(dp4023
sg83
g4017
sg76
(lp4024
g69
(g70
g71
NtRp4025
(dp4026
g74
(dp4027
g82
I1
ssg83
g4021
sg76
(lp4028
I00
asbasbasbag69
(g85
g71
NtRp4029
(dp4030
g74
(dp4031
sg83
g4000
sg76
(lp4032
g69
(g90
g71
NtRp4033
(dp4034
g74
(dp4035
sg83
g4029
sg76
(lp4036
g69
(g70
g71
NtRp4037
(dp4038
g74
(dp4039
g82
I1
ssg83
g4033
sg76
(lp4040
S'http://www.web2py.com/book'
p4041
asbasbasbag69
(g85
g71
NtRp4042
(dp4043
g74
(dp4044
sg83
g4000
sg76
(lp4045
g69
(g90
g71
NtRp4046
(dp4047
g74
(dp4048
sg83
g4042
sg76
(lp4049
g69
(g70
g71
NtRp4050
(dp4051
g74
(dp4052
g82
I1
ssg83
g4046
sg76
(lp4053
(lp4054
(g3630
(S's\x07\x00\x00\x00Preface'
tRp4055
I00
S'http://www.web2py.com/book/default/chapter/00'
p4056
tp4057
a(g3630
(S's\x0c\x00\x00\x00Introduction'
tRp4058
I00
S'http://www.web2py.com/book/default/chapter/01'
p4059
tp4060
a(g3630
(S's\x06\x00\x00\x00Python'
tRp4061
I00
S'http://www.web2py.com/book/default/chapter/02'
p4062
tp4063
a(g3630
(S's\x08\x00\x00\x00Overview'
tRp4064
I00
S'http://www.web2py.com/book/default/chapter/03'
p4065
tp4066
a(g3630
(S's\x08\x00\x00\x00The Core'
tRp4067
I00
S'http://www.web2py.com/book/default/chapter/04'
p4068
tp4069
a(g3630
(S's\t\x00\x00\x00The Views'
tRp4070
I00
S'http://www.web2py.com/book/default/chapter/05'
p4071
tp4072
a(g3630
(S's\x08\x00\x00\x00Database'
tRp4073
I00
S'http://www.web2py.com/book/default/chapter/06'
p4074
tp4075
a(g3630
(S's\x14\x00\x00\x00Forms and Validators'
tRp4076
I00
S'http://www.web2py.com/book/default/chapter/07'
p4077
tp4078
a(g3630
(S's\r\x00\x00\x00Email and SMS'
tRp4079
I00
S'http://www.web2py.com/book/default/chapter/08'
p4080
tp4081
a(g3630
(S's\x0e\x00\x00\x00Access Control'
tRp4082
I00
S'http://www.web2py.com/book/default/chapter/09'
p4083
tp4084
a(g3630
(S's\x08\x00\x00\x00Services'
tRp4085
I00
S'http://www.web2py.com/book/default/chapter/10'
p4086
tp4087
a(g3630
(S's\x0c\x00\x00\x00Ajax Recipes'
tRp4088
I00
S'http://www.web2py.com/book/default/chapter/11'
p4089
tp4090
a(g3630
(S's\x16\x00\x00\x00Components and Plugins'
tRp4091
I00
S'http://www.web2py.com/book/default/chapter/12'
p4092
tp4093
a(g3630
(S's\x12\x00\x00\x00Deployment Recipes'
tRp4094
I00
S'http://www.web2py.com/book/default/chapter/13'
p4095
tp4096
a(g3630
(S's\r\x00\x00\x00Other Recipes'
tRp4097
I00
S'http://www.web2py.com/book/default/chapter/14'
p4098
tp4099
a(g3630
(S's\r\x00\x00\x00Buy this book'
tRp4100
I00
S'http://stores.lulu.com/web2py'
p4101
tp4102
aasbasbasbasbasbasbasbag69
(g85
g71
NtRp4103
(dp4104
g74
(dp4105
sg83
g3745
sg76
(lp4106
g69
(g90
g71
NtRp4107
(dp4108
g74
(dp4109
sg83
g4103
sg76
(lp4110
g69
(g70
g71
NtRp4111
(dp4112
g74
(dp4113
g82
I2
ssg83
g4107
sg76
(lp4114
g69
(g78
g71
NtRp4115
(dp4116
g74
(dp4117
g82
I1
ssg83
Nsg76
(lp4118
g69
(g85
g71
NtRp4119
(dp4120
g74
(dp4121
sg83
g4115
sg76
(lp4122
g69
(g90
g71
NtRp4123
(dp4124
g74
(dp4125
sg83
g4119
sg76
(lp4126
g69
(g70
g71
NtRp4127
(dp4128
g74
(dp4129
g82
I1
ssg83
g4123
sg76
(lp4130
g3630
(S's\t\x00\x00\x00Community'
tRp4131
asbasbasbag69
(g85
g71
NtRp4132
(dp4133
g74
(dp4134
sg83
g4115
sg76
(lp4135
g69
(g90
g71
NtRp4136
(dp4137
g74
(dp4138
sg83
g4132
sg76
(lp4139
g69
(g70
g71
NtRp4140
(dp4141
g74
(dp4142
g82
I1
ssg83
g4136
sg76
(lp4143
I00
asbasbasbag69
(g85
g71
NtRp4144
(dp4145
g74
(dp4146
sg83
g4115
sg76
(lp4147
g69
(g90
g71
NtRp4148
(dp4149
g74
(dp4150
sg83
g4144
sg76
(lp4151
g69
(g70
g71
NtRp4152
(dp4153
g74
(dp4154
g82
I1
ssg83
g4148
sg76
(lp4155
Nasbasbasbag69
(g85
g71
NtRp4156
(dp4157
g74
(dp4158
sg83
g4115
sg76
(lp4159
g69
(g90
g71
NtRp4160
(dp4161
g74
(dp4162
sg83
g4156
sg76
(lp4163
g69
(g70
g71
NtRp4164
(dp4165
g74
(dp4166
g82
I1
ssg83
g4160
sg76
(lp4167
(lp4168
(g3630
(S's\x06\x00\x00\x00Groups'
tRp4169
I00
S'http://www.web2py.com/examples/default/usergroups'
p4170
tp4171
a(g3630
(S's\x07\x00\x00\x00Twitter'
tRp4172
I00
S'http://twitter.com/web2py'
p4173
tp4174
a(g3630
(S's\t\x00\x00\x00Live Chat'
tRp4175
I00
S'http://webchat.freenode.net/?channels=web2py'
p4176
tp4177
aasbasbasbasbasbasbasbag69
(g85
g71
NtRp4178
(dp4179
g74
(dp4180
sg83
g3745
sg76
(lp4181
g69
(g90
g71
NtRp4182
(dp4183
g74
(dp4184
sg83
g4178
sg76
(lp4185
g69
(g70
g71
NtRp4186
(dp4187
g74
(dp4188
g82
I2
ssg83
g4182
sg76
(lp4189
g69
(g78
g71
NtRp4190
(dp4191
g74
(dp4192
g82
I1
ssg83
Nsg76
(lp4193
g69
(g85
g71
NtRp4194
(dp4195
g74
(dp4196
sg83
g4190
sg76
(lp4197
g69
(g90
g71
NtRp4198
(dp4199
g74
(dp4200
sg83
g4194
sg76
(lp4201
g69
(g70
g71
NtRp4202
(dp4203
g74
(dp4204
g82
I1
ssg83
g4198
sg76
(lp4205
g3630
(S's\x07\x00\x00\x00Plugins'
tRp4206
asbasbasbag69
(g85
g71
NtRp4207
(dp4208
g74
(dp4209
sg83
g4190
sg76
(lp4210
g69
(g90
g71
NtRp4211
(dp4212
g74
(dp4213
sg83
g4207
sg76
(lp4214
g69
(g70
g71
NtRp4215
(dp4216
g74
(dp4217
g82
I1
ssg83
g4211
sg76
(lp4218
I00
asbasbasbag69
(g85
g71
NtRp4219
(dp4220
g74
(dp4221
sg83
g4190
sg76
(lp4222
g69
(g90
g71
NtRp4223
(dp4224
g74
(dp4225
sg83
g4219
sg76
(lp4226
g69
(g70
g71
NtRp4227
(dp4228
g74
(dp4229
g82
I1
ssg83
g4223
sg76
(lp4230
Nasbasbasbag69
(g85
g71
NtRp4231
(dp4232
g74
(dp4233
sg83
g4190
sg76
(lp4234
g69
(g90
g71
NtRp4235
(dp4236
g74
(dp4237
sg83
g4231
sg76
(lp4238
g69
(g70
g71
NtRp4239
(dp4240
g74
(dp4241
g82
I1
ssg83
g4235
sg76
(lp4242
(lp4243
(S'plugin_wiki'
p4244
I00
S'http://web2py.com/examples/default/download'
p4245
tp4246
a(g3630
(S's\r\x00\x00\x00Other Plugins'
tRp4247
I00
g3977
tp4248
a(g3630
(S's\x0e\x00\x00\x00Layout Plugins'
tRp4249
I00
g3980
tp4250
aasbasbasbasbasbasbasbasbasbasbasbasbasbasbasbasbasbasbasbag69
(g85
g71
NtRp4251
(dp4252
g74
(dp4253
sg83
g3139
sg76
(lp4254
g69
(g90
g71
NtRp4255
(dp4256
g74
(dp4257
g94
g95
ssg83
g4251
sg76
(lp4258
S'meta'
p4259
asbag69
(g90
g71
NtRp4260
(dp4261
g74
(dp4262
g101
g102
ssg83
g4251
sg76
(lp4263
S':'
asbag69
(g90
g71
NtRp4264
(dp4265
g74
(dp4266
sg83
g4251
sg76
(lp4267
g69
(g70
g71
NtRp4268
(dp4269
g74
(dp4270
g82
I5
ssg83
g4264
sg76
(lp4271
g69
(g78
g71
NtRp4272
(dp4273
g74
(dp4274
g82
I4
ssg83
Nsg76
(lp4275
g69
(g85
g71
NtRp4276
(dp4277
g74
(dp4278
sg83
g4272
sg76
(lp4279
g69
(g90
g71
NtRp4280
(dp4281
g74
(dp4282
g94
g95
ssg83
g4276
sg76
(lp4283
S'author'
p4284
asbag69
(g90
g71
NtRp4285
(dp4286
g74
(dp4287
g101
g102
ssg83
g4276
sg76
(lp4288
S':'
asbag69
(g90
g71
NtRp4289
(dp4290
g74
(dp4291
sg83
g4276
sg76
(lp4292
g69
(g70
g71
NtRp4293
(dp4294
g74
(dp4295
g82
I4
ssg83
g4289
sg76
(lp4296
S'Your Name <you@example.com>'
p4297
asbasbasbag69
(g85
g71
NtRp4298
(dp4299
g74
(dp4300
sg83
g4272
sg76
(lp4301
g69
(g90
g71
NtRp4302
(dp4303
g74
(dp4304
g94
g95
ssg83
g4298
sg76
(lp4305
S'description'
p4306
asbag69
(g90
g71
NtRp4307
(dp4308
g74
(dp4309
g101
g102
ssg83
g4298
sg76
(lp4310
S':'
asbag69
(g90
g71
NtRp4311
(dp4312
g74
(dp4313
sg83
g4298
sg76
(lp4314
g69
(g70
g71
NtRp4315
(dp4316
g74
(dp4317
g82
I4
ssg83
g4311
sg76
(lp4318
S'a cool new app'
p4319
asbasbasbag69
(g85
g71
NtRp4320
(dp4321
g74
(dp4322
sg83
g4272
sg76
(lp4323
g69
(g90
g71
NtRp4324
(dp4325
g74
(dp4326
g94
g95
ssg83
g4320
sg76
(lp4327
S'generator'
p4328
asbag69
(g90
g71
NtRp4329
(dp4330
g74
(dp4331
g101
g102
ssg83
g4320
sg76
(lp4332
S':'
asbag69
(g90
g71
NtRp4333
(dp4334
g74
(dp4335
sg83
g4320
sg76
(lp4336
g69
(g70
g71
NtRp4337
(dp4338
g74
(dp4339
g82
I4
ssg83
g4333
sg76
(lp4340
S'Web2py Web Framework'
p4341
asbasbasbag69
(g85
g71
NtRp4342
(dp4343
g74
(dp4344
sg83
g4272
sg76
(lp4345
g69
(g90
g71
NtRp4346
(dp4347
g74
(dp4348
g94
g95
ssg83
g4342
sg76
(lp4349
S'keywords'
p4350
asbag69
(g90
g71
NtRp4351
(dp4352
g74
(dp4353
g101
g102
ssg83
g4342
sg76
(lp4354
S':'
asbag69
(g90
g71
NtRp4355
(dp4356
g74
(dp4357
sg83
g4342
sg76
(lp4358
g69
(g70
g71
NtRp4359
(dp4360
g74
(dp4361
g82
I4
ssg83
g4355
sg76
(lp4362
S'web2py, python, framework'
p4363
asbasbasbasbasbasbasbag69
(g85
g71
NtRp4364
(dp4365
g74
(dp4366
sg83
g3139
sg76
(lp4367
g69
(g90
g71
NtRp4368
(dp4369
g74
(dp4370
g94
g95
ssg83
g4364
sg76
(lp4371
S'models_to_run'
p4372
asbag69
(g90
g71
NtRp4373
(dp4374
g74
(dp4375
g101
g102
ssg83
g4364
sg76
(lp4376
S':'
asbag69
(g90
g71
NtRp4377
(dp4378
g74
(dp4379
sg83
g4364
sg76
(lp4380
g69
(g70
g71
NtRp4381
(dp4382
g74
(dp4383
g82
I5
ssg83
g4377
sg76
(lp4384
g69
(g78
g71
NtRp4385
(dp4386
g74
(dp4387
g82
I4
ssg83
Nsg76
(lp4388
g69
(g85
g71
NtRp4389
(dp4390
g74
(dp4391
sg83
g4385
sg76
(lp4392
g69
(g90
g71
NtRp4393
(dp4394
g74
(dp4395
sg83
g4389
sg76
(lp4396
g69
(g70
g71
NtRp4397
(dp4398
g74
(dp4399
g82
I4
ssg83
g4393
sg76
(lp4400
S'^\\w+\\.py$'
p4401
asbasbasbag69
(g85
g71
NtRp4402
(dp4403
g74
(dp4404
sg83
g4385
sg76
(lp4405
g69
(g90
g71
NtRp4406
(dp4407
g74
(dp4408
sg83
g4402
sg76
(lp4409
g69
(g70
g71
NtRp4410
(dp4411
g74
(dp4412
g82
I4
ssg83
g4406
sg76
(lp4413
S'^default/\\w+\\.py$'
p4414
asbasbasbag69
(g85
g71
NtRp4415
(dp4416
g74
(dp4417
sg83
g4385
sg76
(lp4418
g69
(g90
g71
NtRp4419
(dp4420
g74
(dp4421
sg83
g4415
sg76
(lp4422
g69
(g70
g71
NtRp4423
(dp4424
g74
(dp4425
g82
I4
ssg83
g4419
sg76
(lp4426
S'^default/index/\\w+\\.py$'
p4427
asbasbasbasbasbasbasbag69
(g85
g71
NtRp4428
(dp4429
g74
(dp4430
sg83
g3139
sg76
(lp4431
g69
(g90
g71
NtRp4432
(dp4433
g74
(dp4434
g94
g95
ssg83
g4428
sg76
(lp4435
S'postprocessing'
p4436
asbag69
(g90
g71
NtRp4437
(dp4438
g74
(dp4439
g101
g102
ssg83
g4428
sg76
(lp4440
S':'
asbag69
(g90
g71
NtRp4441
(dp4442
g74
(dp4443
sg83
g4428
sg76
(lp4444
g69
(g70
g71
NtRp4445
(dp4446
g74
(dp4447
g82
I5
ssg83
g4441
sg76
(lp4448
g69
(g78
g71
NtRp4449
(dp4450
g74
(dp4451
g82
I4
ssg83
Nsg76
(lp4452
sbasbasbasbag69
(g85
g71
NtRp4453
(dp4454
g74
(dp4455
sg83
g3139
sg76
(lp4456
g69
(g90
g71
NtRp4457
(dp4458
g74
(dp4459
g94
g95
ssg83
g4453
sg76
(lp4460
S'session_cookie_expires'
p4461
asbag69
(g90
g71
NtRp4462
(dp4463
g74
(dp4464
g101
g102
ssg83
g4453
sg76
(lp4465
S':'
asbag69
(g90
g71
NtRp4466
(dp4467
g74
(dp4468
sg83
g4453
sg76
(lp4469
g69
(g70
g71
NtRp4470
(dp4471
g74
(dp4472
g82
I5
ssg83
g4466
sg76
(lp4473
S'None'
p4474
asbasbasbag69
(g85
g71
NtRp4475
(dp4476
g74
(dp4477
sg83
g3139
sg76
(lp4478
g69
(g90
g71
NtRp4479
(dp4480
g74
(dp4481
g94
g95
ssg83
g4475
sg76
(lp4482
S'session_data_name'
p4483
asbag69
(g90
g71
NtRp4484
(dp4485
g74
(dp4486
g101
g102
ssg83
g4475
sg76
(lp4487
S':'
asbag69
(g90
g71
NtRp4488
(dp4489
g74
(dp4490
sg83
g4475
sg76
(lp4491
g69
(g70
g71
NtRp4492
(dp4493
g74
(dp4494
g82
I5
ssg83
g4488
sg76
(lp4495
S'session_data_myapp'
p4496
asbasbasbag69
(g85
g71
NtRp4497
(dp4498
g74
(dp4499
sg83
g3139
sg76
(lp4500
g69
(g90
g71
NtRp4501
(dp4502
g74
(dp4503
g94
g95
ssg83
g4497
sg76
(lp4504
S'session_filename'
p4505
asbag69
(g90
g71
NtRp4506
(dp4507
g74
(dp4508
g101
g102
ssg83
g4497
sg76
(lp4509
S':'
asbag69
(g90
g71
NtRp4510
(dp4511
g74
(dp4512
sg83
g4497
sg76
(lp4513
g69
(g70
g71
NtRp4514
(dp4515
g74
(dp4516
g82
I5
ssg83
g4510
sg76
(lp4517
S'/Users/keshav/Desktop/web2py/applications/MyApp/sessions/127.0.0.1-2e724553-0c02-465f-b258-dbdada808c9f'
p4518
asbasbasbag69
(g85
g71
NtRp4519
(dp4520
g74
(dp4521
sg83
g3139
sg76
(lp4522
g69
(g90
g71
NtRp4523
(dp4524
g74
(dp4525
g94
g95
ssg83
g4519
sg76
(lp4526
S'session_id'
p4527
asbag69
(g90
g71
NtRp4528
(dp4529
g74
(dp4530
g101
g102
ssg83
g4519
sg76
(lp4531
S':'
asbag69
(g90
g71
NtRp4532
(dp4533
g74
(dp4534
sg83
g4519
sg76
(lp4535
g69
(g70
g71
NtRp4536
(dp4537
g74
(dp4538
g82
I5
ssg83
g4532
sg76
(lp4539
g3209
asbasbasbag69
(g85
g71
NtRp4540
(dp4541
g74
(dp4542
sg83
g3139
sg76
(lp4543
g69
(g90
g71
NtRp4544
(dp4545
g74
(dp4546
g94
g95
ssg83
g4540
sg76
(lp4547
S'session_id_name'
p4548
asbag69
(g90
g71
NtRp4549
(dp4550
g74
(dp4551
g101
g102
ssg83
g4540
sg76
(lp4552
S':'
asbag69
(g90
g71
NtRp4553
(dp4554
g74
(dp4555
sg83
g4540
sg76
(lp4556
g69
(g70
g71
NtRp4557
(dp4558
g74
(dp4559
g82
I5
ssg83
g4553
sg76
(lp4560
g3196
asbasbasbag69
(g85
g71
NtRp4561
(dp4562
g74
(dp4563
sg83
g3139
sg76
(lp4564
g69
(g90
g71
NtRp4565
(dp4566
g74
(dp4567
g94
g95
ssg83
g4561
sg76
(lp4568
S'session_new'
p4569
asbag69
(g90
g71
NtRp4570
(dp4571
g74
(dp4572
g101
g102
ssg83
g4561
sg76
(lp4573
S':'
asbag69
(g90
g71
NtRp4574
(dp4575
g74
(dp4576
sg83
g4561
sg76
(lp4577
g69
(g70
g71
NtRp4578
(dp4579
g74
(dp4580
g82
I5
ssg83
g4574
sg76
(lp4581
g1616
asbasbasbag69
(g85
g71
NtRp4582
(dp4583
g74
(dp4584
sg83
g3139
sg76
(lp4585
g69
(g90
g71
NtRp4586
(dp4587
g74
(dp4588
g94
g95
ssg83
g4582
sg76
(lp4589
S'session_storage_type'
p4590
asbag69
(g90
g71
NtRp4591
(dp4592
g74
(dp4593
g101
g102
ssg83
g4582
sg76
(lp4594
S':'
asbag69
(g90
g71
NtRp4595
(dp4596
g74
(dp4597
sg83
g4582
sg76
(lp4598
g69
(g70
g71
NtRp4599
(dp4600
g74
(dp4601
g82
I5
ssg83
g4595
sg76
(lp4602
g3068
asbasbasbag69
(g85
g71
NtRp4603
(dp4604
g74
(dp4605
sg83
g3139
sg76
(lp4606
g69
(g90
g71
NtRp4607
(dp4608
g74
(dp4609
g94
g95
ssg83
g4603
sg76
(lp4610
S'status'
p4611
asbag69
(g90
g71
NtRp4612
(dp4613
g74
(dp4614
g101
g102
ssg83
g4603
sg76
(lp4615
S':'
asbag69
(g90
g71
NtRp4616
(dp4617
g74
(dp4618
sg83
g4603
sg76
(lp4619
g69
(g70
g71
NtRp4620
(dp4621
g74
(dp4622
g82
I5
ssg83
g4616
sg76
(lp4623
S'200'
p4624
asbasbasbag69
(g85
g71
NtRp4625
(dp4626
g74
(dp4627
sg83
g3139
sg76
(lp4628
g69
(g90
g71
NtRp4629
(dp4630
g74
(dp4631
g94
g95
ssg83
g4625
sg76
(lp4632
S'subtitle'
p4633
asbag69
(g90
g71
NtRp4634
(dp4635
g74
(dp4636
g101
g102
ssg83
g4625
sg76
(lp4637
S':'
asbag69
(g90
g71
NtRp4638
(dp4639
g74
(dp4640
sg83
g4625
sg76
(lp4641
g69
(g70
g71
NtRp4642
(dp4643
g74
(dp4644
g82
I5
ssg83
g4638
sg76
(lp4645
g3630
(S's\r\x00\x00\x00customize me!'
tRp4646
asbasbasbag69
(g85
g71
NtRp4647
(dp4648
g74
(dp4649
sg83
g3139
sg76
(lp4650
g69
(g90
g71
NtRp4651
(dp4652
g74
(dp4653
g94
g95
ssg83
g4647
sg76
(lp4654
S'title'
p4655
asbag69
(g90
g71
NtRp4656
(dp4657
g74
(dp4658
g101
g102
ssg83
g4647
sg76
(lp4659
S':'
asbag69
(g90
g71
NtRp4660
(dp4661
g74
(dp4662
sg83
g4647
sg76
(lp4663
g69
(g70
g71
NtRp4664
(dp4665
g74
(dp4666
g82
I5
ssg83
g4660
sg76
(lp4667
S'Myapp'
p4668
asbasbasbag69
(g85
g71
NtRp4669
(dp4670
g74
(dp4671
sg83
g3139
sg76
(lp4672
g69
(g90
g71
NtRp4673
(dp4674
g74
(dp4675
g94
g95
ssg83
g4669
sg76
(lp4676
S'view'
p4677
asbag69
(g90
g71
NtRp4678
(dp4679
g74
(dp4680
g101
g102
ssg83
g4669
sg76
(lp4681
S':'
asbag69
(g90
g71
NtRp4682
(dp4683
g74
(dp4684
sg83
g4669
sg76
(lp4685
g69
(g70
g71
NtRp4686
(dp4687
g74
(dp4688
g82
I5
ssg83
g4682
sg76
(lp4689
S'default/index.html'
p4690
asbasbasbasbasbsS'locals'
p4691
(dp4692
g4
S"'/Users/keshav/Desktop/web2py/applications/MyApp/controllers/default.py'"
p4693
sg6
S"'# -*- coding: utf-8 -*-\\n# this file is released ...error\\n\\n\\t\\t\\nresponse._vars=response._caller(index)\\n'"
p4694
sssS'traceback'
p4695
S'Traceback (most recent call last):\n  File "/Users/keshav/Desktop/web2py/gluon/restricted.py", line 211, in restricted\n    ccode = compile2(code, layer)\n  File "/Users/keshav/Desktop/web2py/gluon/restricted.py", line 194, in compile2\n    return compile(code.rstrip().replace(\'\\r\\n\', \'\\n\') + \'\\n\', layer, \'exec\')\n  File "/Users/keshav/Desktop/web2py/applications/MyApp/controllers/default.py", line 97\n    runner = InteractiveConsole()\n                                \n^\nIndentationError: unindent does not match any outer indentation level\n'
p4696
s.